
CISYNTH.elf:     file format elf32-littlearm

Sections:
Idx Name          Size      VMA       LMA       File off  Algn
  0 .isr_vector   00000298  08000000  08000000  00010000  2**0
                  CONTENTS, ALLOC, LOAD, READONLY, DATA
  1 .text         0000cc4c  080002a0  080002a0  000102a0  2**4
                  CONTENTS, ALLOC, LOAD, READONLY, CODE
  2 .rodata       00000730  0800cef0  0800cef0  0001cef0  2**3
                  CONTENTS, ALLOC, LOAD, READONLY, DATA
  3 .ARM.extab    00000000  0800d620  0800d620  0002007c  2**0
                  CONTENTS
  4 .ARM          00000008  0800d620  0800d620  0001d620  2**2
                  CONTENTS, ALLOC, LOAD, READONLY, DATA
  5 .preinit_array 00000000  0800d628  0800d628  0002007c  2**0
                  CONTENTS, ALLOC, LOAD, DATA
  6 .init_array   00000004  0800d628  0800d628  0001d628  2**2
                  CONTENTS, ALLOC, LOAD, DATA
  7 .fini_array   00000004  0800d62c  0800d62c  0001d62c  2**2
                  CONTENTS, ALLOC, LOAD, DATA
  8 .data         0000007c  24000000  0800d630  00020000  2**2
                  CONTENTS, ALLOC, LOAD, DATA
  9 .bss          0000b8d8  2400007c  0800d6ac  0002007c  2**2
                  ALLOC
 10 ._user_heap_stack 00000604  2400b954  0800d6ac  0002b954  2**0
                  ALLOC
 11 .ARM.attributes 0000002e  00000000  00000000  0002007c  2**0
                  CONTENTS, READONLY
 12 .comment      0000007b  00000000  00000000  000200aa  2**0
                  CONTENTS, READONLY
 13 .debug_frame  00000b5c  00000000  00000000  00020128  2**2
                  CONTENTS, READONLY, DEBUGGING

Disassembly of section .text:

080002a0 <__do_global_dtors_aux>:
 80002a0:	b510      	push	{r4, lr}
 80002a2:	4c05      	ldr	r4, [pc, #20]	; (80002b8 <__do_global_dtors_aux+0x18>)
 80002a4:	7823      	ldrb	r3, [r4, #0]
 80002a6:	b933      	cbnz	r3, 80002b6 <__do_global_dtors_aux+0x16>
 80002a8:	4b04      	ldr	r3, [pc, #16]	; (80002bc <__do_global_dtors_aux+0x1c>)
 80002aa:	b113      	cbz	r3, 80002b2 <__do_global_dtors_aux+0x12>
 80002ac:	4804      	ldr	r0, [pc, #16]	; (80002c0 <__do_global_dtors_aux+0x20>)
 80002ae:	f3af 8000 	nop.w
 80002b2:	2301      	movs	r3, #1
 80002b4:	7023      	strb	r3, [r4, #0]
 80002b6:	bd10      	pop	{r4, pc}
 80002b8:	2400007c 	.word	0x2400007c
 80002bc:	00000000 	.word	0x00000000
 80002c0:	0800ced4 	.word	0x0800ced4

080002c4 <frame_dummy>:
 80002c4:	b508      	push	{r3, lr}
 80002c6:	4b03      	ldr	r3, [pc, #12]	; (80002d4 <frame_dummy+0x10>)
 80002c8:	b11b      	cbz	r3, 80002d2 <frame_dummy+0xe>
 80002ca:	4903      	ldr	r1, [pc, #12]	; (80002d8 <frame_dummy+0x14>)
 80002cc:	4803      	ldr	r0, [pc, #12]	; (80002dc <frame_dummy+0x18>)
 80002ce:	f3af 8000 	nop.w
 80002d2:	bd08      	pop	{r3, pc}
 80002d4:	00000000 	.word	0x00000000
 80002d8:	24000080 	.word	0x24000080
 80002dc:	0800ced4 	.word	0x0800ced4

080002e0 <memchr>:
 80002e0:	f001 01ff 	and.w	r1, r1, #255	; 0xff
 80002e4:	2a10      	cmp	r2, #16
 80002e6:	db2b      	blt.n	8000340 <memchr+0x60>
 80002e8:	f010 0f07 	tst.w	r0, #7
 80002ec:	d008      	beq.n	8000300 <memchr+0x20>
 80002ee:	f810 3b01 	ldrb.w	r3, [r0], #1
 80002f2:	3a01      	subs	r2, #1
 80002f4:	428b      	cmp	r3, r1
 80002f6:	d02d      	beq.n	8000354 <memchr+0x74>
 80002f8:	f010 0f07 	tst.w	r0, #7
 80002fc:	b342      	cbz	r2, 8000350 <memchr+0x70>
 80002fe:	d1f6      	bne.n	80002ee <memchr+0xe>
 8000300:	b4f0      	push	{r4, r5, r6, r7}
 8000302:	ea41 2101 	orr.w	r1, r1, r1, lsl #8
 8000306:	ea41 4101 	orr.w	r1, r1, r1, lsl #16
 800030a:	f022 0407 	bic.w	r4, r2, #7
 800030e:	f07f 0700 	mvns.w	r7, #0
 8000312:	2300      	movs	r3, #0
 8000314:	e8f0 5602 	ldrd	r5, r6, [r0], #8
 8000318:	3c08      	subs	r4, #8
 800031a:	ea85 0501 	eor.w	r5, r5, r1
 800031e:	ea86 0601 	eor.w	r6, r6, r1
 8000322:	fa85 f547 	uadd8	r5, r5, r7
 8000326:	faa3 f587 	sel	r5, r3, r7
 800032a:	fa86 f647 	uadd8	r6, r6, r7
 800032e:	faa5 f687 	sel	r6, r5, r7
 8000332:	b98e      	cbnz	r6, 8000358 <memchr+0x78>
 8000334:	d1ee      	bne.n	8000314 <memchr+0x34>
 8000336:	bcf0      	pop	{r4, r5, r6, r7}
 8000338:	f001 01ff 	and.w	r1, r1, #255	; 0xff
 800033c:	f002 0207 	and.w	r2, r2, #7
 8000340:	b132      	cbz	r2, 8000350 <memchr+0x70>
 8000342:	f810 3b01 	ldrb.w	r3, [r0], #1
 8000346:	3a01      	subs	r2, #1
 8000348:	ea83 0301 	eor.w	r3, r3, r1
 800034c:	b113      	cbz	r3, 8000354 <memchr+0x74>
 800034e:	d1f8      	bne.n	8000342 <memchr+0x62>
 8000350:	2000      	movs	r0, #0
 8000352:	4770      	bx	lr
 8000354:	3801      	subs	r0, #1
 8000356:	4770      	bx	lr
 8000358:	2d00      	cmp	r5, #0
 800035a:	bf06      	itte	eq
 800035c:	4635      	moveq	r5, r6
 800035e:	3803      	subeq	r0, #3
 8000360:	3807      	subne	r0, #7
 8000362:	f015 0f01 	tst.w	r5, #1
 8000366:	d107      	bne.n	8000378 <memchr+0x98>
 8000368:	3001      	adds	r0, #1
 800036a:	f415 7f80 	tst.w	r5, #256	; 0x100
 800036e:	bf02      	ittt	eq
 8000370:	3001      	addeq	r0, #1
 8000372:	f415 3fc0 	tsteq.w	r5, #98304	; 0x18000
 8000376:	3001      	addeq	r0, #1
 8000378:	bcf0      	pop	{r4, r5, r6, r7}
 800037a:	3801      	subs	r0, #1
 800037c:	4770      	bx	lr
 800037e:	bf00      	nop

08000380 <__aeabi_uldivmod>:
 8000380:	b953      	cbnz	r3, 8000398 <__aeabi_uldivmod+0x18>
 8000382:	b94a      	cbnz	r2, 8000398 <__aeabi_uldivmod+0x18>
 8000384:	2900      	cmp	r1, #0
 8000386:	bf08      	it	eq
 8000388:	2800      	cmpeq	r0, #0
 800038a:	bf1c      	itt	ne
 800038c:	f04f 31ff 	movne.w	r1, #4294967295	; 0xffffffff
 8000390:	f04f 30ff 	movne.w	r0, #4294967295	; 0xffffffff
 8000394:	f000 b972 	b.w	800067c <__aeabi_idiv0>
 8000398:	f1ad 0c08 	sub.w	ip, sp, #8
 800039c:	e96d ce04 	strd	ip, lr, [sp, #-16]!
 80003a0:	f000 f806 	bl	80003b0 <__udivmoddi4>
 80003a4:	f8dd e004 	ldr.w	lr, [sp, #4]
 80003a8:	e9dd 2302 	ldrd	r2, r3, [sp, #8]
 80003ac:	b004      	add	sp, #16
 80003ae:	4770      	bx	lr

080003b0 <__udivmoddi4>:
 80003b0:	e92d 47f0 	stmdb	sp!, {r4, r5, r6, r7, r8, r9, sl, lr}
 80003b4:	9e08      	ldr	r6, [sp, #32]
 80003b6:	4604      	mov	r4, r0
 80003b8:	4688      	mov	r8, r1
 80003ba:	2b00      	cmp	r3, #0
 80003bc:	d14b      	bne.n	8000456 <__udivmoddi4+0xa6>
 80003be:	428a      	cmp	r2, r1
 80003c0:	4615      	mov	r5, r2
 80003c2:	d967      	bls.n	8000494 <__udivmoddi4+0xe4>
 80003c4:	fab2 f282 	clz	r2, r2
 80003c8:	b14a      	cbz	r2, 80003de <__udivmoddi4+0x2e>
 80003ca:	f1c2 0720 	rsb	r7, r2, #32
 80003ce:	fa01 f302 	lsl.w	r3, r1, r2
 80003d2:	fa20 f707 	lsr.w	r7, r0, r7
 80003d6:	4095      	lsls	r5, r2
 80003d8:	ea47 0803 	orr.w	r8, r7, r3
 80003dc:	4094      	lsls	r4, r2
 80003de:	ea4f 4e15 	mov.w	lr, r5, lsr #16
 80003e2:	0c23      	lsrs	r3, r4, #16
 80003e4:	fbb8 f7fe 	udiv	r7, r8, lr
 80003e8:	fa1f fc85 	uxth.w	ip, r5
 80003ec:	fb0e 8817 	mls	r8, lr, r7, r8
 80003f0:	ea43 4308 	orr.w	r3, r3, r8, lsl #16
 80003f4:	fb07 f10c 	mul.w	r1, r7, ip
 80003f8:	4299      	cmp	r1, r3
 80003fa:	d909      	bls.n	8000410 <__udivmoddi4+0x60>
 80003fc:	18eb      	adds	r3, r5, r3
 80003fe:	f107 30ff 	add.w	r0, r7, #4294967295	; 0xffffffff
 8000402:	f080 811b 	bcs.w	800063c <__udivmoddi4+0x28c>
 8000406:	4299      	cmp	r1, r3
 8000408:	f240 8118 	bls.w	800063c <__udivmoddi4+0x28c>
 800040c:	3f02      	subs	r7, #2
 800040e:	442b      	add	r3, r5
 8000410:	1a5b      	subs	r3, r3, r1
 8000412:	b2a4      	uxth	r4, r4
 8000414:	fbb3 f0fe 	udiv	r0, r3, lr
 8000418:	fb0e 3310 	mls	r3, lr, r0, r3
 800041c:	ea44 4403 	orr.w	r4, r4, r3, lsl #16
 8000420:	fb00 fc0c 	mul.w	ip, r0, ip
 8000424:	45a4      	cmp	ip, r4
 8000426:	d909      	bls.n	800043c <__udivmoddi4+0x8c>
 8000428:	192c      	adds	r4, r5, r4
 800042a:	f100 33ff 	add.w	r3, r0, #4294967295	; 0xffffffff
 800042e:	f080 8107 	bcs.w	8000640 <__udivmoddi4+0x290>
 8000432:	45a4      	cmp	ip, r4
 8000434:	f240 8104 	bls.w	8000640 <__udivmoddi4+0x290>
 8000438:	3802      	subs	r0, #2
 800043a:	442c      	add	r4, r5
 800043c:	ea40 4007 	orr.w	r0, r0, r7, lsl #16
 8000440:	eba4 040c 	sub.w	r4, r4, ip
 8000444:	2700      	movs	r7, #0
 8000446:	b11e      	cbz	r6, 8000450 <__udivmoddi4+0xa0>
 8000448:	40d4      	lsrs	r4, r2
 800044a:	2300      	movs	r3, #0
 800044c:	e9c6 4300 	strd	r4, r3, [r6]
 8000450:	4639      	mov	r1, r7
 8000452:	e8bd 87f0 	ldmia.w	sp!, {r4, r5, r6, r7, r8, r9, sl, pc}
 8000456:	428b      	cmp	r3, r1
 8000458:	d909      	bls.n	800046e <__udivmoddi4+0xbe>
 800045a:	2e00      	cmp	r6, #0
 800045c:	f000 80eb 	beq.w	8000636 <__udivmoddi4+0x286>
 8000460:	2700      	movs	r7, #0
 8000462:	e9c6 0100 	strd	r0, r1, [r6]
 8000466:	4638      	mov	r0, r7
 8000468:	4639      	mov	r1, r7
 800046a:	e8bd 87f0 	ldmia.w	sp!, {r4, r5, r6, r7, r8, r9, sl, pc}
 800046e:	fab3 f783 	clz	r7, r3
 8000472:	2f00      	cmp	r7, #0
 8000474:	d147      	bne.n	8000506 <__udivmoddi4+0x156>
 8000476:	428b      	cmp	r3, r1
 8000478:	d302      	bcc.n	8000480 <__udivmoddi4+0xd0>
 800047a:	4282      	cmp	r2, r0
 800047c:	f200 80fa 	bhi.w	8000674 <__udivmoddi4+0x2c4>
 8000480:	1a84      	subs	r4, r0, r2
 8000482:	eb61 0303 	sbc.w	r3, r1, r3
 8000486:	2001      	movs	r0, #1
 8000488:	4698      	mov	r8, r3
 800048a:	2e00      	cmp	r6, #0
 800048c:	d0e0      	beq.n	8000450 <__udivmoddi4+0xa0>
 800048e:	e9c6 4800 	strd	r4, r8, [r6]
 8000492:	e7dd      	b.n	8000450 <__udivmoddi4+0xa0>
 8000494:	b902      	cbnz	r2, 8000498 <__udivmoddi4+0xe8>
 8000496:	deff      	udf	#255	; 0xff
 8000498:	fab2 f282 	clz	r2, r2
 800049c:	2a00      	cmp	r2, #0
 800049e:	f040 808f 	bne.w	80005c0 <__udivmoddi4+0x210>
 80004a2:	1b49      	subs	r1, r1, r5
 80004a4:	ea4f 4e15 	mov.w	lr, r5, lsr #16
 80004a8:	fa1f f885 	uxth.w	r8, r5
 80004ac:	2701      	movs	r7, #1
 80004ae:	fbb1 fcfe 	udiv	ip, r1, lr
 80004b2:	0c23      	lsrs	r3, r4, #16
 80004b4:	fb0e 111c 	mls	r1, lr, ip, r1
 80004b8:	ea43 4301 	orr.w	r3, r3, r1, lsl #16
 80004bc:	fb08 f10c 	mul.w	r1, r8, ip
 80004c0:	4299      	cmp	r1, r3
 80004c2:	d907      	bls.n	80004d4 <__udivmoddi4+0x124>
 80004c4:	18eb      	adds	r3, r5, r3
 80004c6:	f10c 30ff 	add.w	r0, ip, #4294967295	; 0xffffffff
 80004ca:	d202      	bcs.n	80004d2 <__udivmoddi4+0x122>
 80004cc:	4299      	cmp	r1, r3
 80004ce:	f200 80cd 	bhi.w	800066c <__udivmoddi4+0x2bc>
 80004d2:	4684      	mov	ip, r0
 80004d4:	1a59      	subs	r1, r3, r1
 80004d6:	b2a3      	uxth	r3, r4
 80004d8:	fbb1 f0fe 	udiv	r0, r1, lr
 80004dc:	fb0e 1410 	mls	r4, lr, r0, r1
 80004e0:	ea43 4404 	orr.w	r4, r3, r4, lsl #16
 80004e4:	fb08 f800 	mul.w	r8, r8, r0
 80004e8:	45a0      	cmp	r8, r4
 80004ea:	d907      	bls.n	80004fc <__udivmoddi4+0x14c>
 80004ec:	192c      	adds	r4, r5, r4
 80004ee:	f100 33ff 	add.w	r3, r0, #4294967295	; 0xffffffff
 80004f2:	d202      	bcs.n	80004fa <__udivmoddi4+0x14a>
 80004f4:	45a0      	cmp	r8, r4
 80004f6:	f200 80b6 	bhi.w	8000666 <__udivmoddi4+0x2b6>
 80004fa:	4618      	mov	r0, r3
 80004fc:	eba4 0408 	sub.w	r4, r4, r8
 8000500:	ea40 400c 	orr.w	r0, r0, ip, lsl #16
 8000504:	e79f      	b.n	8000446 <__udivmoddi4+0x96>
 8000506:	f1c7 0c20 	rsb	ip, r7, #32
 800050a:	40bb      	lsls	r3, r7
 800050c:	fa22 fe0c 	lsr.w	lr, r2, ip
 8000510:	ea4e 0e03 	orr.w	lr, lr, r3
 8000514:	fa01 f407 	lsl.w	r4, r1, r7
 8000518:	fa20 f50c 	lsr.w	r5, r0, ip
 800051c:	fa21 f30c 	lsr.w	r3, r1, ip
 8000520:	ea4f 481e 	mov.w	r8, lr, lsr #16
 8000524:	4325      	orrs	r5, r4
 8000526:	fbb3 f9f8 	udiv	r9, r3, r8
 800052a:	0c2c      	lsrs	r4, r5, #16
 800052c:	fb08 3319 	mls	r3, r8, r9, r3
 8000530:	fa1f fa8e 	uxth.w	sl, lr
 8000534:	ea44 4303 	orr.w	r3, r4, r3, lsl #16
 8000538:	fb09 f40a 	mul.w	r4, r9, sl
 800053c:	429c      	cmp	r4, r3
 800053e:	fa02 f207 	lsl.w	r2, r2, r7
 8000542:	fa00 f107 	lsl.w	r1, r0, r7
 8000546:	d90b      	bls.n	8000560 <__udivmoddi4+0x1b0>
 8000548:	eb1e 0303 	adds.w	r3, lr, r3
 800054c:	f109 30ff 	add.w	r0, r9, #4294967295	; 0xffffffff
 8000550:	f080 8087 	bcs.w	8000662 <__udivmoddi4+0x2b2>
 8000554:	429c      	cmp	r4, r3
 8000556:	f240 8084 	bls.w	8000662 <__udivmoddi4+0x2b2>
 800055a:	f1a9 0902 	sub.w	r9, r9, #2
 800055e:	4473      	add	r3, lr
 8000560:	1b1b      	subs	r3, r3, r4
 8000562:	b2ad      	uxth	r5, r5
 8000564:	fbb3 f0f8 	udiv	r0, r3, r8
 8000568:	fb08 3310 	mls	r3, r8, r0, r3
 800056c:	ea45 4403 	orr.w	r4, r5, r3, lsl #16
 8000570:	fb00 fa0a 	mul.w	sl, r0, sl
 8000574:	45a2      	cmp	sl, r4
 8000576:	d908      	bls.n	800058a <__udivmoddi4+0x1da>
 8000578:	eb1e 0404 	adds.w	r4, lr, r4
 800057c:	f100 33ff 	add.w	r3, r0, #4294967295	; 0xffffffff
 8000580:	d26b      	bcs.n	800065a <__udivmoddi4+0x2aa>
 8000582:	45a2      	cmp	sl, r4
 8000584:	d969      	bls.n	800065a <__udivmoddi4+0x2aa>
 8000586:	3802      	subs	r0, #2
 8000588:	4474      	add	r4, lr
 800058a:	ea40 4009 	orr.w	r0, r0, r9, lsl #16
 800058e:	fba0 8902 	umull	r8, r9, r0, r2
 8000592:	eba4 040a 	sub.w	r4, r4, sl
 8000596:	454c      	cmp	r4, r9
 8000598:	46c2      	mov	sl, r8
 800059a:	464b      	mov	r3, r9
 800059c:	d354      	bcc.n	8000648 <__udivmoddi4+0x298>
 800059e:	d051      	beq.n	8000644 <__udivmoddi4+0x294>
 80005a0:	2e00      	cmp	r6, #0
 80005a2:	d069      	beq.n	8000678 <__udivmoddi4+0x2c8>
 80005a4:	ebb1 050a 	subs.w	r5, r1, sl
 80005a8:	eb64 0403 	sbc.w	r4, r4, r3
 80005ac:	fa04 fc0c 	lsl.w	ip, r4, ip
 80005b0:	40fd      	lsrs	r5, r7
 80005b2:	40fc      	lsrs	r4, r7
 80005b4:	ea4c 0505 	orr.w	r5, ip, r5
 80005b8:	e9c6 5400 	strd	r5, r4, [r6]
 80005bc:	2700      	movs	r7, #0
 80005be:	e747      	b.n	8000450 <__udivmoddi4+0xa0>
 80005c0:	f1c2 0320 	rsb	r3, r2, #32
 80005c4:	fa20 f703 	lsr.w	r7, r0, r3
 80005c8:	4095      	lsls	r5, r2
 80005ca:	fa01 f002 	lsl.w	r0, r1, r2
 80005ce:	fa21 f303 	lsr.w	r3, r1, r3
 80005d2:	ea4f 4e15 	mov.w	lr, r5, lsr #16
 80005d6:	4338      	orrs	r0, r7
 80005d8:	0c01      	lsrs	r1, r0, #16
 80005da:	fbb3 f7fe 	udiv	r7, r3, lr
 80005de:	fa1f f885 	uxth.w	r8, r5
 80005e2:	fb0e 3317 	mls	r3, lr, r7, r3
 80005e6:	ea41 4103 	orr.w	r1, r1, r3, lsl #16
 80005ea:	fb07 f308 	mul.w	r3, r7, r8
 80005ee:	428b      	cmp	r3, r1
 80005f0:	fa04 f402 	lsl.w	r4, r4, r2
 80005f4:	d907      	bls.n	8000606 <__udivmoddi4+0x256>
 80005f6:	1869      	adds	r1, r5, r1
 80005f8:	f107 3cff 	add.w	ip, r7, #4294967295	; 0xffffffff
 80005fc:	d22f      	bcs.n	800065e <__udivmoddi4+0x2ae>
 80005fe:	428b      	cmp	r3, r1
 8000600:	d92d      	bls.n	800065e <__udivmoddi4+0x2ae>
 8000602:	3f02      	subs	r7, #2
 8000604:	4429      	add	r1, r5
 8000606:	1acb      	subs	r3, r1, r3
 8000608:	b281      	uxth	r1, r0
 800060a:	fbb3 f0fe 	udiv	r0, r3, lr
 800060e:	fb0e 3310 	mls	r3, lr, r0, r3
 8000612:	ea41 4103 	orr.w	r1, r1, r3, lsl #16
 8000616:	fb00 f308 	mul.w	r3, r0, r8
 800061a:	428b      	cmp	r3, r1
 800061c:	d907      	bls.n	800062e <__udivmoddi4+0x27e>
 800061e:	1869      	adds	r1, r5, r1
 8000620:	f100 3cff 	add.w	ip, r0, #4294967295	; 0xffffffff
 8000624:	d217      	bcs.n	8000656 <__udivmoddi4+0x2a6>
 8000626:	428b      	cmp	r3, r1
 8000628:	d915      	bls.n	8000656 <__udivmoddi4+0x2a6>
 800062a:	3802      	subs	r0, #2
 800062c:	4429      	add	r1, r5
 800062e:	1ac9      	subs	r1, r1, r3
 8000630:	ea40 4707 	orr.w	r7, r0, r7, lsl #16
 8000634:	e73b      	b.n	80004ae <__udivmoddi4+0xfe>
 8000636:	4637      	mov	r7, r6
 8000638:	4630      	mov	r0, r6
 800063a:	e709      	b.n	8000450 <__udivmoddi4+0xa0>
 800063c:	4607      	mov	r7, r0
 800063e:	e6e7      	b.n	8000410 <__udivmoddi4+0x60>
 8000640:	4618      	mov	r0, r3
 8000642:	e6fb      	b.n	800043c <__udivmoddi4+0x8c>
 8000644:	4541      	cmp	r1, r8
 8000646:	d2ab      	bcs.n	80005a0 <__udivmoddi4+0x1f0>
 8000648:	ebb8 0a02 	subs.w	sl, r8, r2
 800064c:	eb69 020e 	sbc.w	r2, r9, lr
 8000650:	3801      	subs	r0, #1
 8000652:	4613      	mov	r3, r2
 8000654:	e7a4      	b.n	80005a0 <__udivmoddi4+0x1f0>
 8000656:	4660      	mov	r0, ip
 8000658:	e7e9      	b.n	800062e <__udivmoddi4+0x27e>
 800065a:	4618      	mov	r0, r3
 800065c:	e795      	b.n	800058a <__udivmoddi4+0x1da>
 800065e:	4667      	mov	r7, ip
 8000660:	e7d1      	b.n	8000606 <__udivmoddi4+0x256>
 8000662:	4681      	mov	r9, r0
 8000664:	e77c      	b.n	8000560 <__udivmoddi4+0x1b0>
 8000666:	3802      	subs	r0, #2
 8000668:	442c      	add	r4, r5
 800066a:	e747      	b.n	80004fc <__udivmoddi4+0x14c>
 800066c:	f1ac 0c02 	sub.w	ip, ip, #2
 8000670:	442b      	add	r3, r5
 8000672:	e72f      	b.n	80004d4 <__udivmoddi4+0x124>
 8000674:	4638      	mov	r0, r7
 8000676:	e708      	b.n	800048a <__udivmoddi4+0xda>
 8000678:	4637      	mov	r7, r6
 800067a:	e6e9      	b.n	8000450 <__udivmoddi4+0xa0>

0800067c <__aeabi_idiv0>:
 800067c:	4770      	bx	lr
 800067e:	bf00      	nop

08000680 <MX_ADC2_Init>:
 8000680:	b530      	push	{r4, r5, lr}
 8000682:	4b21      	ldr	r3, [pc, #132]	; (8000708 <MX_ADC2_Init+0x88>)
 8000684:	f44f 2180 	mov.w	r1, #262144	; 0x40000
 8000688:	4c20      	ldr	r4, [pc, #128]	; (800070c <MX_ADC2_Init+0x8c>)
 800068a:	2204      	movs	r2, #4
 800068c:	f44f 60c0 	mov.w	r0, #1536	; 0x600
 8000690:	b089      	sub	sp, #36	; 0x24
 8000692:	2501      	movs	r5, #1
 8000694:	601c      	str	r4, [r3, #0]
 8000696:	6059      	str	r1, [r3, #4]
 8000698:	f44f 6400 	mov.w	r4, #2048	; 0x800
 800069c:	f44f 5180 	mov.w	r1, #4096	; 0x1000
 80006a0:	611a      	str	r2, [r3, #16]
 80006a2:	2200      	movs	r2, #0
 80006a4:	6258      	str	r0, [r3, #36]	; 0x24
 80006a6:	4618      	mov	r0, r3
 80006a8:	619d      	str	r5, [r3, #24]
 80006aa:	629c      	str	r4, [r3, #40]	; 0x28
 80006ac:	6319      	str	r1, [r3, #48]	; 0x30
 80006ae:	609a      	str	r2, [r3, #8]
 80006b0:	9201      	str	r2, [sp, #4]
 80006b2:	60da      	str	r2, [r3, #12]
 80006b4:	751a      	strb	r2, [r3, #20]
 80006b6:	755a      	strb	r2, [r3, #21]
 80006b8:	771a      	strb	r2, [r3, #28]
 80006ba:	62da      	str	r2, [r3, #44]	; 0x2c
 80006bc:	635a      	str	r2, [r3, #52]	; 0x34
 80006be:	f883 2038 	strb.w	r2, [r3, #56]	; 0x38
 80006c2:	e9cd 2202 	strd	r2, r2, [sp, #8]
 80006c6:	e9cd 2204 	strd	r2, r2, [sp, #16]
 80006ca:	e9cd 2206 	strd	r2, r2, [sp, #24]
 80006ce:	f001 ff53 	bl	8002578 <HAL_ADC_Init>
 80006d2:	b9b0      	cbnz	r0, 8000702 <MX_ADC2_Init+0x82>
 80006d4:	4b0e      	ldr	r3, [pc, #56]	; (8000710 <MX_ADC2_Init+0x90>)
 80006d6:	2006      	movs	r0, #6
 80006d8:	2204      	movs	r2, #4
 80006da:	2502      	movs	r5, #2
 80006dc:	f240 74ff 	movw	r4, #2047	; 0x7ff
 80006e0:	9301      	str	r3, [sp, #4]
 80006e2:	2300      	movs	r3, #0
 80006e4:	9002      	str	r0, [sp, #8]
 80006e6:	eb0d 0102 	add.w	r1, sp, r2
 80006ea:	4807      	ldr	r0, [pc, #28]	; (8000708 <MX_ADC2_Init+0x88>)
 80006ec:	e9cd 5403 	strd	r5, r4, [sp, #12]
 80006f0:	e9cd 2305 	strd	r2, r3, [sp, #20]
 80006f4:	f001 f9a0 	bl	8001a38 <HAL_ADC_ConfigChannel>
 80006f8:	b108      	cbz	r0, 80006fe <MX_ADC2_Init+0x7e>
 80006fa:	f000 fadb 	bl	8000cb4 <Error_Handler>
 80006fe:	b009      	add	sp, #36	; 0x24
 8000700:	bd30      	pop	{r4, r5, pc}
 8000702:	f000 fad7 	bl	8000cb4 <Error_Handler>
 8000706:	e7e5      	b.n	80006d4 <MX_ADC2_Init+0x54>
 8000708:	2400b5d0 	.word	0x2400b5d0
 800070c:	40022100 	.word	0x40022100
 8000710:	25b00200 	.word	0x25b00200

08000714 <HAL_ADC_MspInit>:
 8000714:	6802      	ldr	r2, [r0, #0]
 8000716:	2300      	movs	r3, #0
 8000718:	493e      	ldr	r1, [pc, #248]	; (8000814 <HAL_ADC_MspInit+0x100>)
 800071a:	b570      	push	{r4, r5, r6, lr}
 800071c:	428a      	cmp	r2, r1
 800071e:	b08a      	sub	sp, #40	; 0x28
 8000720:	e9cd 3305 	strd	r3, r3, [sp, #20]
 8000724:	e9cd 3307 	strd	r3, r3, [sp, #28]
 8000728:	9309      	str	r3, [sp, #36]	; 0x24
 800072a:	d029      	beq.n	8000780 <HAL_ADC_MspInit+0x6c>
 800072c:	4b3a      	ldr	r3, [pc, #232]	; (8000818 <HAL_ADC_MspInit+0x104>)
 800072e:	429a      	cmp	r2, r3
 8000730:	d001      	beq.n	8000736 <HAL_ADC_MspInit+0x22>
 8000732:	b00a      	add	sp, #40	; 0x28
 8000734:	bd70      	pop	{r4, r5, r6, pc}
 8000736:	4a39      	ldr	r2, [pc, #228]	; (800081c <HAL_ADC_MspInit+0x108>)
 8000738:	6813      	ldr	r3, [r2, #0]
 800073a:	3301      	adds	r3, #1
 800073c:	2b01      	cmp	r3, #1
 800073e:	6013      	str	r3, [r2, #0]
 8000740:	d059      	beq.n	80007f6 <HAL_ADC_MspInit+0xe2>
 8000742:	4b37      	ldr	r3, [pc, #220]	; (8000820 <HAL_ADC_MspInit+0x10c>)
 8000744:	2501      	movs	r5, #1
 8000746:	2403      	movs	r4, #3
 8000748:	a905      	add	r1, sp, #20
 800074a:	f8d3 20e0 	ldr.w	r2, [r3, #224]	; 0xe0
 800074e:	4835      	ldr	r0, [pc, #212]	; (8000824 <HAL_ADC_MspInit+0x110>)
 8000750:	f042 0202 	orr.w	r2, r2, #2
 8000754:	f8c3 20e0 	str.w	r2, [r3, #224]	; 0xe0
 8000758:	f8d3 30e0 	ldr.w	r3, [r3, #224]	; 0xe0
 800075c:	9505      	str	r5, [sp, #20]
 800075e:	f003 0302 	and.w	r3, r3, #2
 8000762:	9406      	str	r4, [sp, #24]
 8000764:	9304      	str	r3, [sp, #16]
 8000766:	9b04      	ldr	r3, [sp, #16]
 8000768:	f003 fc2c 	bl	8003fc4 <HAL_GPIO_Init>
 800076c:	2202      	movs	r2, #2
 800076e:	2100      	movs	r1, #0
 8000770:	2012      	movs	r0, #18
 8000772:	f002 fad7 	bl	8002d24 <HAL_NVIC_SetPriority>
 8000776:	2012      	movs	r0, #18
 8000778:	f002 fb1a 	bl	8002db0 <HAL_NVIC_EnableIRQ>
 800077c:	b00a      	add	sp, #40	; 0x28
 800077e:	bd70      	pop	{r4, r5, r6, pc}
 8000780:	4a26      	ldr	r2, [pc, #152]	; (800081c <HAL_ADC_MspInit+0x108>)
 8000782:	6813      	ldr	r3, [r2, #0]
 8000784:	3301      	adds	r3, #1
 8000786:	2b01      	cmp	r3, #1
 8000788:	6013      	str	r3, [r2, #0]
 800078a:	d026      	beq.n	80007da <HAL_ADC_MspInit+0xc6>
 800078c:	4b24      	ldr	r3, [pc, #144]	; (8000820 <HAL_ADC_MspInit+0x10c>)
 800078e:	2402      	movs	r4, #2
 8000790:	2008      	movs	r0, #8
 8000792:	2503      	movs	r5, #3
 8000794:	f8d3 20e0 	ldr.w	r2, [r3, #224]	; 0xe0
 8000798:	2600      	movs	r6, #0
 800079a:	a905      	add	r1, sp, #20
 800079c:	f042 0201 	orr.w	r2, r2, #1
 80007a0:	f8c3 20e0 	str.w	r2, [r3, #224]	; 0xe0
 80007a4:	f8d3 20e0 	ldr.w	r2, [r3, #224]	; 0xe0
 80007a8:	f002 0201 	and.w	r2, r2, #1
 80007ac:	9201      	str	r2, [sp, #4]
 80007ae:	9a01      	ldr	r2, [sp, #4]
 80007b0:	f8d3 20e0 	ldr.w	r2, [r3, #224]	; 0xe0
 80007b4:	4322      	orrs	r2, r4
 80007b6:	f8c3 20e0 	str.w	r2, [r3, #224]	; 0xe0
 80007ba:	f8d3 30e0 	ldr.w	r3, [r3, #224]	; 0xe0
 80007be:	9005      	str	r0, [sp, #20]
 80007c0:	4023      	ands	r3, r4
 80007c2:	4819      	ldr	r0, [pc, #100]	; (8000828 <HAL_ADC_MspInit+0x114>)
 80007c4:	9506      	str	r5, [sp, #24]
 80007c6:	9302      	str	r3, [sp, #8]
 80007c8:	9b02      	ldr	r3, [sp, #8]
 80007ca:	f003 fbfb 	bl	8003fc4 <HAL_GPIO_Init>
 80007ce:	a905      	add	r1, sp, #20
 80007d0:	4814      	ldr	r0, [pc, #80]	; (8000824 <HAL_ADC_MspInit+0x110>)
 80007d2:	9607      	str	r6, [sp, #28]
 80007d4:	e9cd 4505 	strd	r4, r5, [sp, #20]
 80007d8:	e7c6      	b.n	8000768 <HAL_ADC_MspInit+0x54>
 80007da:	4b11      	ldr	r3, [pc, #68]	; (8000820 <HAL_ADC_MspInit+0x10c>)
 80007dc:	f8d3 20d8 	ldr.w	r2, [r3, #216]	; 0xd8
 80007e0:	f042 0220 	orr.w	r2, r2, #32
 80007e4:	f8c3 20d8 	str.w	r2, [r3, #216]	; 0xd8
 80007e8:	f8d3 30d8 	ldr.w	r3, [r3, #216]	; 0xd8
 80007ec:	f003 0320 	and.w	r3, r3, #32
 80007f0:	9300      	str	r3, [sp, #0]
 80007f2:	9b00      	ldr	r3, [sp, #0]
 80007f4:	e7ca      	b.n	800078c <HAL_ADC_MspInit+0x78>
 80007f6:	4b0a      	ldr	r3, [pc, #40]	; (8000820 <HAL_ADC_MspInit+0x10c>)
 80007f8:	f8d3 20d8 	ldr.w	r2, [r3, #216]	; 0xd8
 80007fc:	f042 0220 	orr.w	r2, r2, #32
 8000800:	f8c3 20d8 	str.w	r2, [r3, #216]	; 0xd8
 8000804:	f8d3 30d8 	ldr.w	r3, [r3, #216]	; 0xd8
 8000808:	f003 0320 	and.w	r3, r3, #32
 800080c:	9303      	str	r3, [sp, #12]
 800080e:	9b03      	ldr	r3, [sp, #12]
 8000810:	e797      	b.n	8000742 <HAL_ADC_MspInit+0x2e>
 8000812:	bf00      	nop
 8000814:	40022000 	.word	0x40022000
 8000818:	40022100 	.word	0x40022100
 800081c:	24000098 	.word	0x24000098
 8000820:	58024400 	.word	0x58024400
 8000824:	58020400 	.word	0x58020400
 8000828:	58020000 	.word	0x58020000

0800082c <MX_DAC1_Init>:
 800082c:	b510      	push	{r4, lr}
 800082e:	b08a      	sub	sp, #40	; 0x28
 8000830:	2224      	movs	r2, #36	; 0x24
 8000832:	2100      	movs	r1, #0
 8000834:	a801      	add	r0, sp, #4
 8000836:	f00a f8b5 	bl	800a9a4 <memset>
 800083a:	4b13      	ldr	r3, [pc, #76]	; (8000888 <MX_DAC1_Init+0x5c>)
 800083c:	4a13      	ldr	r2, [pc, #76]	; (800088c <MX_DAC1_Init+0x60>)
 800083e:	4618      	mov	r0, r3
 8000840:	601a      	str	r2, [r3, #0]
 8000842:	f002 fae1 	bl	8002e08 <HAL_DAC_Init>
 8000846:	b9d8      	cbnz	r0, 8000880 <MX_DAC1_Init+0x54>
 8000848:	2300      	movs	r3, #0
 800084a:	2416      	movs	r4, #22
 800084c:	a901      	add	r1, sp, #4
 800084e:	480e      	ldr	r0, [pc, #56]	; (8000888 <MX_DAC1_Init+0x5c>)
 8000850:	461a      	mov	r2, r3
 8000852:	9301      	str	r3, [sp, #4]
 8000854:	9305      	str	r3, [sp, #20]
 8000856:	9402      	str	r4, [sp, #8]
 8000858:	e9cd 3303 	strd	r3, r3, [sp, #12]
 800085c:	f002 fb74 	bl	8002f48 <HAL_DAC_ConfigChannel>
 8000860:	b958      	cbnz	r0, 800087a <MX_DAC1_Init+0x4e>
 8000862:	2300      	movs	r3, #0
 8000864:	a901      	add	r1, sp, #4
 8000866:	2210      	movs	r2, #16
 8000868:	4807      	ldr	r0, [pc, #28]	; (8000888 <MX_DAC1_Init+0x5c>)
 800086a:	9304      	str	r3, [sp, #16]
 800086c:	f002 fb6c 	bl	8002f48 <HAL_DAC_ConfigChannel>
 8000870:	b108      	cbz	r0, 8000876 <MX_DAC1_Init+0x4a>
 8000872:	f000 fa1f 	bl	8000cb4 <Error_Handler>
 8000876:	b00a      	add	sp, #40	; 0x28
 8000878:	bd10      	pop	{r4, pc}
 800087a:	f000 fa1b 	bl	8000cb4 <Error_Handler>
 800087e:	e7f0      	b.n	8000862 <MX_DAC1_Init+0x36>
 8000880:	f000 fa18 	bl	8000cb4 <Error_Handler>
 8000884:	e7e0      	b.n	8000848 <MX_DAC1_Init+0x1c>
 8000886:	bf00      	nop
 8000888:	2400b698 	.word	0x2400b698
 800088c:	40007400 	.word	0x40007400

08000890 <HAL_DAC_MspInit>:
 8000890:	6801      	ldr	r1, [r0, #0]
 8000892:	2300      	movs	r3, #0
 8000894:	4a17      	ldr	r2, [pc, #92]	; (80008f4 <HAL_DAC_MspInit+0x64>)
 8000896:	b530      	push	{r4, r5, lr}
 8000898:	4291      	cmp	r1, r2
 800089a:	b089      	sub	sp, #36	; 0x24
 800089c:	e9cd 3303 	strd	r3, r3, [sp, #12]
 80008a0:	e9cd 3305 	strd	r3, r3, [sp, #20]
 80008a4:	9307      	str	r3, [sp, #28]
 80008a6:	d001      	beq.n	80008ac <HAL_DAC_MspInit+0x1c>
 80008a8:	b009      	add	sp, #36	; 0x24
 80008aa:	bd30      	pop	{r4, r5, pc}
 80008ac:	4b12      	ldr	r3, [pc, #72]	; (80008f8 <HAL_DAC_MspInit+0x68>)
 80008ae:	2530      	movs	r5, #48	; 0x30
 80008b0:	2403      	movs	r4, #3
 80008b2:	a903      	add	r1, sp, #12
 80008b4:	f8d3 20e8 	ldr.w	r2, [r3, #232]	; 0xe8
 80008b8:	4810      	ldr	r0, [pc, #64]	; (80008fc <HAL_DAC_MspInit+0x6c>)
 80008ba:	f042 5200 	orr.w	r2, r2, #536870912	; 0x20000000
 80008be:	f8c3 20e8 	str.w	r2, [r3, #232]	; 0xe8
 80008c2:	f8d3 20e8 	ldr.w	r2, [r3, #232]	; 0xe8
 80008c6:	f002 5200 	and.w	r2, r2, #536870912	; 0x20000000
 80008ca:	9201      	str	r2, [sp, #4]
 80008cc:	9a01      	ldr	r2, [sp, #4]
 80008ce:	f8d3 20e0 	ldr.w	r2, [r3, #224]	; 0xe0
 80008d2:	f042 0201 	orr.w	r2, r2, #1
 80008d6:	f8c3 20e0 	str.w	r2, [r3, #224]	; 0xe0
 80008da:	f8d3 30e0 	ldr.w	r3, [r3, #224]	; 0xe0
 80008de:	9503      	str	r5, [sp, #12]
 80008e0:	f003 0301 	and.w	r3, r3, #1
 80008e4:	9404      	str	r4, [sp, #16]
 80008e6:	9302      	str	r3, [sp, #8]
 80008e8:	9b02      	ldr	r3, [sp, #8]
 80008ea:	f003 fb6b 	bl	8003fc4 <HAL_GPIO_Init>
 80008ee:	b009      	add	sp, #36	; 0x24
 80008f0:	bd30      	pop	{r4, r5, pc}
 80008f2:	bf00      	nop
 80008f4:	40007400 	.word	0x40007400
 80008f8:	58024400 	.word	0x58024400
 80008fc:	58020000 	.word	0x58020000

08000900 <MX_DMA_Init>:
 8000900:	4b0b      	ldr	r3, [pc, #44]	; (8000930 <MX_DMA_Init+0x30>)
 8000902:	2201      	movs	r2, #1
 8000904:	200b      	movs	r0, #11
 8000906:	4611      	mov	r1, r2
 8000908:	b510      	push	{r4, lr}
 800090a:	f8d3 40d8 	ldr.w	r4, [r3, #216]	; 0xd8
 800090e:	b082      	sub	sp, #8
 8000910:	4314      	orrs	r4, r2
 8000912:	f8c3 40d8 	str.w	r4, [r3, #216]	; 0xd8
 8000916:	f8d3 30d8 	ldr.w	r3, [r3, #216]	; 0xd8
 800091a:	4013      	ands	r3, r2
 800091c:	9301      	str	r3, [sp, #4]
 800091e:	9b01      	ldr	r3, [sp, #4]
 8000920:	f002 fa00 	bl	8002d24 <HAL_NVIC_SetPriority>
 8000924:	200b      	movs	r0, #11
 8000926:	b002      	add	sp, #8
 8000928:	e8bd 4010 	ldmia.w	sp!, {r4, lr}
 800092c:	f002 ba40 	b.w	8002db0 <HAL_NVIC_EnableIRQ>
 8000930:	58024400 	.word	0x58024400

08000934 <MX_GPIO_Init>:
 8000934:	e92d 4ff0 	stmdb	sp!, {r4, r5, r6, r7, r8, r9, sl, fp, lr}
 8000938:	4bb1      	ldr	r3, [pc, #708]	; (8000c00 <MX_GPIO_Init+0x2cc>)
 800093a:	b08f      	sub	sp, #60	; 0x3c
 800093c:	2400      	movs	r4, #0
 800093e:	2110      	movs	r1, #16
 8000940:	f04f 0801 	mov.w	r8, #1
 8000944:	2602      	movs	r6, #2
 8000946:	940a      	str	r4, [sp, #40]	; 0x28
 8000948:	4622      	mov	r2, r4
 800094a:	9409      	str	r4, [sp, #36]	; 0x24
 800094c:	2503      	movs	r5, #3
 800094e:	940b      	str	r4, [sp, #44]	; 0x2c
 8000950:	f8df b2c0 	ldr.w	fp, [pc, #704]	; 8000c14 <MX_GPIO_Init+0x2e0>
 8000954:	f8df a2c0 	ldr.w	sl, [pc, #704]	; 8000c18 <MX_GPIO_Init+0x2e4>
 8000958:	48aa      	ldr	r0, [pc, #680]	; (8000c04 <MX_GPIO_Init+0x2d0>)
 800095a:	f8df 92c0 	ldr.w	r9, [pc, #704]	; 8000c1c <MX_GPIO_Init+0x2e8>
 800095e:	e9cd 440c 	strd	r4, r4, [sp, #48]	; 0x30
 8000962:	f8d3 70e0 	ldr.w	r7, [r3, #224]	; 0xe0
 8000966:	430f      	orrs	r7, r1
 8000968:	f8c3 70e0 	str.w	r7, [r3, #224]	; 0xe0
 800096c:	f8d3 70e0 	ldr.w	r7, [r3, #224]	; 0xe0
 8000970:	ea07 0e01 	and.w	lr, r7, r1
 8000974:	4fa4      	ldr	r7, [pc, #656]	; (8000c08 <MX_GPIO_Init+0x2d4>)
 8000976:	f8cd e004 	str.w	lr, [sp, #4]
 800097a:	f8dd e004 	ldr.w	lr, [sp, #4]
 800097e:	f8d3 e0e0 	ldr.w	lr, [r3, #224]	; 0xe0
 8000982:	f04e 0e04 	orr.w	lr, lr, #4
 8000986:	f8c3 e0e0 	str.w	lr, [r3, #224]	; 0xe0
 800098a:	f8d3 e0e0 	ldr.w	lr, [r3, #224]	; 0xe0
 800098e:	f00e 0e04 	and.w	lr, lr, #4
 8000992:	f8cd e008 	str.w	lr, [sp, #8]
 8000996:	f8dd e008 	ldr.w	lr, [sp, #8]
 800099a:	f8d3 e0e0 	ldr.w	lr, [r3, #224]	; 0xe0
 800099e:	f04e 0e20 	orr.w	lr, lr, #32
 80009a2:	f8c3 e0e0 	str.w	lr, [r3, #224]	; 0xe0
 80009a6:	f8d3 e0e0 	ldr.w	lr, [r3, #224]	; 0xe0
 80009aa:	f00e 0e20 	and.w	lr, lr, #32
 80009ae:	f8cd e00c 	str.w	lr, [sp, #12]
 80009b2:	f8dd e00c 	ldr.w	lr, [sp, #12]
 80009b6:	f8d3 e0e0 	ldr.w	lr, [r3, #224]	; 0xe0
 80009ba:	f04e 0e80 	orr.w	lr, lr, #128	; 0x80
 80009be:	f8c3 e0e0 	str.w	lr, [r3, #224]	; 0xe0
 80009c2:	f8d3 e0e0 	ldr.w	lr, [r3, #224]	; 0xe0
 80009c6:	f00e 0e80 	and.w	lr, lr, #128	; 0x80
 80009ca:	f8cd e010 	str.w	lr, [sp, #16]
 80009ce:	f8dd e010 	ldr.w	lr, [sp, #16]
 80009d2:	f8d3 e0e0 	ldr.w	lr, [r3, #224]	; 0xe0
 80009d6:	ea4e 0e08 	orr.w	lr, lr, r8
 80009da:	f8c3 e0e0 	str.w	lr, [r3, #224]	; 0xe0
 80009de:	f8d3 e0e0 	ldr.w	lr, [r3, #224]	; 0xe0
 80009e2:	ea0e 0e08 	and.w	lr, lr, r8
 80009e6:	f8cd e014 	str.w	lr, [sp, #20]
 80009ea:	f8dd e014 	ldr.w	lr, [sp, #20]
 80009ee:	f8d3 e0e0 	ldr.w	lr, [r3, #224]	; 0xe0
 80009f2:	ea4e 0e06 	orr.w	lr, lr, r6
 80009f6:	f8c3 e0e0 	str.w	lr, [r3, #224]	; 0xe0
 80009fa:	f8d3 e0e0 	ldr.w	lr, [r3, #224]	; 0xe0
 80009fe:	ea0e 0e06 	and.w	lr, lr, r6
 8000a02:	f8cd e018 	str.w	lr, [sp, #24]
 8000a06:	f8dd e018 	ldr.w	lr, [sp, #24]
 8000a0a:	f8d3 e0e0 	ldr.w	lr, [r3, #224]	; 0xe0
 8000a0e:	f04e 0e40 	orr.w	lr, lr, #64	; 0x40
 8000a12:	f8c3 e0e0 	str.w	lr, [r3, #224]	; 0xe0
 8000a16:	f8d3 e0e0 	ldr.w	lr, [r3, #224]	; 0xe0
 8000a1a:	f00e 0e40 	and.w	lr, lr, #64	; 0x40
 8000a1e:	f8cd e01c 	str.w	lr, [sp, #28]
 8000a22:	f8dd e01c 	ldr.w	lr, [sp, #28]
 8000a26:	f8d3 e0e0 	ldr.w	lr, [r3, #224]	; 0xe0
 8000a2a:	f04e 0e08 	orr.w	lr, lr, #8
 8000a2e:	f8c3 e0e0 	str.w	lr, [r3, #224]	; 0xe0
 8000a32:	f8d3 30e0 	ldr.w	r3, [r3, #224]	; 0xe0
 8000a36:	f003 0308 	and.w	r3, r3, #8
 8000a3a:	9308      	str	r3, [sp, #32]
 8000a3c:	9b08      	ldr	r3, [sp, #32]
 8000a3e:	f003 fcc3 	bl	80043c8 <HAL_GPIO_WritePin>
 8000a42:	4622      	mov	r2, r4
 8000a44:	4658      	mov	r0, fp
 8000a46:	f44f 7160 	mov.w	r1, #896	; 0x380
 8000a4a:	f003 fcbd 	bl	80043c8 <HAL_GPIO_WritePin>
 8000a4e:	4622      	mov	r2, r4
 8000a50:	4650      	mov	r0, sl
 8000a52:	f44f 4181 	mov.w	r1, #16512	; 0x4080
 8000a56:	f003 fcb7 	bl	80043c8 <HAL_GPIO_WritePin>
 8000a5a:	4622      	mov	r2, r4
 8000a5c:	4638      	mov	r0, r7
 8000a5e:	2140      	movs	r1, #64	; 0x40
 8000a60:	f003 fcb2 	bl	80043c8 <HAL_GPIO_WritePin>
 8000a64:	4622      	mov	r2, r4
 8000a66:	4648      	mov	r0, r9
 8000a68:	f44f 61c0 	mov.w	r1, #1536	; 0x600
 8000a6c:	f003 fcac 	bl	80043c8 <HAL_GPIO_WritePin>
 8000a70:	f64f 52ef 	movw	r2, #65007	; 0xfdef
 8000a74:	a909      	add	r1, sp, #36	; 0x24
 8000a76:	4863      	ldr	r0, [pc, #396]	; (8000c04 <MX_GPIO_Init+0x2d0>)
 8000a78:	940b      	str	r4, [sp, #44]	; 0x2c
 8000a7a:	e9cd 2509 	strd	r2, r5, [sp, #36]	; 0x24
 8000a7e:	f003 faa1 	bl	8003fc4 <HAL_GPIO_Init>
 8000a82:	2210      	movs	r2, #16
 8000a84:	a909      	add	r1, sp, #36	; 0x24
 8000a86:	485f      	ldr	r0, [pc, #380]	; (8000c04 <MX_GPIO_Init+0x2d0>)
 8000a88:	e9cd 2809 	strd	r2, r8, [sp, #36]	; 0x24
 8000a8c:	e9cd 450b 	strd	r4, r5, [sp, #44]	; 0x2c
 8000a90:	f003 fa98 	bl	8003fc4 <HAL_GPIO_Init>
 8000a94:	f44f 5200 	mov.w	r2, #8192	; 0x2000
 8000a98:	4b5c      	ldr	r3, [pc, #368]	; (8000c0c <MX_GPIO_Init+0x2d8>)
 8000a9a:	a909      	add	r1, sp, #36	; 0x24
 8000a9c:	4648      	mov	r0, r9
 8000a9e:	940b      	str	r4, [sp, #44]	; 0x2c
 8000aa0:	e9cd 2309 	strd	r2, r3, [sp, #36]	; 0x24
 8000aa4:	f003 fa8e 	bl	8003fc4 <HAL_GPIO_Init>
 8000aa8:	f64f 437f 	movw	r3, #64639	; 0xfc7f
 8000aac:	a909      	add	r1, sp, #36	; 0x24
 8000aae:	4658      	mov	r0, fp
 8000ab0:	9309      	str	r3, [sp, #36]	; 0x24
 8000ab2:	e9cd 540a 	strd	r5, r4, [sp, #40]	; 0x28
 8000ab6:	f003 fa85 	bl	8003fc4 <HAL_GPIO_Init>
 8000aba:	f44f 7360 	mov.w	r3, #896	; 0x380
 8000abe:	4658      	mov	r0, fp
 8000ac0:	a909      	add	r1, sp, #36	; 0x24
 8000ac2:	9309      	str	r3, [sp, #36]	; 0x24
 8000ac4:	f5ab 5ba0 	sub.w	fp, fp, #5120	; 0x1400
 8000ac8:	950c      	str	r5, [sp, #48]	; 0x30
 8000aca:	e9cd 840a 	strd	r8, r4, [sp, #40]	; 0x28
 8000ace:	f003 fa79 	bl	8003fc4 <HAL_GPIO_Init>
 8000ad2:	f641 038d 	movw	r3, #6285	; 0x188d
 8000ad6:	a909      	add	r1, sp, #36	; 0x24
 8000ad8:	4648      	mov	r0, r9
 8000ada:	9309      	str	r3, [sp, #36]	; 0x24
 8000adc:	e9cd 540a 	strd	r5, r4, [sp, #40]	; 0x28
 8000ae0:	f003 fa70 	bl	8003fc4 <HAL_GPIO_Init>
 8000ae4:	2332      	movs	r3, #50	; 0x32
 8000ae6:	a909      	add	r1, sp, #36	; 0x24
 8000ae8:	4648      	mov	r0, r9
 8000aea:	e9cd 3609 	strd	r3, r6, [sp, #36]	; 0x24
 8000aee:	230b      	movs	r3, #11
 8000af0:	e9cd 440b 	strd	r4, r4, [sp, #44]	; 0x2c
 8000af4:	930d      	str	r3, [sp, #52]	; 0x34
 8000af6:	f003 fa65 	bl	8003fc4 <HAL_GPIO_Init>
 8000afa:	f248 0341 	movw	r3, #32833	; 0x8041
 8000afe:	a909      	add	r1, sp, #36	; 0x24
 8000b00:	4658      	mov	r0, fp
 8000b02:	9309      	str	r3, [sp, #36]	; 0x24
 8000b04:	e9cd 540a 	strd	r5, r4, [sp, #40]	; 0x28
 8000b08:	f003 fa5c 	bl	8003fc4 <HAL_GPIO_Init>
 8000b0c:	220b      	movs	r2, #11
 8000b0e:	2386      	movs	r3, #134	; 0x86
 8000b10:	a909      	add	r1, sp, #36	; 0x24
 8000b12:	4658      	mov	r0, fp
 8000b14:	920d      	str	r2, [sp, #52]	; 0x34
 8000b16:	9309      	str	r3, [sp, #36]	; 0x24
 8000b18:	940c      	str	r4, [sp, #48]	; 0x30
 8000b1a:	e9cd 640a 	strd	r6, r4, [sp, #40]	; 0x28
 8000b1e:	f003 fa51 	bl	8003fc4 <HAL_GPIO_Init>
 8000b22:	f649 737c 	movw	r3, #40828	; 0x9f7c
 8000b26:	a909      	add	r1, sp, #36	; 0x24
 8000b28:	4650      	mov	r0, sl
 8000b2a:	9309      	str	r3, [sp, #36]	; 0x24
 8000b2c:	e9cd 540a 	strd	r5, r4, [sp, #40]	; 0x28
 8000b30:	f003 fa48 	bl	8003fc4 <HAL_GPIO_Init>
 8000b34:	f24d 733f 	movw	r3, #55103	; 0xd73f
 8000b38:	a909      	add	r1, sp, #36	; 0x24
 8000b3a:	4638      	mov	r0, r7
 8000b3c:	9309      	str	r3, [sp, #36]	; 0x24
 8000b3e:	e9cd 540a 	strd	r5, r4, [sp, #40]	; 0x28
 8000b42:	f003 fa3f 	bl	8003fc4 <HAL_GPIO_Init>
 8000b46:	f44f 5300 	mov.w	r3, #8192	; 0x2000
 8000b4a:	a909      	add	r1, sp, #36	; 0x24
 8000b4c:	4650      	mov	r0, sl
 8000b4e:	e9cd 3609 	strd	r3, r6, [sp, #36]	; 0x24
 8000b52:	230b      	movs	r3, #11
 8000b54:	e9cd 440b 	strd	r4, r4, [sp, #44]	; 0x2c
 8000b58:	930d      	str	r3, [sp, #52]	; 0x34
 8000b5a:	f003 fa33 	bl	8003fc4 <HAL_GPIO_Init>
 8000b5e:	f44f 4381 	mov.w	r3, #16512	; 0x4080
 8000b62:	4650      	mov	r0, sl
 8000b64:	a909      	add	r1, sp, #36	; 0x24
 8000b66:	940c      	str	r4, [sp, #48]	; 0x30
 8000b68:	9309      	str	r3, [sp, #36]	; 0x24
 8000b6a:	e9cd 840a 	strd	r8, r4, [sp, #40]	; 0x28
 8000b6e:	f003 fa29 	bl	8003fc4 <HAL_GPIO_Init>
 8000b72:	f64f 43ff 	movw	r3, #64767	; 0xfcff
 8000b76:	a909      	add	r1, sp, #36	; 0x24
 8000b78:	4825      	ldr	r0, [pc, #148]	; (8000c10 <MX_GPIO_Init+0x2dc>)
 8000b7a:	9309      	str	r3, [sp, #36]	; 0x24
 8000b7c:	e9cd 540a 	strd	r5, r4, [sp, #40]	; 0x28
 8000b80:	f003 fa20 	bl	8003fc4 <HAL_GPIO_Init>
 8000b84:	2340      	movs	r3, #64	; 0x40
 8000b86:	a909      	add	r1, sp, #36	; 0x24
 8000b88:	4638      	mov	r0, r7
 8000b8a:	9309      	str	r3, [sp, #36]	; 0x24
 8000b8c:	940c      	str	r4, [sp, #48]	; 0x30
 8000b8e:	e9cd 840a 	strd	r8, r4, [sp, #40]	; 0x28
 8000b92:	f003 fa17 	bl	8003fc4 <HAL_GPIO_Init>
 8000b96:	2380      	movs	r3, #128	; 0x80
 8000b98:	a909      	add	r1, sp, #36	; 0x24
 8000b9a:	4638      	mov	r0, r7
 8000b9c:	9309      	str	r3, [sp, #36]	; 0x24
 8000b9e:	e9cd 440a 	strd	r4, r4, [sp, #40]	; 0x28
 8000ba2:	f003 fa0f 	bl	8003fc4 <HAL_GPIO_Init>
 8000ba6:	f44f 63c0 	mov.w	r3, #1536	; 0x600
 8000baa:	4648      	mov	r0, r9
 8000bac:	a909      	add	r1, sp, #36	; 0x24
 8000bae:	9309      	str	r3, [sp, #36]	; 0x24
 8000bb0:	940c      	str	r4, [sp, #48]	; 0x30
 8000bb2:	e9cd 840a 	strd	r8, r4, [sp, #40]	; 0x28
 8000bb6:	f003 fa05 	bl	8003fc4 <HAL_GPIO_Init>
 8000bba:	f44f 52e8 	mov.w	r2, #7424	; 0x1d00
 8000bbe:	230a      	movs	r3, #10
 8000bc0:	4658      	mov	r0, fp
 8000bc2:	a909      	add	r1, sp, #36	; 0x24
 8000bc4:	9209      	str	r2, [sp, #36]	; 0x24
 8000bc6:	930d      	str	r3, [sp, #52]	; 0x34
 8000bc8:	940c      	str	r4, [sp, #48]	; 0x30
 8000bca:	e9cd 640a 	strd	r6, r4, [sp, #40]	; 0x28
 8000bce:	f003 f9f9 	bl	8003fc4 <HAL_GPIO_Init>
 8000bd2:	f44f 5320 	mov.w	r3, #10240	; 0x2800
 8000bd6:	220b      	movs	r2, #11
 8000bd8:	a909      	add	r1, sp, #36	; 0x24
 8000bda:	4638      	mov	r0, r7
 8000bdc:	9309      	str	r3, [sp, #36]	; 0x24
 8000bde:	920d      	str	r2, [sp, #52]	; 0x34
 8000be0:	940c      	str	r4, [sp, #48]	; 0x30
 8000be2:	e9cd 640a 	strd	r6, r4, [sp, #40]	; 0x28
 8000be6:	f003 f9ed 	bl	8003fc4 <HAL_GPIO_Init>
 8000bea:	4622      	mov	r2, r4
 8000bec:	4621      	mov	r1, r4
 8000bee:	2028      	movs	r0, #40	; 0x28
 8000bf0:	f002 f898 	bl	8002d24 <HAL_NVIC_SetPriority>
 8000bf4:	2028      	movs	r0, #40	; 0x28
 8000bf6:	f002 f8db 	bl	8002db0 <HAL_NVIC_EnableIRQ>
 8000bfa:	b00f      	add	sp, #60	; 0x3c
 8000bfc:	e8bd 8ff0 	ldmia.w	sp!, {r4, r5, r6, r7, r8, r9, sl, fp, pc}
 8000c00:	58024400 	.word	0x58024400
 8000c04:	58021000 	.word	0x58021000
 8000c08:	58021800 	.word	0x58021800
 8000c0c:	11110000 	.word	0x11110000
 8000c10:	58020c00 	.word	0x58020c00
 8000c14:	58021400 	.word	0x58021400
 8000c18:	58020400 	.word	0x58020400
 8000c1c:	58020800 	.word	0x58020800

08000c20 <HAL_HRTIM_MspInit>:
 8000c20:	6802      	ldr	r2, [r0, #0]
 8000c22:	4b0a      	ldr	r3, [pc, #40]	; (8000c4c <HAL_HRTIM_MspInit+0x2c>)
 8000c24:	429a      	cmp	r2, r3
 8000c26:	d000      	beq.n	8000c2a <HAL_HRTIM_MspInit+0xa>
 8000c28:	4770      	bx	lr
 8000c2a:	4b09      	ldr	r3, [pc, #36]	; (8000c50 <HAL_HRTIM_MspInit+0x30>)
 8000c2c:	b082      	sub	sp, #8
 8000c2e:	f8d3 20f0 	ldr.w	r2, [r3, #240]	; 0xf0
 8000c32:	f042 5200 	orr.w	r2, r2, #536870912	; 0x20000000
 8000c36:	f8c3 20f0 	str.w	r2, [r3, #240]	; 0xf0
 8000c3a:	f8d3 30f0 	ldr.w	r3, [r3, #240]	; 0xf0
 8000c3e:	f003 5300 	and.w	r3, r3, #536870912	; 0x20000000
 8000c42:	9301      	str	r3, [sp, #4]
 8000c44:	9b01      	ldr	r3, [sp, #4]
 8000c46:	b002      	add	sp, #8
 8000c48:	4770      	bx	lr
 8000c4a:	bf00      	nop
 8000c4c:	40017400 	.word	0x40017400
 8000c50:	58024400 	.word	0x58024400

08000c54 <HAL_HRTIM_MspPostInit>:
 8000c54:	6801      	ldr	r1, [r0, #0]
 8000c56:	2300      	movs	r3, #0
 8000c58:	4a13      	ldr	r2, [pc, #76]	; (8000ca8 <HAL_HRTIM_MspPostInit+0x54>)
 8000c5a:	b570      	push	{r4, r5, r6, lr}
 8000c5c:	4291      	cmp	r1, r2
 8000c5e:	b086      	sub	sp, #24
 8000c60:	e9cd 3301 	strd	r3, r3, [sp, #4]
 8000c64:	e9cd 3303 	strd	r3, r3, [sp, #12]
 8000c68:	9305      	str	r3, [sp, #20]
 8000c6a:	d001      	beq.n	8000c70 <HAL_HRTIM_MspPostInit+0x1c>
 8000c6c:	b006      	add	sp, #24
 8000c6e:	bd70      	pop	{r4, r5, r6, pc}
 8000c70:	4b0e      	ldr	r3, [pc, #56]	; (8000cac <HAL_HRTIM_MspPostInit+0x58>)
 8000c72:	f44f 70a0 	mov.w	r0, #320	; 0x140
 8000c76:	2602      	movs	r6, #2
 8000c78:	a901      	add	r1, sp, #4
 8000c7a:	f8d3 20e0 	ldr.w	r2, [r3, #224]	; 0xe0
 8000c7e:	2503      	movs	r5, #3
 8000c80:	2401      	movs	r4, #1
 8000c82:	f042 0204 	orr.w	r2, r2, #4
 8000c86:	f8c3 20e0 	str.w	r2, [r3, #224]	; 0xe0
 8000c8a:	f8d3 30e0 	ldr.w	r3, [r3, #224]	; 0xe0
 8000c8e:	9001      	str	r0, [sp, #4]
 8000c90:	f003 0304 	and.w	r3, r3, #4
 8000c94:	4806      	ldr	r0, [pc, #24]	; (8000cb0 <HAL_HRTIM_MspPostInit+0x5c>)
 8000c96:	9602      	str	r6, [sp, #8]
 8000c98:	9300      	str	r3, [sp, #0]
 8000c9a:	9b00      	ldr	r3, [sp, #0]
 8000c9c:	e9cd 5404 	strd	r5, r4, [sp, #16]
 8000ca0:	f003 f990 	bl	8003fc4 <HAL_GPIO_Init>
 8000ca4:	b006      	add	sp, #24
 8000ca6:	bd70      	pop	{r4, r5, r6, pc}
 8000ca8:	40017400 	.word	0x40017400
 8000cac:	58024400 	.word	0x58024400
 8000cb0:	58020800 	.word	0x58020800

08000cb4 <Error_Handler>:
 8000cb4:	4c02      	ldr	r4, [pc, #8]	; (8000cc0 <Error_Handler+0xc>)
 8000cb6:	b508      	push	{r3, lr}
 8000cb8:	4620      	mov	r0, r4
 8000cba:	f009 ff23 	bl	800ab04 <iprintf>
 8000cbe:	e7fb      	b.n	8000cb8 <Error_Handler+0x4>
 8000cc0:	0800cef0 	.word	0x0800cef0

08000cc4 <SystemClock_Config>:
 8000cc4:	b530      	push	{r4, r5, lr}
 8000cc6:	b0cd      	sub	sp, #308	; 0x134
 8000cc8:	224c      	movs	r2, #76	; 0x4c
 8000cca:	2100      	movs	r1, #0
 8000ccc:	a80a      	add	r0, sp, #40	; 0x28
 8000cce:	f009 fe69 	bl	800a9a4 <memset>
 8000cd2:	2220      	movs	r2, #32
 8000cd4:	2100      	movs	r1, #0
 8000cd6:	a802      	add	r0, sp, #8
 8000cd8:	f009 fe64 	bl	800a9a4 <memset>
 8000cdc:	22bc      	movs	r2, #188	; 0xbc
 8000cde:	2100      	movs	r1, #0
 8000ce0:	a81d      	add	r0, sp, #116	; 0x74
 8000ce2:	f009 fe5f 	bl	800a9a4 <memset>
 8000ce6:	2002      	movs	r0, #2
 8000ce8:	f003 fe88 	bl	80049fc <HAL_PWREx_ConfigSupply>
 8000cec:	4b2b      	ldr	r3, [pc, #172]	; (8000d9c <SystemClock_Config+0xd8>)
 8000cee:	2200      	movs	r2, #0
 8000cf0:	492b      	ldr	r1, [pc, #172]	; (8000da0 <SystemClock_Config+0xdc>)
 8000cf2:	9201      	str	r2, [sp, #4]
 8000cf4:	461a      	mov	r2, r3
 8000cf6:	6998      	ldr	r0, [r3, #24]
 8000cf8:	f440 4040 	orr.w	r0, r0, #49152	; 0xc000
 8000cfc:	6198      	str	r0, [r3, #24]
 8000cfe:	699b      	ldr	r3, [r3, #24]
 8000d00:	f403 4340 	and.w	r3, r3, #49152	; 0xc000
 8000d04:	9301      	str	r3, [sp, #4]
 8000d06:	6acb      	ldr	r3, [r1, #44]	; 0x2c
 8000d08:	f043 0301 	orr.w	r3, r3, #1
 8000d0c:	62cb      	str	r3, [r1, #44]	; 0x2c
 8000d0e:	6acb      	ldr	r3, [r1, #44]	; 0x2c
 8000d10:	f003 0301 	and.w	r3, r3, #1
 8000d14:	9301      	str	r3, [sp, #4]
 8000d16:	9b01      	ldr	r3, [sp, #4]
 8000d18:	6993      	ldr	r3, [r2, #24]
 8000d1a:	049b      	lsls	r3, r3, #18
 8000d1c:	d5fc      	bpl.n	8000d18 <SystemClock_Config+0x54>
 8000d1e:	2201      	movs	r2, #1
 8000d20:	f44f 3180 	mov.w	r1, #65536	; 0x10000
 8000d24:	2078      	movs	r0, #120	; 0x78
 8000d26:	2302      	movs	r3, #2
 8000d28:	2403      	movs	r4, #3
 8000d2a:	2520      	movs	r5, #32
 8000d2c:	910b      	str	r1, [sp, #44]	; 0x2c
 8000d2e:	210c      	movs	r1, #12
 8000d30:	920d      	str	r2, [sp, #52]	; 0x34
 8000d32:	9215      	str	r2, [sp, #84]	; 0x54
 8000d34:	2200      	movs	r2, #0
 8000d36:	9016      	str	r0, [sp, #88]	; 0x58
 8000d38:	a80a      	add	r0, sp, #40	; 0x28
 8000d3a:	940a      	str	r4, [sp, #40]	; 0x28
 8000d3c:	950e      	str	r5, [sp, #56]	; 0x38
 8000d3e:	9319      	str	r3, [sp, #100]	; 0x64
 8000d40:	921c      	str	r2, [sp, #112]	; 0x70
 8000d42:	e9cd 3313 	strd	r3, r3, [sp, #76]	; 0x4c
 8000d46:	e9cd 3317 	strd	r3, r3, [sp, #92]	; 0x5c
 8000d4a:	e9cd 121a 	strd	r1, r2, [sp, #104]	; 0x68
 8000d4e:	f003 fe85 	bl	8004a5c <HAL_RCC_OscConfig>
 8000d52:	bb08      	cbnz	r0, 8000d98 <SystemClock_Config+0xd4>
 8000d54:	2108      	movs	r1, #8
 8000d56:	2340      	movs	r3, #64	; 0x40
 8000d58:	f44f 6280 	mov.w	r2, #1024	; 0x400
 8000d5c:	253f      	movs	r5, #63	; 0x3f
 8000d5e:	9004      	str	r0, [sp, #16]
 8000d60:	eb0d 0001 	add.w	r0, sp, r1
 8000d64:	9105      	str	r1, [sp, #20]
 8000d66:	2104      	movs	r1, #4
 8000d68:	9403      	str	r4, [sp, #12]
 8000d6a:	9502      	str	r5, [sp, #8]
 8000d6c:	e9cd 3306 	strd	r3, r3, [sp, #24]
 8000d70:	e9cd 2308 	strd	r2, r3, [sp, #32]
 8000d74:	f004 fa64 	bl	8005240 <HAL_RCC_ClockConfig>
 8000d78:	4603      	mov	r3, r0
 8000d7a:	b968      	cbnz	r0, 8000d98 <SystemClock_Config+0xd4>
 8000d7c:	4909      	ldr	r1, [pc, #36]	; (8000da4 <SystemClock_Config+0xe0>)
 8000d7e:	f44f 3200 	mov.w	r2, #131072	; 0x20000
 8000d82:	a81d      	add	r0, sp, #116	; 0x74
 8000d84:	9331      	str	r3, [sp, #196]	; 0xc4
 8000d86:	933a      	str	r3, [sp, #232]	; 0xe8
 8000d88:	934a      	str	r3, [sp, #296]	; 0x128
 8000d8a:	911d      	str	r1, [sp, #116]	; 0x74
 8000d8c:	9245      	str	r2, [sp, #276]	; 0x114
 8000d8e:	f004 fe8b 	bl	8005aa8 <HAL_RCCEx_PeriphCLKConfig>
 8000d92:	b908      	cbnz	r0, 8000d98 <SystemClock_Config+0xd4>
 8000d94:	b04d      	add	sp, #308	; 0x134
 8000d96:	bd30      	pop	{r4, r5, pc}
 8000d98:	f7ff ff8c 	bl	8000cb4 <Error_Handler>
 8000d9c:	58024800 	.word	0x58024800
 8000da0:	58000400 	.word	0x58000400
 8000da4:	90080002 	.word	0x90080002

08000da8 <main>:
 8000da8:	b580      	push	{r7, lr}
 8000daa:	f3bf 8f4f 	dsb	sy
 8000dae:	f3bf 8f6f 	isb	sy
 8000db2:	4b37      	ldr	r3, [pc, #220]	; (8000e90 <main+0xe8>)
 8000db4:	2100      	movs	r1, #0
 8000db6:	f8c3 1250 	str.w	r1, [r3, #592]	; 0x250
 8000dba:	f3bf 8f4f 	dsb	sy
 8000dbe:	f3bf 8f6f 	isb	sy
 8000dc2:	695a      	ldr	r2, [r3, #20]
 8000dc4:	f442 3200 	orr.w	r2, r2, #131072	; 0x20000
 8000dc8:	615a      	str	r2, [r3, #20]
 8000dca:	f3bf 8f4f 	dsb	sy
 8000dce:	f3bf 8f6f 	isb	sy
 8000dd2:	f8c3 1084 	str.w	r1, [r3, #132]	; 0x84
 8000dd6:	f3bf 8f4f 	dsb	sy
 8000dda:	f8d3 2080 	ldr.w	r2, [r3, #128]	; 0x80
 8000dde:	f643 77e0 	movw	r7, #16352	; 0x3fe0
 8000de2:	f3c2 05c9 	ubfx	r5, r2, #3, #10
 8000de6:	f3c2 324e 	ubfx	r2, r2, #13, #15
 8000dea:	07ae      	lsls	r6, r5, #30
 8000dec:	0152      	lsls	r2, r2, #5
 8000dee:	ea02 0c07 	and.w	ip, r2, r7
 8000df2:	4630      	mov	r0, r6
 8000df4:	4629      	mov	r1, r5
 8000df6:	ea4c 0400 	orr.w	r4, ip, r0
 8000dfa:	3901      	subs	r1, #1
 8000dfc:	f100 4040 	add.w	r0, r0, #3221225472	; 0xc0000000
 8000e00:	f8c3 4260 	str.w	r4, [r3, #608]	; 0x260
 8000e04:	1c4c      	adds	r4, r1, #1
 8000e06:	d1f6      	bne.n	8000df6 <main+0x4e>
 8000e08:	3a20      	subs	r2, #32
 8000e0a:	f112 0f20 	cmn.w	r2, #32
 8000e0e:	d1ee      	bne.n	8000dee <main+0x46>
 8000e10:	f3bf 8f4f 	dsb	sy
 8000e14:	695a      	ldr	r2, [r3, #20]
 8000e16:	f442 3280 	orr.w	r2, r2, #65536	; 0x10000
 8000e1a:	615a      	str	r2, [r3, #20]
 8000e1c:	f3bf 8f4f 	dsb	sy
 8000e20:	f3bf 8f6f 	isb	sy
 8000e24:	f000 fb02 	bl	800142c <HAL_Init>
 8000e28:	4c1a      	ldr	r4, [pc, #104]	; (8000e94 <main+0xec>)
 8000e2a:	f7ff ff4b 	bl	8000cc4 <SystemClock_Config>
 8000e2e:	f7ff fd81 	bl	8000934 <MX_GPIO_Init>
 8000e32:	f7ff fd65 	bl	8000900 <MX_DMA_Init>
 8000e36:	f000 fa29 	bl	800128c <MX_USART3_UART_Init>
 8000e3a:	f7ff fcf7 	bl	800082c <MX_DAC1_Init>
 8000e3e:	f000 f945 	bl	80010cc <MX_TIM1_Init>
 8000e42:	f7ff fc1d 	bl	8000680 <MX_ADC2_Init>
 8000e46:	f000 fb4d 	bl	80014e4 <HAL_EnableCompensationCell>
 8000e4a:	4813      	ldr	r0, [pc, #76]	; (8000e98 <main+0xf0>)
 8000e4c:	f009 fece 	bl	800abec <puts>
 8000e50:	2201      	movs	r2, #1
 8000e52:	f44f 7100 	mov.w	r1, #512	; 0x200
 8000e56:	4811      	ldr	r0, [pc, #68]	; (8000e9c <main+0xf4>)
 8000e58:	f003 fab6 	bl	80043c8 <HAL_GPIO_WritePin>
 8000e5c:	2201      	movs	r2, #1
 8000e5e:	2180      	movs	r1, #128	; 0x80
 8000e60:	480e      	ldr	r0, [pc, #56]	; (8000e9c <main+0xf4>)
 8000e62:	f003 fab1 	bl	80043c8 <HAL_GPIO_WritePin>
 8000e66:	2201      	movs	r2, #1
 8000e68:	f44f 7180 	mov.w	r1, #256	; 0x100
 8000e6c:	480b      	ldr	r0, [pc, #44]	; (8000e9c <main+0xf4>)
 8000e6e:	f003 faab 	bl	80043c8 <HAL_GPIO_WritePin>
 8000e72:	f009 fa69 	bl	800a348 <synth_init>
 8000e76:	f009 f927 	bl	800a0c8 <cisInit>
 8000e7a:	f000 fb15 	bl	80014a8 <HAL_GetTick>
 8000e7e:	6020      	str	r0, [r4, #0]
 8000e80:	f000 fb12 	bl	80014a8 <HAL_GetTick>
 8000e84:	6823      	ldr	r3, [r4, #0]
 8000e86:	1ac0      	subs	r0, r0, r3
 8000e88:	f5b0 7f7a 	cmp.w	r0, #1000	; 0x3e8
 8000e8c:	d3f8      	bcc.n	8000e80 <main+0xd8>
 8000e8e:	e7f4      	b.n	8000e7a <main+0xd2>
 8000e90:	e000ed00 	.word	0xe000ed00
 8000e94:	2400009c 	.word	0x2400009c
 8000e98:	0800cf34 	.word	0x0800cf34
 8000e9c:	58021400 	.word	0x58021400

08000ea0 <assert_failed>:
 8000ea0:	460a      	mov	r2, r1
 8000ea2:	4601      	mov	r1, r0
 8000ea4:	4801      	ldr	r0, [pc, #4]	; (8000eac <assert_failed+0xc>)
 8000ea6:	f009 be2d 	b.w	800ab04 <iprintf>
 8000eaa:	bf00      	nop
 8000eac:	0800cf04 	.word	0x0800cf04

08000eb0 <Reset_Handler>:
 8000eb0:	f8df d034 	ldr.w	sp, [pc, #52]	; 8000ee8 <LoopFillZerobss+0x14>
 8000eb4:	2100      	movs	r1, #0
 8000eb6:	e003      	b.n	8000ec0 <LoopCopyDataInit>

08000eb8 <CopyDataInit>:
 8000eb8:	4b0c      	ldr	r3, [pc, #48]	; (8000eec <LoopFillZerobss+0x18>)
 8000eba:	585b      	ldr	r3, [r3, r1]
 8000ebc:	5043      	str	r3, [r0, r1]
 8000ebe:	3104      	adds	r1, #4

08000ec0 <LoopCopyDataInit>:
 8000ec0:	480b      	ldr	r0, [pc, #44]	; (8000ef0 <LoopFillZerobss+0x1c>)
 8000ec2:	4b0c      	ldr	r3, [pc, #48]	; (8000ef4 <LoopFillZerobss+0x20>)
 8000ec4:	1842      	adds	r2, r0, r1
 8000ec6:	429a      	cmp	r2, r3
 8000ec8:	d3f6      	bcc.n	8000eb8 <CopyDataInit>
 8000eca:	4a0b      	ldr	r2, [pc, #44]	; (8000ef8 <LoopFillZerobss+0x24>)
 8000ecc:	e002      	b.n	8000ed4 <LoopFillZerobss>

08000ece <FillZerobss>:
 8000ece:	2300      	movs	r3, #0
 8000ed0:	f842 3b04 	str.w	r3, [r2], #4

08000ed4 <LoopFillZerobss>:
 8000ed4:	4b09      	ldr	r3, [pc, #36]	; (8000efc <LoopFillZerobss+0x28>)
 8000ed6:	429a      	cmp	r2, r3
 8000ed8:	d3f9      	bcc.n	8000ece <FillZerobss>
 8000eda:	f000 f8b7 	bl	800104c <SystemInit>
 8000ede:	f009 fd35 	bl	800a94c <__libc_init_array>
 8000ee2:	f7ff ff61 	bl	8000da8 <main>
 8000ee6:	4770      	bx	lr
 8000ee8:	24080000 	.word	0x24080000
 8000eec:	0800d630 	.word	0x0800d630
 8000ef0:	24000000 	.word	0x24000000
 8000ef4:	2400007c 	.word	0x2400007c
 8000ef8:	2400007c 	.word	0x2400007c
 8000efc:	2400b954 	.word	0x2400b954

08000f00 <ADC3_IRQHandler>:
 8000f00:	e7fe      	b.n	8000f00 <ADC3_IRQHandler>
	...

08000f04 <HAL_MspInit>:
 8000f04:	4b1a      	ldr	r3, [pc, #104]	; (8000f70 <HAL_MspInit+0x6c>)
 8000f06:	2200      	movs	r2, #0
 8000f08:	2101      	movs	r1, #1
 8000f0a:	f06f 000b 	mvn.w	r0, #11
 8000f0e:	b510      	push	{r4, lr}
 8000f10:	f8d3 40f4 	ldr.w	r4, [r3, #244]	; 0xf4
 8000f14:	b082      	sub	sp, #8
 8000f16:	f044 0402 	orr.w	r4, r4, #2
 8000f1a:	f8c3 40f4 	str.w	r4, [r3, #244]	; 0xf4
 8000f1e:	f8d3 30f4 	ldr.w	r3, [r3, #244]	; 0xf4
 8000f22:	f003 0302 	and.w	r3, r3, #2
 8000f26:	9301      	str	r3, [sp, #4]
 8000f28:	9b01      	ldr	r3, [sp, #4]
 8000f2a:	f001 fefb 	bl	8002d24 <HAL_NVIC_SetPriority>
 8000f2e:	2200      	movs	r2, #0
 8000f30:	2101      	movs	r1, #1
 8000f32:	f06f 000a 	mvn.w	r0, #10
 8000f36:	f001 fef5 	bl	8002d24 <HAL_NVIC_SetPriority>
 8000f3a:	2200      	movs	r2, #0
 8000f3c:	2101      	movs	r1, #1
 8000f3e:	f06f 0009 	mvn.w	r0, #9
 8000f42:	f001 feef 	bl	8002d24 <HAL_NVIC_SetPriority>
 8000f46:	2200      	movs	r2, #0
 8000f48:	2101      	movs	r1, #1
 8000f4a:	f06f 0004 	mvn.w	r0, #4
 8000f4e:	f001 fee9 	bl	8002d24 <HAL_NVIC_SetPriority>
 8000f52:	2200      	movs	r2, #0
 8000f54:	2101      	movs	r1, #1
 8000f56:	f06f 0003 	mvn.w	r0, #3
 8000f5a:	f001 fee3 	bl	8002d24 <HAL_NVIC_SetPriority>
 8000f5e:	2200      	movs	r2, #0
 8000f60:	2101      	movs	r1, #1
 8000f62:	f06f 0001 	mvn.w	r0, #1
 8000f66:	b002      	add	sp, #8
 8000f68:	e8bd 4010 	ldmia.w	sp!, {r4, lr}
 8000f6c:	f001 beda 	b.w	8002d24 <HAL_NVIC_SetPriority>
 8000f70:	58024400 	.word	0x58024400

08000f74 <SVC_Handler>:
 8000f74:	4770      	bx	lr
 8000f76:	bf00      	nop

08000f78 <PendSV_Handler>:
 8000f78:	4770      	bx	lr
 8000f7a:	bf00      	nop

08000f7c <SysTick_Handler>:
 8000f7c:	f000 ba88 	b.w	8001490 <HAL_IncTick>

08000f80 <DMA1_Stream0_IRQHandler>:
 8000f80:	4801      	ldr	r0, [pc, #4]	; (8000f88 <DMA1_Stream0_IRQHandler+0x8>)
 8000f82:	f002 bce3 	b.w	800394c <HAL_DMA_IRQHandler>
 8000f86:	bf00      	nop
 8000f88:	2400b8d4 	.word	0x2400b8d4

08000f8c <ADC_IRQHandler>:
 8000f8c:	b508      	push	{r3, lr}
 8000f8e:	4804      	ldr	r0, [pc, #16]	; (8000fa0 <ADC_IRQHandler+0x14>)
 8000f90:	f000 fbe6 	bl	8001760 <HAL_ADC_IRQHandler>
 8000f94:	4803      	ldr	r0, [pc, #12]	; (8000fa4 <ADC_IRQHandler+0x18>)
 8000f96:	e8bd 4008 	ldmia.w	sp!, {r3, lr}
 8000f9a:	f000 bbe1 	b.w	8001760 <HAL_ADC_IRQHandler>
 8000f9e:	bf00      	nop
 8000fa0:	2400b634 	.word	0x2400b634
 8000fa4:	2400b5d0 	.word	0x2400b5d0

08000fa8 <EXTI15_10_IRQHandler>:
 8000fa8:	f44f 5000 	mov.w	r0, #8192	; 0x2000
 8000fac:	f003 ba26 	b.w	80043fc <HAL_GPIO_EXTI_IRQHandler>

08000fb0 <TIM15_IRQHandler>:
 8000fb0:	4801      	ldr	r0, [pc, #4]	; (8000fb8 <TIM15_IRQHandler+0x8>)
 8000fb2:	f006 bc4f 	b.w	8007854 <HAL_TIM_IRQHandler>
 8000fb6:	bf00      	nop
 8000fb8:	2400b788 	.word	0x2400b788

08000fbc <_read>:
 8000fbc:	b570      	push	{r4, r5, r6, lr}
 8000fbe:	1e16      	subs	r6, r2, #0
 8000fc0:	dd07      	ble.n	8000fd2 <_read+0x16>
 8000fc2:	460c      	mov	r4, r1
 8000fc4:	198d      	adds	r5, r1, r6
 8000fc6:	f3af 8000 	nop.w
 8000fca:	f804 0b01 	strb.w	r0, [r4], #1
 8000fce:	42a5      	cmp	r5, r4
 8000fd0:	d1f9      	bne.n	8000fc6 <_read+0xa>
 8000fd2:	4630      	mov	r0, r6
 8000fd4:	bd70      	pop	{r4, r5, r6, pc}
 8000fd6:	bf00      	nop

08000fd8 <_write>:
 8000fd8:	b570      	push	{r4, r5, r6, lr}
 8000fda:	1e16      	subs	r6, r2, #0
 8000fdc:	dd07      	ble.n	8000fee <_write+0x16>
 8000fde:	460c      	mov	r4, r1
 8000fe0:	198d      	adds	r5, r1, r6
 8000fe2:	f814 0b01 	ldrb.w	r0, [r4], #1
 8000fe6:	f000 f9e7 	bl	80013b8 <__io_putchar>
 8000fea:	42ac      	cmp	r4, r5
 8000fec:	d1f9      	bne.n	8000fe2 <_write+0xa>
 8000fee:	4630      	mov	r0, r6
 8000ff0:	bd70      	pop	{r4, r5, r6, pc}
 8000ff2:	bf00      	nop

08000ff4 <_sbrk>:
 8000ff4:	4a0c      	ldr	r2, [pc, #48]	; (8001028 <_sbrk+0x34>)
 8000ff6:	b508      	push	{r3, lr}
 8000ff8:	6813      	ldr	r3, [r2, #0]
 8000ffa:	b133      	cbz	r3, 800100a <_sbrk+0x16>
 8000ffc:	4418      	add	r0, r3
 8000ffe:	4669      	mov	r1, sp
 8001000:	4288      	cmp	r0, r1
 8001002:	d809      	bhi.n	8001018 <_sbrk+0x24>
 8001004:	6010      	str	r0, [r2, #0]
 8001006:	4618      	mov	r0, r3
 8001008:	bd08      	pop	{r3, pc}
 800100a:	4908      	ldr	r1, [pc, #32]	; (800102c <_sbrk+0x38>)
 800100c:	460b      	mov	r3, r1
 800100e:	6011      	str	r1, [r2, #0]
 8001010:	4669      	mov	r1, sp
 8001012:	4418      	add	r0, r3
 8001014:	4288      	cmp	r0, r1
 8001016:	d9f5      	bls.n	8001004 <_sbrk+0x10>
 8001018:	f009 fc92 	bl	800a940 <__errno>
 800101c:	220c      	movs	r2, #12
 800101e:	f04f 33ff 	mov.w	r3, #4294967295	; 0xffffffff
 8001022:	6002      	str	r2, [r0, #0]
 8001024:	4618      	mov	r0, r3
 8001026:	bd08      	pop	{r3, pc}
 8001028:	240000a0 	.word	0x240000a0
 800102c:	2400b958 	.word	0x2400b958

08001030 <_close>:
 8001030:	f04f 30ff 	mov.w	r0, #4294967295	; 0xffffffff
 8001034:	4770      	bx	lr
 8001036:	bf00      	nop

08001038 <_fstat>:
 8001038:	f44f 5300 	mov.w	r3, #8192	; 0x2000
 800103c:	2000      	movs	r0, #0
 800103e:	604b      	str	r3, [r1, #4]
 8001040:	4770      	bx	lr
 8001042:	bf00      	nop

08001044 <_isatty>:
 8001044:	2001      	movs	r0, #1
 8001046:	4770      	bx	lr

08001048 <_lseek>:
 8001048:	2000      	movs	r0, #0
 800104a:	4770      	bx	lr

0800104c <SystemInit>:
 800104c:	b430      	push	{r4, r5}
 800104e:	4c19      	ldr	r4, [pc, #100]	; (80010b4 <SystemInit+0x68>)
 8001050:	2200      	movs	r2, #0
 8001052:	4b19      	ldr	r3, [pc, #100]	; (80010b8 <SystemInit+0x6c>)
 8001054:	f8d4 1088 	ldr.w	r1, [r4, #136]	; 0x88
 8001058:	4818      	ldr	r0, [pc, #96]	; (80010bc <SystemInit+0x70>)
 800105a:	f441 0170 	orr.w	r1, r1, #15728640	; 0xf00000
 800105e:	4d18      	ldr	r5, [pc, #96]	; (80010c0 <SystemInit+0x74>)
 8001060:	f8c4 1088 	str.w	r1, [r4, #136]	; 0x88
 8001064:	681c      	ldr	r4, [r3, #0]
 8001066:	4917      	ldr	r1, [pc, #92]	; (80010c4 <SystemInit+0x78>)
 8001068:	f044 0401 	orr.w	r4, r4, #1
 800106c:	601c      	str	r4, [r3, #0]
 800106e:	611a      	str	r2, [r3, #16]
 8001070:	681c      	ldr	r4, [r3, #0]
 8001072:	4020      	ands	r0, r4
 8001074:	6018      	str	r0, [r3, #0]
 8001076:	619a      	str	r2, [r3, #24]
 8001078:	61da      	str	r2, [r3, #28]
 800107a:	621a      	str	r2, [r3, #32]
 800107c:	629a      	str	r2, [r3, #40]	; 0x28
 800107e:	62da      	str	r2, [r3, #44]	; 0x2c
 8001080:	631a      	str	r2, [r3, #48]	; 0x30
 8001082:	635a      	str	r2, [r3, #52]	; 0x34
 8001084:	639a      	str	r2, [r3, #56]	; 0x38
 8001086:	63da      	str	r2, [r3, #60]	; 0x3c
 8001088:	641a      	str	r2, [r3, #64]	; 0x40
 800108a:	645a      	str	r2, [r3, #68]	; 0x44
 800108c:	6818      	ldr	r0, [r3, #0]
 800108e:	f420 2080 	bic.w	r0, r0, #262144	; 0x40000
 8001092:	6018      	str	r0, [r3, #0]
 8001094:	661a      	str	r2, [r3, #96]	; 0x60
 8001096:	682b      	ldr	r3, [r5, #0]
 8001098:	4019      	ands	r1, r3
 800109a:	f1b1 5f00 	cmp.w	r1, #536870912	; 0x20000000
 800109e:	d202      	bcs.n	80010a6 <SystemInit+0x5a>
 80010a0:	4b09      	ldr	r3, [pc, #36]	; (80010c8 <SystemInit+0x7c>)
 80010a2:	2201      	movs	r2, #1
 80010a4:	601a      	str	r2, [r3, #0]
 80010a6:	4b03      	ldr	r3, [pc, #12]	; (80010b4 <SystemInit+0x68>)
 80010a8:	f04f 6200 	mov.w	r2, #134217728	; 0x8000000
 80010ac:	bc30      	pop	{r4, r5}
 80010ae:	609a      	str	r2, [r3, #8]
 80010b0:	4770      	bx	lr
 80010b2:	bf00      	nop
 80010b4:	e000ed00 	.word	0xe000ed00
 80010b8:	58024400 	.word	0x58024400
 80010bc:	eaf6ed7f 	.word	0xeaf6ed7f
 80010c0:	5c001000 	.word	0x5c001000
 80010c4:	ffff0000 	.word	0xffff0000
 80010c8:	51008108 	.word	0x51008108

080010cc <MX_TIM1_Init>:
 80010cc:	b570      	push	{r4, r5, r6, lr}
 80010ce:	2400      	movs	r4, #0
 80010d0:	b09c      	sub	sp, #112	; 0x70
 80010d2:	4d41      	ldr	r5, [pc, #260]	; (80011d8 <MX_TIM1_Init+0x10c>)
 80010d4:	222c      	movs	r2, #44	; 0x2c
 80010d6:	4621      	mov	r1, r4
 80010d8:	a811      	add	r0, sp, #68	; 0x44
 80010da:	9402      	str	r4, [sp, #8]
 80010dc:	940a      	str	r4, [sp, #40]	; 0x28
 80010de:	e9cd 4403 	strd	r4, r4, [sp, #12]
 80010e2:	e9cd 440b 	strd	r4, r4, [sp, #44]	; 0x2c
 80010e6:	e9cd 440d 	strd	r4, r4, [sp, #52]	; 0x34
 80010ea:	e9cd 440f 	strd	r4, r4, [sp, #60]	; 0x3c
 80010ee:	f009 fc59 	bl	800a9a4 <memset>
 80010f2:	4a3a      	ldr	r2, [pc, #232]	; (80011dc <MX_TIM1_Init+0x110>)
 80010f4:	f44f 63fa 	mov.w	r3, #2000	; 0x7d0
 80010f8:	4628      	mov	r0, r5
 80010fa:	61ac      	str	r4, [r5, #24]
 80010fc:	602a      	str	r2, [r5, #0]
 80010fe:	60eb      	str	r3, [r5, #12]
 8001100:	e9c5 4401 	strd	r4, r4, [r5, #4]
 8001104:	e9c5 4404 	strd	r4, r4, [r5, #16]
 8001108:	f006 f91a 	bl	8007340 <HAL_TIM_OC_Init>
 800110c:	2800      	cmp	r0, #0
 800110e:	d143      	bne.n	8001198 <MX_TIM1_Init+0xcc>
 8001110:	2300      	movs	r3, #0
 8001112:	a902      	add	r1, sp, #8
 8001114:	4830      	ldr	r0, [pc, #192]	; (80011d8 <MX_TIM1_Init+0x10c>)
 8001116:	9304      	str	r3, [sp, #16]
 8001118:	e9cd 3302 	strd	r3, r3, [sp, #8]
 800111c:	f006 fee0 	bl	8007ee0 <HAL_TIMEx_MasterConfigSynchronization>
 8001120:	2800      	cmp	r0, #0
 8001122:	d136      	bne.n	8001192 <MX_TIM1_Init+0xc6>
 8001124:	2300      	movs	r3, #0
 8001126:	2030      	movs	r0, #48	; 0x30
 8001128:	f44f 747a 	mov.w	r4, #1000	; 0x3e8
 800112c:	a90a      	add	r1, sp, #40	; 0x28
 800112e:	900a      	str	r0, [sp, #40]	; 0x28
 8001130:	461a      	mov	r2, r3
 8001132:	4829      	ldr	r0, [pc, #164]	; (80011d8 <MX_TIM1_Init+0x10c>)
 8001134:	930c      	str	r3, [sp, #48]	; 0x30
 8001136:	940b      	str	r4, [sp, #44]	; 0x2c
 8001138:	e9cd 330d 	strd	r3, r3, [sp, #52]	; 0x34
 800113c:	e9cd 330f 	strd	r3, r3, [sp, #60]	; 0x3c
 8001140:	f006 fcb4 	bl	8007aac <HAL_TIM_OC_ConfigChannel>
 8001144:	bb10      	cbnz	r0, 800118c <MX_TIM1_Init+0xc0>
 8001146:	2300      	movs	r3, #0
 8001148:	f44f 5400 	mov.w	r4, #8192	; 0x2000
 800114c:	f04f 7200 	mov.w	r2, #33554432	; 0x2000000
 8001150:	a911      	add	r1, sp, #68	; 0x44
 8001152:	4821      	ldr	r0, [pc, #132]	; (80011d8 <MX_TIM1_Init+0x10c>)
 8001154:	9315      	str	r3, [sp, #84]	; 0x54
 8001156:	9416      	str	r4, [sp, #88]	; 0x58
 8001158:	9219      	str	r2, [sp, #100]	; 0x64
 800115a:	e9cd 3311 	strd	r3, r3, [sp, #68]	; 0x44
 800115e:	e9cd 3313 	strd	r3, r3, [sp, #76]	; 0x4c
 8001162:	e9cd 3317 	strd	r3, r3, [sp, #92]	; 0x5c
 8001166:	e9cd 331a 	strd	r3, r3, [sp, #104]	; 0x68
 800116a:	f006 ff59 	bl	8008020 <HAL_TIMEx_ConfigBreakDeadTime>
 800116e:	b108      	cbz	r0, 8001174 <MX_TIM1_Init+0xa8>
 8001170:	f7ff fda0 	bl	8000cb4 <Error_Handler>
 8001174:	6829      	ldr	r1, [r5, #0]
 8001176:	2300      	movs	r3, #0
 8001178:	4a18      	ldr	r2, [pc, #96]	; (80011dc <MX_TIM1_Init+0x110>)
 800117a:	9309      	str	r3, [sp, #36]	; 0x24
 800117c:	4291      	cmp	r1, r2
 800117e:	e9cd 3305 	strd	r3, r3, [sp, #20]
 8001182:	e9cd 3307 	strd	r3, r3, [sp, #28]
 8001186:	d00a      	beq.n	800119e <MX_TIM1_Init+0xd2>
 8001188:	b01c      	add	sp, #112	; 0x70
 800118a:	bd70      	pop	{r4, r5, r6, pc}
 800118c:	f7ff fd92 	bl	8000cb4 <Error_Handler>
 8001190:	e7d9      	b.n	8001146 <MX_TIM1_Init+0x7a>
 8001192:	f7ff fd8f 	bl	8000cb4 <Error_Handler>
 8001196:	e7c5      	b.n	8001124 <MX_TIM1_Init+0x58>
 8001198:	f7ff fd8c 	bl	8000cb4 <Error_Handler>
 800119c:	e7b8      	b.n	8001110 <MX_TIM1_Init+0x44>
 800119e:	4b10      	ldr	r3, [pc, #64]	; (80011e0 <MX_TIM1_Init+0x114>)
 80011a0:	f44f 7000 	mov.w	r0, #512	; 0x200
 80011a4:	2602      	movs	r6, #2
 80011a6:	a905      	add	r1, sp, #20
 80011a8:	f8d3 20e0 	ldr.w	r2, [r3, #224]	; 0xe0
 80011ac:	2503      	movs	r5, #3
 80011ae:	2401      	movs	r4, #1
 80011b0:	f042 0210 	orr.w	r2, r2, #16
 80011b4:	f8c3 20e0 	str.w	r2, [r3, #224]	; 0xe0
 80011b8:	f8d3 30e0 	ldr.w	r3, [r3, #224]	; 0xe0
 80011bc:	9005      	str	r0, [sp, #20]
 80011be:	f003 0310 	and.w	r3, r3, #16
 80011c2:	4808      	ldr	r0, [pc, #32]	; (80011e4 <MX_TIM1_Init+0x118>)
 80011c4:	9606      	str	r6, [sp, #24]
 80011c6:	9301      	str	r3, [sp, #4]
 80011c8:	9b01      	ldr	r3, [sp, #4]
 80011ca:	e9cd 5408 	strd	r5, r4, [sp, #32]
 80011ce:	f002 fef9 	bl	8003fc4 <HAL_GPIO_Init>
 80011d2:	b01c      	add	sp, #112	; 0x70
 80011d4:	bd70      	pop	{r4, r5, r6, pc}
 80011d6:	bf00      	nop
 80011d8:	2400b808 	.word	0x2400b808
 80011dc:	40010000 	.word	0x40010000
 80011e0:	58024400 	.word	0x58024400
 80011e4:	58021000 	.word	0x58021000

080011e8 <HAL_TIM_OC_MspInit>:
 80011e8:	6803      	ldr	r3, [r0, #0]
 80011ea:	4a18      	ldr	r2, [pc, #96]	; (800124c <HAL_TIM_OC_MspInit+0x64>)
 80011ec:	4293      	cmp	r3, r2
 80011ee:	b510      	push	{r4, lr}
 80011f0:	b082      	sub	sp, #8
 80011f2:	d004      	beq.n	80011fe <HAL_TIM_OC_MspInit+0x16>
 80011f4:	4a16      	ldr	r2, [pc, #88]	; (8001250 <HAL_TIM_OC_MspInit+0x68>)
 80011f6:	4293      	cmp	r3, r2
 80011f8:	d010      	beq.n	800121c <HAL_TIM_OC_MspInit+0x34>
 80011fa:	b002      	add	sp, #8
 80011fc:	bd10      	pop	{r4, pc}
 80011fe:	4b15      	ldr	r3, [pc, #84]	; (8001254 <HAL_TIM_OC_MspInit+0x6c>)
 8001200:	f8d3 20f0 	ldr.w	r2, [r3, #240]	; 0xf0
 8001204:	f042 0201 	orr.w	r2, r2, #1
 8001208:	f8c3 20f0 	str.w	r2, [r3, #240]	; 0xf0
 800120c:	f8d3 30f0 	ldr.w	r3, [r3, #240]	; 0xf0
 8001210:	f003 0301 	and.w	r3, r3, #1
 8001214:	9300      	str	r3, [sp, #0]
 8001216:	9b00      	ldr	r3, [sp, #0]
 8001218:	b002      	add	sp, #8
 800121a:	bd10      	pop	{r4, pc}
 800121c:	4b0d      	ldr	r3, [pc, #52]	; (8001254 <HAL_TIM_OC_MspInit+0x6c>)
 800121e:	2203      	movs	r2, #3
 8001220:	2100      	movs	r1, #0
 8001222:	2074      	movs	r0, #116	; 0x74
 8001224:	f8d3 40f0 	ldr.w	r4, [r3, #240]	; 0xf0
 8001228:	f444 3480 	orr.w	r4, r4, #65536	; 0x10000
 800122c:	f8c3 40f0 	str.w	r4, [r3, #240]	; 0xf0
 8001230:	f8d3 30f0 	ldr.w	r3, [r3, #240]	; 0xf0
 8001234:	f403 3380 	and.w	r3, r3, #65536	; 0x10000
 8001238:	9301      	str	r3, [sp, #4]
 800123a:	9b01      	ldr	r3, [sp, #4]
 800123c:	f001 fd72 	bl	8002d24 <HAL_NVIC_SetPriority>
 8001240:	2074      	movs	r0, #116	; 0x74
 8001242:	b002      	add	sp, #8
 8001244:	e8bd 4010 	ldmia.w	sp!, {r4, lr}
 8001248:	f001 bdb2 	b.w	8002db0 <HAL_NVIC_EnableIRQ>
 800124c:	40010000 	.word	0x40010000
 8001250:	40014000 	.word	0x40014000
 8001254:	58024400 	.word	0x58024400

08001258 <HAL_TIM_Base_MspInit>:
 8001258:	6802      	ldr	r2, [r0, #0]
 800125a:	4b0a      	ldr	r3, [pc, #40]	; (8001284 <HAL_TIM_Base_MspInit+0x2c>)
 800125c:	429a      	cmp	r2, r3
 800125e:	d000      	beq.n	8001262 <HAL_TIM_Base_MspInit+0xa>
 8001260:	4770      	bx	lr
 8001262:	4b09      	ldr	r3, [pc, #36]	; (8001288 <HAL_TIM_Base_MspInit+0x30>)
 8001264:	b082      	sub	sp, #8
 8001266:	f8d3 20e8 	ldr.w	r2, [r3, #232]	; 0xe8
 800126a:	f042 0210 	orr.w	r2, r2, #16
 800126e:	f8c3 20e8 	str.w	r2, [r3, #232]	; 0xe8
 8001272:	f8d3 30e8 	ldr.w	r3, [r3, #232]	; 0xe8
 8001276:	f003 0310 	and.w	r3, r3, #16
 800127a:	9301      	str	r3, [sp, #4]
 800127c:	9b01      	ldr	r3, [sp, #4]
 800127e:	b002      	add	sp, #8
 8001280:	4770      	bx	lr
 8001282:	bf00      	nop
 8001284:	40001000 	.word	0x40001000
 8001288:	58024400 	.word	0x58024400

0800128c <MX_USART3_UART_Init>:
 800128c:	b538      	push	{r3, r4, r5, lr}
 800128e:	4b18      	ldr	r3, [pc, #96]	; (80012f0 <MX_USART3_UART_Init+0x64>)
 8001290:	2200      	movs	r2, #0
 8001292:	210c      	movs	r1, #12
 8001294:	4d17      	ldr	r5, [pc, #92]	; (80012f4 <MX_USART3_UART_Init+0x68>)
 8001296:	4c18      	ldr	r4, [pc, #96]	; (80012f8 <MX_USART3_UART_Init+0x6c>)
 8001298:	4618      	mov	r0, r3
 800129a:	6159      	str	r1, [r3, #20]
 800129c:	611a      	str	r2, [r3, #16]
 800129e:	629a      	str	r2, [r3, #40]	; 0x28
 80012a0:	e9c3 5400 	strd	r5, r4, [r3]
 80012a4:	e9c3 2202 	strd	r2, r2, [r3, #8]
 80012a8:	e9c3 2206 	strd	r2, r2, [r3, #24]
 80012ac:	e9c3 2208 	strd	r2, r2, [r3, #32]
 80012b0:	f008 fba2 	bl	80099f8 <HAL_UART_Init>
 80012b4:	b9c0      	cbnz	r0, 80012e8 <MX_USART3_UART_Init+0x5c>
 80012b6:	2100      	movs	r1, #0
 80012b8:	480d      	ldr	r0, [pc, #52]	; (80012f0 <MX_USART3_UART_Init+0x64>)
 80012ba:	f008 fce7 	bl	8009c8c <HAL_UARTEx_SetTxFifoThreshold>
 80012be:	b980      	cbnz	r0, 80012e2 <MX_USART3_UART_Init+0x56>
 80012c0:	2100      	movs	r1, #0
 80012c2:	480b      	ldr	r0, [pc, #44]	; (80012f0 <MX_USART3_UART_Init+0x64>)
 80012c4:	f008 fd82 	bl	8009dcc <HAL_UARTEx_SetRxFifoThreshold>
 80012c8:	b940      	cbnz	r0, 80012dc <MX_USART3_UART_Init+0x50>
 80012ca:	4809      	ldr	r0, [pc, #36]	; (80012f0 <MX_USART3_UART_Init+0x64>)
 80012cc:	f008 fc80 	bl	8009bd0 <HAL_UARTEx_DisableFifoMode>
 80012d0:	b900      	cbnz	r0, 80012d4 <MX_USART3_UART_Init+0x48>
 80012d2:	bd38      	pop	{r3, r4, r5, pc}
 80012d4:	e8bd 4038 	ldmia.w	sp!, {r3, r4, r5, lr}
 80012d8:	f7ff bcec 	b.w	8000cb4 <Error_Handler>
 80012dc:	f7ff fcea 	bl	8000cb4 <Error_Handler>
 80012e0:	e7f3      	b.n	80012ca <MX_USART3_UART_Init+0x3e>
 80012e2:	f7ff fce7 	bl	8000cb4 <Error_Handler>
 80012e6:	e7eb      	b.n	80012c0 <MX_USART3_UART_Init+0x34>
 80012e8:	f7ff fce4 	bl	8000cb4 <Error_Handler>
 80012ec:	e7e3      	b.n	80012b6 <MX_USART3_UART_Init+0x2a>
 80012ee:	bf00      	nop
 80012f0:	2400b848 	.word	0x2400b848
 80012f4:	40004800 	.word	0x40004800
 80012f8:	001e8480 	.word	0x001e8480

080012fc <HAL_UART_MspInit>:
 80012fc:	4b29      	ldr	r3, [pc, #164]	; (80013a4 <HAL_UART_MspInit+0xa8>)
 80012fe:	6802      	ldr	r2, [r0, #0]
 8001300:	b5f0      	push	{r4, r5, r6, r7, lr}
 8001302:	429a      	cmp	r2, r3
 8001304:	b089      	sub	sp, #36	; 0x24
 8001306:	f04f 0400 	mov.w	r4, #0
 800130a:	e9cd 4403 	strd	r4, r4, [sp, #12]
 800130e:	e9cd 4405 	strd	r4, r4, [sp, #20]
 8001312:	9407      	str	r4, [sp, #28]
 8001314:	d001      	beq.n	800131a <HAL_UART_MspInit+0x1e>
 8001316:	b009      	add	sp, #36	; 0x24
 8001318:	bdf0      	pop	{r4, r5, r6, r7, pc}
 800131a:	4b23      	ldr	r3, [pc, #140]	; (80013a8 <HAL_UART_MspInit+0xac>)
 800131c:	4606      	mov	r6, r0
 800131e:	2003      	movs	r0, #3
 8001320:	f44f 7740 	mov.w	r7, #768	; 0x300
 8001324:	f8d3 20e8 	ldr.w	r2, [r3, #232]	; 0xe8
 8001328:	2502      	movs	r5, #2
 800132a:	a903      	add	r1, sp, #12
 800132c:	f442 2280 	orr.w	r2, r2, #262144	; 0x40000
 8001330:	f8c3 20e8 	str.w	r2, [r3, #232]	; 0xe8
 8001334:	f8d3 20e8 	ldr.w	r2, [r3, #232]	; 0xe8
 8001338:	f402 2280 	and.w	r2, r2, #262144	; 0x40000
 800133c:	9201      	str	r2, [sp, #4]
 800133e:	9a01      	ldr	r2, [sp, #4]
 8001340:	f8d3 20e0 	ldr.w	r2, [r3, #224]	; 0xe0
 8001344:	f042 0208 	orr.w	r2, r2, #8
 8001348:	f8c3 20e0 	str.w	r2, [r3, #224]	; 0xe0
 800134c:	2207      	movs	r2, #7
 800134e:	f8d3 30e0 	ldr.w	r3, [r3, #224]	; 0xe0
 8001352:	9006      	str	r0, [sp, #24]
 8001354:	f003 0308 	and.w	r3, r3, #8
 8001358:	4814      	ldr	r0, [pc, #80]	; (80013ac <HAL_UART_MspInit+0xb0>)
 800135a:	9703      	str	r7, [sp, #12]
 800135c:	272e      	movs	r7, #46	; 0x2e
 800135e:	9302      	str	r3, [sp, #8]
 8001360:	9504      	str	r5, [sp, #16]
 8001362:	9b02      	ldr	r3, [sp, #8]
 8001364:	4d12      	ldr	r5, [pc, #72]	; (80013b0 <HAL_UART_MspInit+0xb4>)
 8001366:	9207      	str	r2, [sp, #28]
 8001368:	f002 fe2c 	bl	8003fc4 <HAL_GPIO_Init>
 800136c:	4811      	ldr	r0, [pc, #68]	; (80013b4 <HAL_UART_MspInit+0xb8>)
 800136e:	2140      	movs	r1, #64	; 0x40
 8001370:	f44f 6280 	mov.w	r2, #1024	; 0x400
 8001374:	f44f 3380 	mov.w	r3, #65536	; 0x10000
 8001378:	6028      	str	r0, [r5, #0]
 800137a:	4628      	mov	r0, r5
 800137c:	60ec      	str	r4, [r5, #12]
 800137e:	61ec      	str	r4, [r5, #28]
 8001380:	626c      	str	r4, [r5, #36]	; 0x24
 8001382:	612a      	str	r2, [r5, #16]
 8001384:	622b      	str	r3, [r5, #32]
 8001386:	e9c5 4405 	strd	r4, r4, [r5, #20]
 800138a:	e9c5 7101 	strd	r7, r1, [r5, #4]
 800138e:	f001 ff7f 	bl	8003290 <HAL_DMA_Init>
 8001392:	b918      	cbnz	r0, 800139c <HAL_UART_MspInit+0xa0>
 8001394:	6775      	str	r5, [r6, #116]	; 0x74
 8001396:	63ae      	str	r6, [r5, #56]	; 0x38
 8001398:	b009      	add	sp, #36	; 0x24
 800139a:	bdf0      	pop	{r4, r5, r6, r7, pc}
 800139c:	f7ff fc8a 	bl	8000cb4 <Error_Handler>
 80013a0:	e7f8      	b.n	8001394 <HAL_UART_MspInit+0x98>
 80013a2:	bf00      	nop
 80013a4:	40004800 	.word	0x40004800
 80013a8:	58024400 	.word	0x58024400
 80013ac:	58020c00 	.word	0x58020c00
 80013b0:	2400b8d4 	.word	0x2400b8d4
 80013b4:	40020010 	.word	0x40020010

080013b8 <__io_putchar>:
 80013b8:	b510      	push	{r4, lr}
 80013ba:	4c08      	ldr	r4, [pc, #32]	; (80013dc <__io_putchar+0x24>)
 80013bc:	b082      	sub	sp, #8
 80013be:	9001      	str	r0, [sp, #4]
 80013c0:	4620      	mov	r0, r4
 80013c2:	f006 fff3 	bl	80083ac <HAL_UART_GetState>
 80013c6:	2824      	cmp	r0, #36	; 0x24
 80013c8:	d0fa      	beq.n	80013c0 <__io_putchar+0x8>
 80013ca:	230a      	movs	r3, #10
 80013cc:	2201      	movs	r2, #1
 80013ce:	a901      	add	r1, sp, #4
 80013d0:	4802      	ldr	r0, [pc, #8]	; (80013dc <__io_putchar+0x24>)
 80013d2:	f006 ff2f 	bl	8008234 <HAL_UART_Transmit>
 80013d6:	9801      	ldr	r0, [sp, #4]
 80013d8:	b002      	add	sp, #8
 80013da:	bd10      	pop	{r4, pc}
 80013dc:	2400b848 	.word	0x2400b848

080013e0 <HAL_InitTick>:
 80013e0:	4b0f      	ldr	r3, [pc, #60]	; (8001420 <HAL_InitTick+0x40>)
 80013e2:	781b      	ldrb	r3, [r3, #0]
 80013e4:	b90b      	cbnz	r3, 80013ea <HAL_InitTick+0xa>
 80013e6:	2001      	movs	r0, #1
 80013e8:	4770      	bx	lr
 80013ea:	f44f 727a 	mov.w	r2, #1000	; 0x3e8
 80013ee:	490d      	ldr	r1, [pc, #52]	; (8001424 <HAL_InitTick+0x44>)
 80013f0:	fbb2 f3f3 	udiv	r3, r2, r3
 80013f4:	b510      	push	{r4, lr}
 80013f6:	4604      	mov	r4, r0
 80013f8:	6808      	ldr	r0, [r1, #0]
 80013fa:	fbb0 f0f3 	udiv	r0, r0, r3
 80013fe:	f001 fceb 	bl	8002dd8 <HAL_SYSTICK_Config>
 8001402:	2c0f      	cmp	r4, #15
 8001404:	d800      	bhi.n	8001408 <HAL_InitTick+0x28>
 8001406:	b108      	cbz	r0, 800140c <HAL_InitTick+0x2c>
 8001408:	2001      	movs	r0, #1
 800140a:	bd10      	pop	{r4, pc}
 800140c:	2200      	movs	r2, #0
 800140e:	4621      	mov	r1, r4
 8001410:	f04f 30ff 	mov.w	r0, #4294967295	; 0xffffffff
 8001414:	f001 fc86 	bl	8002d24 <HAL_NVIC_SetPriority>
 8001418:	4b03      	ldr	r3, [pc, #12]	; (8001428 <HAL_InitTick+0x48>)
 800141a:	2000      	movs	r0, #0
 800141c:	601c      	str	r4, [r3, #0]
 800141e:	bd10      	pop	{r4, pc}
 8001420:	24000008 	.word	0x24000008
 8001424:	24000000 	.word	0x24000000
 8001428:	2400000c 	.word	0x2400000c

0800142c <HAL_Init>:
 800142c:	b530      	push	{r4, r5, lr}
 800142e:	2003      	movs	r0, #3
 8001430:	b083      	sub	sp, #12
 8001432:	f001 fc5b 	bl	8002cec <HAL_NVIC_SetPriorityGrouping>
 8001436:	4d12      	ldr	r5, [pc, #72]	; (8001480 <HAL_Init+0x54>)
 8001438:	f003 fe76 	bl	8005128 <HAL_RCC_GetSysClockFreq>
 800143c:	4a11      	ldr	r2, [pc, #68]	; (8001484 <HAL_Init+0x58>)
 800143e:	4912      	ldr	r1, [pc, #72]	; (8001488 <HAL_Init+0x5c>)
 8001440:	6993      	ldr	r3, [r2, #24]
 8001442:	4c12      	ldr	r4, [pc, #72]	; (800148c <HAL_Init+0x60>)
 8001444:	f3c3 2303 	ubfx	r3, r3, #8, #4
 8001448:	5ccb      	ldrb	r3, [r1, r3]
 800144a:	f003 031f 	and.w	r3, r3, #31
 800144e:	fa20 f303 	lsr.w	r3, r0, r3
 8001452:	2000      	movs	r0, #0
 8001454:	602b      	str	r3, [r5, #0]
 8001456:	6992      	ldr	r2, [r2, #24]
 8001458:	f002 020f 	and.w	r2, r2, #15
 800145c:	5c8a      	ldrb	r2, [r1, r2]
 800145e:	f002 021f 	and.w	r2, r2, #31
 8001462:	40d3      	lsrs	r3, r2
 8001464:	6023      	str	r3, [r4, #0]
 8001466:	f7ff ffbb 	bl	80013e0 <HAL_InitTick>
 800146a:	b110      	cbz	r0, 8001472 <HAL_Init+0x46>
 800146c:	2001      	movs	r0, #1
 800146e:	b003      	add	sp, #12
 8001470:	bd30      	pop	{r4, r5, pc}
 8001472:	9001      	str	r0, [sp, #4]
 8001474:	f7ff fd46 	bl	8000f04 <HAL_MspInit>
 8001478:	9801      	ldr	r0, [sp, #4]
 800147a:	b003      	add	sp, #12
 800147c:	bd30      	pop	{r4, r5, pc}
 800147e:	bf00      	nop
 8001480:	24000000 	.word	0x24000000
 8001484:	58024400 	.word	0x58024400
 8001488:	0800cf44 	.word	0x0800cf44
 800148c:	24000004 	.word	0x24000004

08001490 <HAL_IncTick>:
 8001490:	4a03      	ldr	r2, [pc, #12]	; (80014a0 <HAL_IncTick+0x10>)
 8001492:	4b04      	ldr	r3, [pc, #16]	; (80014a4 <HAL_IncTick+0x14>)
 8001494:	6811      	ldr	r1, [r2, #0]
 8001496:	781b      	ldrb	r3, [r3, #0]
 8001498:	440b      	add	r3, r1
 800149a:	6013      	str	r3, [r2, #0]
 800149c:	4770      	bx	lr
 800149e:	bf00      	nop
 80014a0:	2400b94c 	.word	0x2400b94c
 80014a4:	24000008 	.word	0x24000008

080014a8 <HAL_GetTick>:
 80014a8:	4b01      	ldr	r3, [pc, #4]	; (80014b0 <HAL_GetTick+0x8>)
 80014aa:	6818      	ldr	r0, [r3, #0]
 80014ac:	4770      	bx	lr
 80014ae:	bf00      	nop
 80014b0:	2400b94c 	.word	0x2400b94c

080014b4 <HAL_Delay>:
 80014b4:	b538      	push	{r3, r4, r5, lr}
 80014b6:	4604      	mov	r4, r0
 80014b8:	f7ff fff6 	bl	80014a8 <HAL_GetTick>
 80014bc:	4605      	mov	r5, r0
 80014be:	1c63      	adds	r3, r4, #1
 80014c0:	d002      	beq.n	80014c8 <HAL_Delay+0x14>
 80014c2:	4b04      	ldr	r3, [pc, #16]	; (80014d4 <HAL_Delay+0x20>)
 80014c4:	781b      	ldrb	r3, [r3, #0]
 80014c6:	441c      	add	r4, r3
 80014c8:	f7ff ffee 	bl	80014a8 <HAL_GetTick>
 80014cc:	1b40      	subs	r0, r0, r5
 80014ce:	42a0      	cmp	r0, r4
 80014d0:	d3fa      	bcc.n	80014c8 <HAL_Delay+0x14>
 80014d2:	bd38      	pop	{r3, r4, r5, pc}
 80014d4:	24000008 	.word	0x24000008

080014d8 <HAL_GetREVID>:
 80014d8:	4b01      	ldr	r3, [pc, #4]	; (80014e0 <HAL_GetREVID+0x8>)
 80014da:	6818      	ldr	r0, [r3, #0]
 80014dc:	0c00      	lsrs	r0, r0, #16
 80014de:	4770      	bx	lr
 80014e0:	5c001000 	.word	0x5c001000

080014e4 <HAL_EnableCompensationCell>:
 80014e4:	4a02      	ldr	r2, [pc, #8]	; (80014f0 <HAL_EnableCompensationCell+0xc>)
 80014e6:	6a13      	ldr	r3, [r2, #32]
 80014e8:	f043 0301 	orr.w	r3, r3, #1
 80014ec:	6213      	str	r3, [r2, #32]
 80014ee:	4770      	bx	lr
 80014f0:	58000400 	.word	0x58000400

080014f4 <HAL_ADC_Start_IT>:
 80014f4:	b5f8      	push	{r3, r4, r5, r6, r7, lr}
 80014f6:	4a80      	ldr	r2, [pc, #512]	; (80016f8 <HAL_ADC_Start_IT+0x204>)
 80014f8:	4604      	mov	r4, r0
 80014fa:	6803      	ldr	r3, [r0, #0]
 80014fc:	4293      	cmp	r3, r2
 80014fe:	d02e      	beq.n	800155e <HAL_ADC_Start_IT+0x6a>
 8001500:	f502 7280 	add.w	r2, r2, #256	; 0x100
 8001504:	4293      	cmp	r3, r2
 8001506:	d02a      	beq.n	800155e <HAL_ADC_Start_IT+0x6a>
 8001508:	487c      	ldr	r0, [pc, #496]	; (80016fc <HAL_ADC_Start_IT+0x208>)
 800150a:	497b      	ldr	r1, [pc, #492]	; (80016f8 <HAL_ADC_Start_IT+0x204>)
 800150c:	4a7c      	ldr	r2, [pc, #496]	; (8001700 <HAL_ADC_Start_IT+0x20c>)
 800150e:	6885      	ldr	r5, [r0, #8]
 8001510:	428b      	cmp	r3, r1
 8001512:	bf18      	it	ne
 8001514:	4293      	cmpne	r3, r2
 8001516:	d002      	beq.n	800151e <HAL_ADC_Start_IT+0x2a>
 8001518:	4a7a      	ldr	r2, [pc, #488]	; (8001704 <HAL_ADC_Start_IT+0x210>)
 800151a:	4293      	cmp	r3, r2
 800151c:	d121      	bne.n	8001562 <HAL_ADC_Start_IT+0x6e>
 800151e:	689a      	ldr	r2, [r3, #8]
 8001520:	0756      	lsls	r6, r2, #29
 8001522:	d41a      	bmi.n	800155a <HAL_ADC_Start_IT+0x66>
 8001524:	f894 2050 	ldrb.w	r2, [r4, #80]	; 0x50
 8001528:	2a01      	cmp	r2, #1
 800152a:	d016      	beq.n	800155a <HAL_ADC_Start_IT+0x66>
 800152c:	689a      	ldr	r2, [r3, #8]
 800152e:	2101      	movs	r1, #1
 8001530:	07d0      	lsls	r0, r2, #31
 8001532:	f884 1050 	strb.w	r1, [r4, #80]	; 0x50
 8001536:	d41b      	bmi.n	8001570 <HAL_ADC_Start_IT+0x7c>
 8001538:	6899      	ldr	r1, [r3, #8]
 800153a:	4a73      	ldr	r2, [pc, #460]	; (8001708 <HAL_ADC_Start_IT+0x214>)
 800153c:	4211      	tst	r1, r2
 800153e:	d067      	beq.n	8001610 <HAL_ADC_Start_IT+0x11c>
 8001540:	6d63      	ldr	r3, [r4, #84]	; 0x54
 8001542:	2001      	movs	r0, #1
 8001544:	f043 0310 	orr.w	r3, r3, #16
 8001548:	6563      	str	r3, [r4, #84]	; 0x54
 800154a:	6da3      	ldr	r3, [r4, #88]	; 0x58
 800154c:	f043 0301 	orr.w	r3, r3, #1
 8001550:	65a3      	str	r3, [r4, #88]	; 0x58
 8001552:	2300      	movs	r3, #0
 8001554:	f884 3050 	strb.w	r3, [r4, #80]	; 0x50
 8001558:	bdf8      	pop	{r3, r4, r5, r6, r7, pc}
 800155a:	2002      	movs	r0, #2
 800155c:	bdf8      	pop	{r3, r4, r5, r6, r7, pc}
 800155e:	486b      	ldr	r0, [pc, #428]	; (800170c <HAL_ADC_Start_IT+0x218>)
 8001560:	e7d3      	b.n	800150a <HAL_ADC_Start_IT+0x16>
 8001562:	f240 61bc 	movw	r1, #1724	; 0x6bc
 8001566:	486a      	ldr	r0, [pc, #424]	; (8001710 <HAL_ADC_Start_IT+0x21c>)
 8001568:	f7ff fc9a 	bl	8000ea0 <assert_failed>
 800156c:	6823      	ldr	r3, [r4, #0]
 800156e:	e7d6      	b.n	800151e <HAL_ADC_Start_IT+0x2a>
 8001570:	6d60      	ldr	r0, [r4, #84]	; 0x54
 8001572:	f005 051f 	and.w	r5, r5, #31
 8001576:	4a67      	ldr	r2, [pc, #412]	; (8001714 <HAL_ADC_Start_IT+0x220>)
 8001578:	4961      	ldr	r1, [pc, #388]	; (8001700 <HAL_ADC_Start_IT+0x20c>)
 800157a:	4002      	ands	r2, r0
 800157c:	428b      	cmp	r3, r1
 800157e:	f442 7280 	orr.w	r2, r2, #256	; 0x100
 8001582:	6562      	str	r2, [r4, #84]	; 0x54
 8001584:	461a      	mov	r2, r3
 8001586:	d07d      	beq.n	8001684 <HAL_ADC_Start_IT+0x190>
 8001588:	6d61      	ldr	r1, [r4, #84]	; 0x54
 800158a:	f421 1180 	bic.w	r1, r1, #1048576	; 0x100000
 800158e:	6561      	str	r1, [r4, #84]	; 0x54
 8001590:	6d61      	ldr	r1, [r4, #84]	; 0x54
 8001592:	f411 5180 	ands.w	r1, r1, #4096	; 0x1000
 8001596:	f000 809b 	beq.w	80016d0 <HAL_ADC_Start_IT+0x1dc>
 800159a:	6da1      	ldr	r1, [r4, #88]	; 0x58
 800159c:	f021 0106 	bic.w	r1, r1, #6
 80015a0:	65a1      	str	r1, [r4, #88]	; 0x58
 80015a2:	211c      	movs	r1, #28
 80015a4:	6926      	ldr	r6, [r4, #16]
 80015a6:	2000      	movs	r0, #0
 80015a8:	6011      	str	r1, [r2, #0]
 80015aa:	2e08      	cmp	r6, #8
 80015ac:	6851      	ldr	r1, [r2, #4]
 80015ae:	f884 0050 	strb.w	r0, [r4, #80]	; 0x50
 80015b2:	f021 011c 	bic.w	r1, r1, #28
 80015b6:	6051      	str	r1, [r2, #4]
 80015b8:	6851      	ldr	r1, [r2, #4]
 80015ba:	bf0c      	ite	eq
 80015bc:	f041 0108 	orreq.w	r1, r1, #8
 80015c0:	f041 0104 	orrne.w	r1, r1, #4
 80015c4:	6051      	str	r1, [r2, #4]
 80015c6:	6b21      	ldr	r1, [r4, #48]	; 0x30
 80015c8:	b919      	cbnz	r1, 80015d2 <HAL_ADC_Start_IT+0xde>
 80015ca:	6851      	ldr	r1, [r2, #4]
 80015cc:	f041 0110 	orr.w	r1, r1, #16
 80015d0:	6051      	str	r1, [r2, #4]
 80015d2:	4293      	cmp	r3, r2
 80015d4:	d061      	beq.n	800169a <HAL_ADC_Start_IT+0x1a6>
 80015d6:	2d09      	cmp	r5, #9
 80015d8:	d959      	bls.n	800168e <HAL_ADC_Start_IT+0x19a>
 80015da:	6d61      	ldr	r1, [r4, #84]	; 0x54
 80015dc:	f441 1180 	orr.w	r1, r1, #1048576	; 0x100000
 80015e0:	6561      	str	r1, [r4, #84]	; 0x54
 80015e2:	68d8      	ldr	r0, [r3, #12]
 80015e4:	f010 7000 	ands.w	r0, r0, #33554432	; 0x2000000
 80015e8:	d0b6      	beq.n	8001558 <HAL_ADC_Start_IT+0x64>
 80015ea:	6d63      	ldr	r3, [r4, #84]	; 0x54
 80015ec:	2e08      	cmp	r6, #8
 80015ee:	f04f 0000 	mov.w	r0, #0
 80015f2:	f423 5340 	bic.w	r3, r3, #12288	; 0x3000
 80015f6:	f443 5380 	orr.w	r3, r3, #4096	; 0x1000
 80015fa:	6563      	str	r3, [r4, #84]	; 0x54
 80015fc:	6853      	ldr	r3, [r2, #4]
 80015fe:	d173      	bne.n	80016e8 <HAL_ADC_Start_IT+0x1f4>
 8001600:	f023 0320 	bic.w	r3, r3, #32
 8001604:	6053      	str	r3, [r2, #4]
 8001606:	6853      	ldr	r3, [r2, #4]
 8001608:	f043 0340 	orr.w	r3, r3, #64	; 0x40
 800160c:	6053      	str	r3, [r2, #4]
 800160e:	bdf8      	pop	{r3, r4, r5, r6, r7, pc}
 8001610:	6899      	ldr	r1, [r3, #8]
 8001612:	4a41      	ldr	r2, [pc, #260]	; (8001718 <HAL_ADC_Start_IT+0x224>)
 8001614:	400a      	ands	r2, r1
 8001616:	f042 0201 	orr.w	r2, r2, #1
 800161a:	609a      	str	r2, [r3, #8]
 800161c:	f7ff ff44 	bl	80014a8 <HAL_GetTick>
 8001620:	6823      	ldr	r3, [r4, #0]
 8001622:	4a35      	ldr	r2, [pc, #212]	; (80016f8 <HAL_ADC_Start_IT+0x204>)
 8001624:	4606      	mov	r6, r0
 8001626:	4293      	cmp	r3, r2
 8001628:	d05c      	beq.n	80016e4 <HAL_ADC_Start_IT+0x1f0>
 800162a:	f502 7280 	add.w	r2, r2, #256	; 0x100
 800162e:	4293      	cmp	r3, r2
 8001630:	d058      	beq.n	80016e4 <HAL_ADC_Start_IT+0x1f0>
 8001632:	4a32      	ldr	r2, [pc, #200]	; (80016fc <HAL_ADC_Start_IT+0x208>)
 8001634:	6892      	ldr	r2, [r2, #8]
 8001636:	06d1      	lsls	r1, r2, #27
 8001638:	d002      	beq.n	8001640 <HAL_ADC_Start_IT+0x14c>
 800163a:	4a31      	ldr	r2, [pc, #196]	; (8001700 <HAL_ADC_Start_IT+0x20c>)
 800163c:	4293      	cmp	r3, r2
 800163e:	d019      	beq.n	8001674 <HAL_ADC_Start_IT+0x180>
 8001640:	4f35      	ldr	r7, [pc, #212]	; (8001718 <HAL_ADC_Start_IT+0x224>)
 8001642:	e00b      	b.n	800165c <HAL_ADC_Start_IT+0x168>
 8001644:	689a      	ldr	r2, [r3, #8]
 8001646:	403a      	ands	r2, r7
 8001648:	f042 0201 	orr.w	r2, r2, #1
 800164c:	609a      	str	r2, [r3, #8]
 800164e:	f7ff ff2b 	bl	80014a8 <HAL_GetTick>
 8001652:	1b80      	subs	r0, r0, r6
 8001654:	2802      	cmp	r0, #2
 8001656:	f63f af73 	bhi.w	8001540 <HAL_ADC_Start_IT+0x4c>
 800165a:	6823      	ldr	r3, [r4, #0]
 800165c:	681a      	ldr	r2, [r3, #0]
 800165e:	07d0      	lsls	r0, r2, #31
 8001660:	d486      	bmi.n	8001570 <HAL_ADC_Start_IT+0x7c>
 8001662:	689a      	ldr	r2, [r3, #8]
 8001664:	07d2      	lsls	r2, r2, #31
 8001666:	d5ed      	bpl.n	8001644 <HAL_ADC_Start_IT+0x150>
 8001668:	f7ff ff1e 	bl	80014a8 <HAL_GetTick>
 800166c:	1b80      	subs	r0, r0, r6
 800166e:	2802      	cmp	r0, #2
 8001670:	d9f3      	bls.n	800165a <HAL_ADC_Start_IT+0x166>
 8001672:	e765      	b.n	8001540 <HAL_ADC_Start_IT+0x4c>
 8001674:	6d61      	ldr	r1, [r4, #84]	; 0x54
 8001676:	f005 051f 	and.w	r5, r5, #31
 800167a:	4b26      	ldr	r3, [pc, #152]	; (8001714 <HAL_ADC_Start_IT+0x220>)
 800167c:	400b      	ands	r3, r1
 800167e:	f443 7380 	orr.w	r3, r3, #256	; 0x100
 8001682:	6563      	str	r3, [r4, #84]	; 0x54
 8001684:	4b1c      	ldr	r3, [pc, #112]	; (80016f8 <HAL_ADC_Start_IT+0x204>)
 8001686:	2d00      	cmp	r5, #0
 8001688:	f43f af7e 	beq.w	8001588 <HAL_ADC_Start_IT+0x94>
 800168c:	e780      	b.n	8001590 <HAL_ADC_Start_IT+0x9c>
 800168e:	f240 2121 	movw	r1, #545	; 0x221
 8001692:	fa21 f505 	lsr.w	r5, r1, r5
 8001696:	07e9      	lsls	r1, r5, #31
 8001698:	d59f      	bpl.n	80015da <HAL_ADC_Start_IT+0xe6>
 800169a:	68d3      	ldr	r3, [r2, #12]
 800169c:	019b      	lsls	r3, r3, #6
 800169e:	d50f      	bpl.n	80016c0 <HAL_ADC_Start_IT+0x1cc>
 80016a0:	6d63      	ldr	r3, [r4, #84]	; 0x54
 80016a2:	2e08      	cmp	r6, #8
 80016a4:	f423 5340 	bic.w	r3, r3, #12288	; 0x3000
 80016a8:	f443 5380 	orr.w	r3, r3, #4096	; 0x1000
 80016ac:	6563      	str	r3, [r4, #84]	; 0x54
 80016ae:	6853      	ldr	r3, [r2, #4]
 80016b0:	d110      	bne.n	80016d4 <HAL_ADC_Start_IT+0x1e0>
 80016b2:	f023 0320 	bic.w	r3, r3, #32
 80016b6:	6053      	str	r3, [r2, #4]
 80016b8:	6853      	ldr	r3, [r2, #4]
 80016ba:	f043 0340 	orr.w	r3, r3, #64	; 0x40
 80016be:	6053      	str	r3, [r2, #4]
 80016c0:	6891      	ldr	r1, [r2, #8]
 80016c2:	2000      	movs	r0, #0
 80016c4:	4b14      	ldr	r3, [pc, #80]	; (8001718 <HAL_ADC_Start_IT+0x224>)
 80016c6:	400b      	ands	r3, r1
 80016c8:	f043 0304 	orr.w	r3, r3, #4
 80016cc:	6093      	str	r3, [r2, #8]
 80016ce:	bdf8      	pop	{r3, r4, r5, r6, r7, pc}
 80016d0:	65a1      	str	r1, [r4, #88]	; 0x58
 80016d2:	e766      	b.n	80015a2 <HAL_ADC_Start_IT+0xae>
 80016d4:	f023 0340 	bic.w	r3, r3, #64	; 0x40
 80016d8:	6053      	str	r3, [r2, #4]
 80016da:	6853      	ldr	r3, [r2, #4]
 80016dc:	f043 0320 	orr.w	r3, r3, #32
 80016e0:	6053      	str	r3, [r2, #4]
 80016e2:	e7ed      	b.n	80016c0 <HAL_ADC_Start_IT+0x1cc>
 80016e4:	4a09      	ldr	r2, [pc, #36]	; (800170c <HAL_ADC_Start_IT+0x218>)
 80016e6:	e7a5      	b.n	8001634 <HAL_ADC_Start_IT+0x140>
 80016e8:	f023 0340 	bic.w	r3, r3, #64	; 0x40
 80016ec:	6053      	str	r3, [r2, #4]
 80016ee:	6853      	ldr	r3, [r2, #4]
 80016f0:	f043 0320 	orr.w	r3, r3, #32
 80016f4:	6053      	str	r3, [r2, #4]
 80016f6:	bdf8      	pop	{r3, r4, r5, r6, r7, pc}
 80016f8:	40022000 	.word	0x40022000
 80016fc:	58026300 	.word	0x58026300
 8001700:	40022100 	.word	0x40022100
 8001704:	58026000 	.word	0x58026000
 8001708:	8000003f 	.word	0x8000003f
 800170c:	40022300 	.word	0x40022300
 8001710:	0800cf54 	.word	0x0800cf54
 8001714:	fffff0fe 	.word	0xfffff0fe
 8001718:	7fffffc0 	.word	0x7fffffc0

0800171c <HAL_ADC_GetValue>:
 800171c:	490a      	ldr	r1, [pc, #40]	; (8001748 <HAL_ADC_GetValue+0x2c>)
 800171e:	4a0b      	ldr	r2, [pc, #44]	; (800174c <HAL_ADC_GetValue+0x30>)
 8001720:	6803      	ldr	r3, [r0, #0]
 8001722:	428b      	cmp	r3, r1
 8001724:	bf18      	it	ne
 8001726:	4293      	cmpne	r3, r2
 8001728:	d002      	beq.n	8001730 <HAL_ADC_GetValue+0x14>
 800172a:	4a09      	ldr	r2, [pc, #36]	; (8001750 <HAL_ADC_GetValue+0x34>)
 800172c:	4293      	cmp	r3, r2
 800172e:	d101      	bne.n	8001734 <HAL_ADC_GetValue+0x18>
 8001730:	6c18      	ldr	r0, [r3, #64]	; 0x40
 8001732:	4770      	bx	lr
 8001734:	b510      	push	{r4, lr}
 8001736:	4604      	mov	r4, r0
 8001738:	f640 0174 	movw	r1, #2164	; 0x874
 800173c:	4805      	ldr	r0, [pc, #20]	; (8001754 <HAL_ADC_GetValue+0x38>)
 800173e:	f7ff fbaf 	bl	8000ea0 <assert_failed>
 8001742:	6823      	ldr	r3, [r4, #0]
 8001744:	6c18      	ldr	r0, [r3, #64]	; 0x40
 8001746:	bd10      	pop	{r4, pc}
 8001748:	40022000 	.word	0x40022000
 800174c:	40022100 	.word	0x40022100
 8001750:	58026000 	.word	0x58026000
 8001754:	0800cf54 	.word	0x0800cf54

08001758 <HAL_ADC_LevelOutOfWindowCallback>:
 8001758:	4770      	bx	lr
 800175a:	bf00      	nop

0800175c <HAL_ADC_ErrorCallback>:
 800175c:	4770      	bx	lr
 800175e:	bf00      	nop

08001760 <HAL_ADC_IRQHandler>:
 8001760:	b5f8      	push	{r3, r4, r5, r6, r7, lr}
 8001762:	4aa1      	ldr	r2, [pc, #644]	; (80019e8 <HAL_ADC_IRQHandler+0x288>)
 8001764:	4604      	mov	r4, r0
 8001766:	6803      	ldr	r3, [r0, #0]
 8001768:	4293      	cmp	r3, r2
 800176a:	681d      	ldr	r5, [r3, #0]
 800176c:	685e      	ldr	r6, [r3, #4]
 800176e:	f000 8096 	beq.w	800189e <HAL_ADC_IRQHandler+0x13e>
 8001772:	f502 7280 	add.w	r2, r2, #256	; 0x100
 8001776:	4293      	cmp	r3, r2
 8001778:	f000 8091 	beq.w	800189e <HAL_ADC_IRQHandler+0x13e>
 800177c:	4a9b      	ldr	r2, [pc, #620]	; (80019ec <HAL_ADC_IRQHandler+0x28c>)
 800177e:	6897      	ldr	r7, [r2, #8]
 8001780:	4999      	ldr	r1, [pc, #612]	; (80019e8 <HAL_ADC_IRQHandler+0x288>)
 8001782:	4a9b      	ldr	r2, [pc, #620]	; (80019f0 <HAL_ADC_IRQHandler+0x290>)
 8001784:	f007 071f 	and.w	r7, r7, #31
 8001788:	428b      	cmp	r3, r1
 800178a:	bf18      	it	ne
 800178c:	4293      	cmpne	r3, r2
 800178e:	d003      	beq.n	8001798 <HAL_ADC_IRQHandler+0x38>
 8001790:	4a98      	ldr	r2, [pc, #608]	; (80019f4 <HAL_ADC_IRQHandler+0x294>)
 8001792:	4293      	cmp	r3, r2
 8001794:	f040 808b 	bne.w	80018ae <HAL_ADC_IRQHandler+0x14e>
 8001798:	6923      	ldr	r3, [r4, #16]
 800179a:	2b04      	cmp	r3, #4
 800179c:	d001      	beq.n	80017a2 <HAL_ADC_IRQHandler+0x42>
 800179e:	2b08      	cmp	r3, #8
 80017a0:	d17f      	bne.n	80018a2 <HAL_ADC_IRQHandler+0x142>
 80017a2:	07a8      	lsls	r0, r5, #30
 80017a4:	d502      	bpl.n	80017ac <HAL_ADC_IRQHandler+0x4c>
 80017a6:	07b1      	lsls	r1, r6, #30
 80017a8:	f100 80aa 	bmi.w	8001900 <HAL_ADC_IRQHandler+0x1a0>
 80017ac:	076b      	lsls	r3, r5, #29
 80017ae:	d56b      	bpl.n	8001888 <HAL_ADC_IRQHandler+0x128>
 80017b0:	0770      	lsls	r0, r6, #29
 80017b2:	d569      	bpl.n	8001888 <HAL_ADC_IRQHandler+0x128>
 80017b4:	6d63      	ldr	r3, [r4, #84]	; 0x54
 80017b6:	06db      	lsls	r3, r3, #27
 80017b8:	d403      	bmi.n	80017c2 <HAL_ADC_IRQHandler+0x62>
 80017ba:	6d63      	ldr	r3, [r4, #84]	; 0x54
 80017bc:	f443 7300 	orr.w	r3, r3, #512	; 0x200
 80017c0:	6563      	str	r3, [r4, #84]	; 0x54
 80017c2:	6823      	ldr	r3, [r4, #0]
 80017c4:	68da      	ldr	r2, [r3, #12]
 80017c6:	f412 6f40 	tst.w	r2, #3072	; 0xc00
 80017ca:	d11c      	bne.n	8001806 <HAL_ADC_IRQHandler+0xa6>
 80017cc:	4a88      	ldr	r2, [pc, #544]	; (80019f0 <HAL_ADC_IRQHandler+0x290>)
 80017ce:	4293      	cmp	r3, r2
 80017d0:	f000 80fa 	beq.w	80019c8 <HAL_ADC_IRQHandler+0x268>
 80017d4:	68da      	ldr	r2, [r3, #12]
 80017d6:	0490      	lsls	r0, r2, #18
 80017d8:	d415      	bmi.n	8001806 <HAL_ADC_IRQHandler+0xa6>
 80017da:	681a      	ldr	r2, [r3, #0]
 80017dc:	0711      	lsls	r1, r2, #28
 80017de:	d512      	bpl.n	8001806 <HAL_ADC_IRQHandler+0xa6>
 80017e0:	689a      	ldr	r2, [r3, #8]
 80017e2:	0752      	lsls	r2, r2, #29
 80017e4:	f100 811a 	bmi.w	8001a1c <HAL_ADC_IRQHandler+0x2bc>
 80017e8:	685a      	ldr	r2, [r3, #4]
 80017ea:	f022 020c 	bic.w	r2, r2, #12
 80017ee:	605a      	str	r2, [r3, #4]
 80017f0:	6d63      	ldr	r3, [r4, #84]	; 0x54
 80017f2:	f423 7380 	bic.w	r3, r3, #256	; 0x100
 80017f6:	6563      	str	r3, [r4, #84]	; 0x54
 80017f8:	6d63      	ldr	r3, [r4, #84]	; 0x54
 80017fa:	04db      	lsls	r3, r3, #19
 80017fc:	d403      	bmi.n	8001806 <HAL_ADC_IRQHandler+0xa6>
 80017fe:	6d63      	ldr	r3, [r4, #84]	; 0x54
 8001800:	f043 0301 	orr.w	r3, r3, #1
 8001804:	6563      	str	r3, [r4, #84]	; 0x54
 8001806:	4620      	mov	r0, r4
 8001808:	f008 fc98 	bl	800a13c <HAL_ADC_ConvCpltCallback>
 800180c:	6823      	ldr	r3, [r4, #0]
 800180e:	220c      	movs	r2, #12
 8001810:	601a      	str	r2, [r3, #0]
 8001812:	06a8      	lsls	r0, r5, #26
 8001814:	d53e      	bpl.n	8001894 <HAL_ADC_IRQHandler+0x134>
 8001816:	06b1      	lsls	r1, r6, #26
 8001818:	d53c      	bpl.n	8001894 <HAL_ADC_IRQHandler+0x134>
 800181a:	6d63      	ldr	r3, [r4, #84]	; 0x54
 800181c:	06d8      	lsls	r0, r3, #27
 800181e:	d403      	bmi.n	8001828 <HAL_ADC_IRQHandler+0xc8>
 8001820:	6d63      	ldr	r3, [r4, #84]	; 0x54
 8001822:	f443 5300 	orr.w	r3, r3, #8192	; 0x2000
 8001826:	6563      	str	r3, [r4, #84]	; 0x54
 8001828:	6823      	ldr	r3, [r4, #0]
 800182a:	4871      	ldr	r0, [pc, #452]	; (80019f0 <HAL_ADC_IRQHandler+0x290>)
 800182c:	6cda      	ldr	r2, [r3, #76]	; 0x4c
 800182e:	4283      	cmp	r3, r0
 8001830:	68d9      	ldr	r1, [r3, #12]
 8001832:	f402 72c0 	and.w	r2, r2, #384	; 0x180
 8001836:	f401 6140 	and.w	r1, r1, #3072	; 0xc00
 800183a:	d06f      	beq.n	800191c <HAL_ADC_IRQHandler+0x1bc>
 800183c:	68d8      	ldr	r0, [r3, #12]
 800183e:	2a00      	cmp	r2, #0
 8001840:	d075      	beq.n	800192e <HAL_ADC_IRQHandler+0x1ce>
 8001842:	f000 7200 	and.w	r2, r0, #33554432	; 0x2000000
 8001846:	430a      	orrs	r2, r1
 8001848:	f000 80c3 	beq.w	80019d2 <HAL_ADC_IRQHandler+0x272>
 800184c:	4620      	mov	r0, r4
 800184e:	f001 f9a3 	bl	8002b98 <HAL_ADCEx_InjectedConvCpltCallback>
 8001852:	6823      	ldr	r3, [r4, #0]
 8001854:	2260      	movs	r2, #96	; 0x60
 8001856:	601a      	str	r2, [r3, #0]
 8001858:	0628      	lsls	r0, r5, #24
 800185a:	d502      	bpl.n	8001862 <HAL_ADC_IRQHandler+0x102>
 800185c:	0631      	lsls	r1, r6, #24
 800185e:	f100 809c 	bmi.w	800199a <HAL_ADC_IRQHandler+0x23a>
 8001862:	05ea      	lsls	r2, r5, #23
 8001864:	d502      	bpl.n	800186c <HAL_ADC_IRQHandler+0x10c>
 8001866:	05f3      	lsls	r3, r6, #23
 8001868:	f100 80a2 	bmi.w	80019b0 <HAL_ADC_IRQHandler+0x250>
 800186c:	05a8      	lsls	r0, r5, #22
 800186e:	d502      	bpl.n	8001876 <HAL_ADC_IRQHandler+0x116>
 8001870:	05b1      	lsls	r1, r6, #22
 8001872:	f100 8086 	bmi.w	8001982 <HAL_ADC_IRQHandler+0x222>
 8001876:	06ea      	lsls	r2, r5, #27
 8001878:	d501      	bpl.n	800187e <HAL_ADC_IRQHandler+0x11e>
 800187a:	06f3      	lsls	r3, r6, #27
 800187c:	d41d      	bmi.n	80018ba <HAL_ADC_IRQHandler+0x15a>
 800187e:	0568      	lsls	r0, r5, #21
 8001880:	d501      	bpl.n	8001886 <HAL_ADC_IRQHandler+0x126>
 8001882:	0571      	lsls	r1, r6, #21
 8001884:	d46c      	bmi.n	8001960 <HAL_ADC_IRQHandler+0x200>
 8001886:	bdf8      	pop	{r3, r4, r5, r6, r7, pc}
 8001888:	0729      	lsls	r1, r5, #28
 800188a:	d5c2      	bpl.n	8001812 <HAL_ADC_IRQHandler+0xb2>
 800188c:	0732      	lsls	r2, r6, #28
 800188e:	d491      	bmi.n	80017b4 <HAL_ADC_IRQHandler+0x54>
 8001890:	06a8      	lsls	r0, r5, #26
 8001892:	d4c0      	bmi.n	8001816 <HAL_ADC_IRQHandler+0xb6>
 8001894:	066a      	lsls	r2, r5, #25
 8001896:	d5df      	bpl.n	8001858 <HAL_ADC_IRQHandler+0xf8>
 8001898:	0673      	lsls	r3, r6, #25
 800189a:	d5dd      	bpl.n	8001858 <HAL_ADC_IRQHandler+0xf8>
 800189c:	e7bd      	b.n	800181a <HAL_ADC_IRQHandler+0xba>
 800189e:	4a56      	ldr	r2, [pc, #344]	; (80019f8 <HAL_ADC_IRQHandler+0x298>)
 80018a0:	e76d      	b.n	800177e <HAL_ADC_IRQHandler+0x1e>
 80018a2:	f640 018f 	movw	r1, #2191	; 0x88f
 80018a6:	4855      	ldr	r0, [pc, #340]	; (80019fc <HAL_ADC_IRQHandler+0x29c>)
 80018a8:	f7ff fafa 	bl	8000ea0 <assert_failed>
 80018ac:	e779      	b.n	80017a2 <HAL_ADC_IRQHandler+0x42>
 80018ae:	f640 018e 	movw	r1, #2190	; 0x88e
 80018b2:	4852      	ldr	r0, [pc, #328]	; (80019fc <HAL_ADC_IRQHandler+0x29c>)
 80018b4:	f7ff faf4 	bl	8000ea0 <assert_failed>
 80018b8:	e76e      	b.n	8001798 <HAL_ADC_IRQHandler+0x38>
 80018ba:	6b23      	ldr	r3, [r4, #48]	; 0x30
 80018bc:	b18b      	cbz	r3, 80018e2 <HAL_ADC_IRQHandler+0x182>
 80018be:	6823      	ldr	r3, [r4, #0]
 80018c0:	2f00      	cmp	r7, #0
 80018c2:	f000 809d 	beq.w	8001a00 <HAL_ADC_IRQHandler+0x2a0>
 80018c6:	4a48      	ldr	r2, [pc, #288]	; (80019e8 <HAL_ADC_IRQHandler+0x288>)
 80018c8:	4293      	cmp	r3, r2
 80018ca:	f000 80b0 	beq.w	8001a2e <HAL_ADC_IRQHandler+0x2ce>
 80018ce:	f502 7280 	add.w	r2, r2, #256	; 0x100
 80018d2:	4293      	cmp	r3, r2
 80018d4:	f000 80ab 	beq.w	8001a2e <HAL_ADC_IRQHandler+0x2ce>
 80018d8:	4a44      	ldr	r2, [pc, #272]	; (80019ec <HAL_ADC_IRQHandler+0x28c>)
 80018da:	6892      	ldr	r2, [r2, #8]
 80018dc:	f412 4f40 	tst.w	r2, #49152	; 0xc000
 80018e0:	d00b      	beq.n	80018fa <HAL_ADC_IRQHandler+0x19a>
 80018e2:	6d63      	ldr	r3, [r4, #84]	; 0x54
 80018e4:	4620      	mov	r0, r4
 80018e6:	f443 6380 	orr.w	r3, r3, #1024	; 0x400
 80018ea:	6563      	str	r3, [r4, #84]	; 0x54
 80018ec:	6da3      	ldr	r3, [r4, #88]	; 0x58
 80018ee:	f043 0302 	orr.w	r3, r3, #2
 80018f2:	65a3      	str	r3, [r4, #88]	; 0x58
 80018f4:	f7ff ff32 	bl	800175c <HAL_ADC_ErrorCallback>
 80018f8:	6823      	ldr	r3, [r4, #0]
 80018fa:	2210      	movs	r2, #16
 80018fc:	601a      	str	r2, [r3, #0]
 80018fe:	e7be      	b.n	800187e <HAL_ADC_IRQHandler+0x11e>
 8001900:	6d63      	ldr	r3, [r4, #84]	; 0x54
 8001902:	06da      	lsls	r2, r3, #27
 8001904:	d403      	bmi.n	800190e <HAL_ADC_IRQHandler+0x1ae>
 8001906:	6d63      	ldr	r3, [r4, #84]	; 0x54
 8001908:	f443 6300 	orr.w	r3, r3, #2048	; 0x800
 800190c:	6563      	str	r3, [r4, #84]	; 0x54
 800190e:	4620      	mov	r0, r4
 8001910:	f001 f94a 	bl	8002ba8 <HAL_ADCEx_EndOfSamplingCallback>
 8001914:	6823      	ldr	r3, [r4, #0]
 8001916:	2202      	movs	r2, #2
 8001918:	601a      	str	r2, [r3, #0]
 800191a:	e747      	b.n	80017ac <HAL_ADC_IRQHandler+0x4c>
 800191c:	1fb8      	subs	r0, r7, #6
 800191e:	2801      	cmp	r0, #1
 8001920:	d98c      	bls.n	800183c <HAL_ADC_IRQHandler+0xdc>
 8001922:	2f00      	cmp	r7, #0
 8001924:	d08a      	beq.n	800183c <HAL_ADC_IRQHandler+0xdc>
 8001926:	4830      	ldr	r0, [pc, #192]	; (80019e8 <HAL_ADC_IRQHandler+0x288>)
 8001928:	68c0      	ldr	r0, [r0, #12]
 800192a:	2a00      	cmp	r2, #0
 800192c:	d189      	bne.n	8001842 <HAL_ADC_IRQHandler+0xe2>
 800192e:	681a      	ldr	r2, [r3, #0]
 8001930:	0652      	lsls	r2, r2, #25
 8001932:	d58b      	bpl.n	800184c <HAL_ADC_IRQHandler+0xec>
 8001934:	0281      	lsls	r1, r0, #10
 8001936:	d489      	bmi.n	800184c <HAL_ADC_IRQHandler+0xec>
 8001938:	689a      	ldr	r2, [r3, #8]
 800193a:	0712      	lsls	r2, r2, #28
 800193c:	d465      	bmi.n	8001a0a <HAL_ADC_IRQHandler+0x2aa>
 800193e:	685a      	ldr	r2, [r3, #4]
 8001940:	f022 0260 	bic.w	r2, r2, #96	; 0x60
 8001944:	605a      	str	r2, [r3, #4]
 8001946:	6d63      	ldr	r3, [r4, #84]	; 0x54
 8001948:	f423 5380 	bic.w	r3, r3, #4096	; 0x1000
 800194c:	6563      	str	r3, [r4, #84]	; 0x54
 800194e:	6d63      	ldr	r3, [r4, #84]	; 0x54
 8001950:	05db      	lsls	r3, r3, #23
 8001952:	f53f af7b 	bmi.w	800184c <HAL_ADC_IRQHandler+0xec>
 8001956:	6d63      	ldr	r3, [r4, #84]	; 0x54
 8001958:	f043 0301 	orr.w	r3, r3, #1
 800195c:	6563      	str	r3, [r4, #84]	; 0x54
 800195e:	e775      	b.n	800184c <HAL_ADC_IRQHandler+0xec>
 8001960:	6d63      	ldr	r3, [r4, #84]	; 0x54
 8001962:	f44f 6180 	mov.w	r1, #1024	; 0x400
 8001966:	6822      	ldr	r2, [r4, #0]
 8001968:	4620      	mov	r0, r4
 800196a:	f443 4380 	orr.w	r3, r3, #16384	; 0x4000
 800196e:	6563      	str	r3, [r4, #84]	; 0x54
 8001970:	6da3      	ldr	r3, [r4, #88]	; 0x58
 8001972:	f043 0308 	orr.w	r3, r3, #8
 8001976:	65a3      	str	r3, [r4, #88]	; 0x58
 8001978:	6011      	str	r1, [r2, #0]
 800197a:	e8bd 40f8 	ldmia.w	sp!, {r3, r4, r5, r6, r7, lr}
 800197e:	f001 b90d 	b.w	8002b9c <HAL_ADCEx_InjectedQueueOverflowCallback>
 8001982:	6d63      	ldr	r3, [r4, #84]	; 0x54
 8001984:	4620      	mov	r0, r4
 8001986:	f443 2380 	orr.w	r3, r3, #262144	; 0x40000
 800198a:	6563      	str	r3, [r4, #84]	; 0x54
 800198c:	f001 f90a 	bl	8002ba4 <HAL_ADCEx_LevelOutOfWindow3Callback>
 8001990:	6823      	ldr	r3, [r4, #0]
 8001992:	f44f 7200 	mov.w	r2, #512	; 0x200
 8001996:	601a      	str	r2, [r3, #0]
 8001998:	e76d      	b.n	8001876 <HAL_ADC_IRQHandler+0x116>
 800199a:	6d63      	ldr	r3, [r4, #84]	; 0x54
 800199c:	4620      	mov	r0, r4
 800199e:	f443 3380 	orr.w	r3, r3, #65536	; 0x10000
 80019a2:	6563      	str	r3, [r4, #84]	; 0x54
 80019a4:	f7ff fed8 	bl	8001758 <HAL_ADC_LevelOutOfWindowCallback>
 80019a8:	6823      	ldr	r3, [r4, #0]
 80019aa:	2280      	movs	r2, #128	; 0x80
 80019ac:	601a      	str	r2, [r3, #0]
 80019ae:	e758      	b.n	8001862 <HAL_ADC_IRQHandler+0x102>
 80019b0:	6d63      	ldr	r3, [r4, #84]	; 0x54
 80019b2:	4620      	mov	r0, r4
 80019b4:	f443 3300 	orr.w	r3, r3, #131072	; 0x20000
 80019b8:	6563      	str	r3, [r4, #84]	; 0x54
 80019ba:	f001 f8f1 	bl	8002ba0 <HAL_ADCEx_LevelOutOfWindow2Callback>
 80019be:	6823      	ldr	r3, [r4, #0]
 80019c0:	f44f 7280 	mov.w	r2, #256	; 0x100
 80019c4:	601a      	str	r2, [r3, #0]
 80019c6:	e751      	b.n	800186c <HAL_ADC_IRQHandler+0x10c>
 80019c8:	2f09      	cmp	r7, #9
 80019ca:	d906      	bls.n	80019da <HAL_ADC_IRQHandler+0x27a>
 80019cc:	4a06      	ldr	r2, [pc, #24]	; (80019e8 <HAL_ADC_IRQHandler+0x288>)
 80019ce:	68d2      	ldr	r2, [r2, #12]
 80019d0:	e701      	b.n	80017d6 <HAL_ADC_IRQHandler+0x76>
 80019d2:	0481      	lsls	r1, r0, #18
 80019d4:	f53f af3a 	bmi.w	800184c <HAL_ADC_IRQHandler+0xec>
 80019d8:	e7a9      	b.n	800192e <HAL_ADC_IRQHandler+0x1ce>
 80019da:	f240 2221 	movw	r2, #545	; 0x221
 80019de:	40fa      	lsrs	r2, r7
 80019e0:	07d2      	lsls	r2, r2, #31
 80019e2:	f53f aef7 	bmi.w	80017d4 <HAL_ADC_IRQHandler+0x74>
 80019e6:	e7f1      	b.n	80019cc <HAL_ADC_IRQHandler+0x26c>
 80019e8:	40022000 	.word	0x40022000
 80019ec:	58026300 	.word	0x58026300
 80019f0:	40022100 	.word	0x40022100
 80019f4:	58026000 	.word	0x58026000
 80019f8:	40022300 	.word	0x40022300
 80019fc:	0800cf54 	.word	0x0800cf54
 8001a00:	68da      	ldr	r2, [r3, #12]
 8001a02:	0797      	lsls	r7, r2, #30
 8001a04:	f43f af79 	beq.w	80018fa <HAL_ADC_IRQHandler+0x19a>
 8001a08:	e76b      	b.n	80018e2 <HAL_ADC_IRQHandler+0x182>
 8001a0a:	6d63      	ldr	r3, [r4, #84]	; 0x54
 8001a0c:	f043 0310 	orr.w	r3, r3, #16
 8001a10:	6563      	str	r3, [r4, #84]	; 0x54
 8001a12:	6da3      	ldr	r3, [r4, #88]	; 0x58
 8001a14:	f043 0301 	orr.w	r3, r3, #1
 8001a18:	65a3      	str	r3, [r4, #88]	; 0x58
 8001a1a:	e717      	b.n	800184c <HAL_ADC_IRQHandler+0xec>
 8001a1c:	6d63      	ldr	r3, [r4, #84]	; 0x54
 8001a1e:	f043 0310 	orr.w	r3, r3, #16
 8001a22:	6563      	str	r3, [r4, #84]	; 0x54
 8001a24:	6da3      	ldr	r3, [r4, #88]	; 0x58
 8001a26:	f043 0301 	orr.w	r3, r3, #1
 8001a2a:	65a3      	str	r3, [r4, #88]	; 0x58
 8001a2c:	e6eb      	b.n	8001806 <HAL_ADC_IRQHandler+0xa6>
 8001a2e:	4a01      	ldr	r2, [pc, #4]	; (8001a34 <HAL_ADC_IRQHandler+0x2d4>)
 8001a30:	e753      	b.n	80018da <HAL_ADC_IRQHandler+0x17a>
 8001a32:	bf00      	nop
 8001a34:	40022300 	.word	0x40022300

08001a38 <HAL_ADC_ConfigChannel>:
 8001a38:	b5f0      	push	{r4, r5, r6, r7, lr}
 8001a3a:	4605      	mov	r5, r0
 8001a3c:	4ab4      	ldr	r2, [pc, #720]	; (8001d10 <HAL_ADC_ConfigChannel+0x2d8>)
 8001a3e:	48b5      	ldr	r0, [pc, #724]	; (8001d14 <HAL_ADC_ConfigChannel+0x2dc>)
 8001a40:	b083      	sub	sp, #12
 8001a42:	682b      	ldr	r3, [r5, #0]
 8001a44:	2600      	movs	r6, #0
 8001a46:	460c      	mov	r4, r1
 8001a48:	4283      	cmp	r3, r0
 8001a4a:	bf18      	it	ne
 8001a4c:	4293      	cmpne	r3, r2
 8001a4e:	9601      	str	r6, [sp, #4]
 8001a50:	d003      	beq.n	8001a5a <HAL_ADC_ConfigChannel+0x22>
 8001a52:	4ab1      	ldr	r2, [pc, #708]	; (8001d18 <HAL_ADC_ConfigChannel+0x2e0>)
 8001a54:	4293      	cmp	r3, r2
 8001a56:	f040 8154 	bne.w	8001d02 <HAL_ADC_ConfigChannel+0x2ca>
 8001a5a:	6862      	ldr	r2, [r4, #4]
 8001a5c:	f422 7340 	bic.w	r3, r2, #768	; 0x300
 8001a60:	f422 7180 	bic.w	r1, r2, #256	; 0x100
 8001a64:	1f98      	subs	r0, r3, #6
 8001a66:	bf18      	it	ne
 8001a68:	2001      	movne	r0, #1
 8001a6a:	2918      	cmp	r1, #24
 8001a6c:	f240 811a 	bls.w	8001ca4 <HAL_ADC_ConfigChannel+0x26c>
 8001a70:	2301      	movs	r3, #1
 8001a72:	f422 7600 	bic.w	r6, r2, #512	; 0x200
 8001a76:	f5a2 7100 	sub.w	r1, r2, #512	; 0x200
 8001a7a:	f5b6 7680 	subs.w	r6, r6, #256	; 0x100
 8001a7e:	bf18      	it	ne
 8001a80:	2601      	movne	r6, #1
 8001a82:	2918      	cmp	r1, #24
 8001a84:	f240 8108 	bls.w	8001c98 <HAL_ADC_ConfigChannel+0x260>
 8001a88:	2201      	movs	r2, #1
 8001a8a:	4003      	ands	r3, r0
 8001a8c:	421e      	tst	r6, r3
 8001a8e:	d002      	beq.n	8001a96 <HAL_ADC_ConfigChannel+0x5e>
 8001a90:	2a00      	cmp	r2, #0
 8001a92:	f040 8408 	bne.w	80022a6 <HAL_ADC_ConfigChannel+0x86e>
 8001a96:	68a3      	ldr	r3, [r4, #8]
 8001a98:	2b07      	cmp	r3, #7
 8001a9a:	f200 8265 	bhi.w	8001f68 <HAL_ADC_ConfigChannel+0x530>
 8001a9e:	68e3      	ldr	r3, [r4, #12]
 8001aa0:	f240 72ff 	movw	r2, #2047	; 0x7ff
 8001aa4:	4293      	cmp	r3, r2
 8001aa6:	d003      	beq.n	8001ab0 <HAL_ADC_ConfigChannel+0x78>
 8001aa8:	4a9c      	ldr	r2, [pc, #624]	; (8001d1c <HAL_ADC_ConfigChannel+0x2e4>)
 8001aaa:	4293      	cmp	r3, r2
 8001aac:	f040 8112 	bne.w	8001cd4 <HAL_ADC_ConfigChannel+0x29c>
 8001ab0:	6923      	ldr	r3, [r4, #16]
 8001ab2:	2b04      	cmp	r3, #4
 8001ab4:	f200 8117 	bhi.w	8001ce6 <HAL_ADC_ConfigChannel+0x2ae>
 8001ab8:	f895 3038 	ldrb.w	r3, [r5, #56]	; 0x38
 8001abc:	6961      	ldr	r1, [r4, #20]
 8001abe:	2b01      	cmp	r3, #1
 8001ac0:	682a      	ldr	r2, [r5, #0]
 8001ac2:	4b97      	ldr	r3, [pc, #604]	; (8001d20 <HAL_ADC_ConfigChannel+0x2e8>)
 8001ac4:	f000 8232 	beq.w	8001f2c <HAL_ADC_ConfigChannel+0x4f4>
 8001ac8:	681b      	ldr	r3, [r3, #0]
 8001aca:	f003 5340 	and.w	r3, r3, #805306368	; 0x30000000
 8001ace:	f1b3 5f80 	cmp.w	r3, #268435456	; 0x10000000
 8001ad2:	f040 810e 	bne.w	8001cf2 <HAL_ADC_ConfigChannel+0x2ba>
 8001ad6:	68d2      	ldr	r2, [r2, #12]
 8001ad8:	f64f 73ff 	movw	r3, #65535	; 0xffff
 8001adc:	0852      	lsrs	r2, r2, #1
 8001ade:	f002 020e 	and.w	r2, r2, #14
 8001ae2:	40d3      	lsrs	r3, r2
 8001ae4:	4299      	cmp	r1, r3
 8001ae6:	f200 8141 	bhi.w	8001d6c <HAL_ADC_ConfigChannel+0x334>
 8001aea:	4b8c      	ldr	r3, [pc, #560]	; (8001d1c <HAL_ADC_ConfigChannel+0x2e4>)
 8001aec:	68e2      	ldr	r2, [r4, #12]
 8001aee:	429a      	cmp	r2, r3
 8001af0:	f000 8154 	beq.w	8001d9c <HAL_ADC_ConfigChannel+0x364>
 8001af4:	6821      	ldr	r1, [r4, #0]
 8001af6:	4b8b      	ldr	r3, [pc, #556]	; (8001d24 <HAL_ADC_ConfigChannel+0x2ec>)
 8001af8:	4e8b      	ldr	r6, [pc, #556]	; (8001d28 <HAL_ADC_ConfigChannel+0x2f0>)
 8001afa:	f021 4200 	bic.w	r2, r1, #2147483648	; 0x80000000
 8001afe:	2901      	cmp	r1, #1
 8001b00:	bf18      	it	ne
 8001b02:	4299      	cmpne	r1, r3
 8001b04:	4889      	ldr	r0, [pc, #548]	; (8001d2c <HAL_ADC_ConfigChannel+0x2f4>)
 8001b06:	bf14      	ite	ne
 8001b08:	2301      	movne	r3, #1
 8001b0a:	2300      	moveq	r3, #0
 8001b0c:	42b1      	cmp	r1, r6
 8001b0e:	bf0c      	ite	eq
 8001b10:	2300      	moveq	r3, #0
 8001b12:	f003 0301 	andne.w	r3, r3, #1
 8001b16:	4e86      	ldr	r6, [pc, #536]	; (8001d30 <HAL_ADC_ConfigChannel+0x2f8>)
 8001b18:	4281      	cmp	r1, r0
 8001b1a:	bf0c      	ite	eq
 8001b1c:	2300      	moveq	r3, #0
 8001b1e:	f003 0301 	andne.w	r3, r3, #1
 8001b22:	f100 6006 	add.w	r0, r0, #140509184	; 0x8600000
 8001b26:	42b1      	cmp	r1, r6
 8001b28:	bf0c      	ite	eq
 8001b2a:	2300      	moveq	r3, #0
 8001b2c:	f003 0301 	andne.w	r3, r3, #1
 8001b30:	3018      	adds	r0, #24
 8001b32:	4e80      	ldr	r6, [pc, #512]	; (8001d34 <HAL_ADC_ConfigChannel+0x2fc>)
 8001b34:	4281      	cmp	r1, r0
 8001b36:	bf0c      	ite	eq
 8001b38:	2300      	moveq	r3, #0
 8001b3a:	f003 0301 	andne.w	r3, r3, #1
 8001b3e:	f100 6006 	add.w	r0, r0, #140509184	; 0x8600000
 8001b42:	42b1      	cmp	r1, r6
 8001b44:	bf0c      	ite	eq
 8001b46:	2300      	moveq	r3, #0
 8001b48:	f003 0301 	andne.w	r3, r3, #1
 8001b4c:	3060      	adds	r0, #96	; 0x60
 8001b4e:	4e7a      	ldr	r6, [pc, #488]	; (8001d38 <HAL_ADC_ConfigChannel+0x300>)
 8001b50:	4281      	cmp	r1, r0
 8001b52:	bf0c      	ite	eq
 8001b54:	2300      	moveq	r3, #0
 8001b56:	f003 0301 	andne.w	r3, r3, #1
 8001b5a:	f100 6006 	add.w	r0, r0, #140509184	; 0x8600000
 8001b5e:	42b1      	cmp	r1, r6
 8001b60:	bf0c      	ite	eq
 8001b62:	2300      	moveq	r3, #0
 8001b64:	f003 0301 	andne.w	r3, r3, #1
 8001b68:	f500 70c0 	add.w	r0, r0, #384	; 0x180
 8001b6c:	4e73      	ldr	r6, [pc, #460]	; (8001d3c <HAL_ADC_ConfigChannel+0x304>)
 8001b6e:	4281      	cmp	r1, r0
 8001b70:	bf0c      	ite	eq
 8001b72:	2300      	moveq	r3, #0
 8001b74:	f003 0301 	andne.w	r3, r3, #1
 8001b78:	f100 6008 	add.w	r0, r0, #142606336	; 0x8800000
 8001b7c:	42b1      	cmp	r1, r6
 8001b7e:	bf0c      	ite	eq
 8001b80:	2300      	moveq	r3, #0
 8001b82:	f003 0301 	andne.w	r3, r3, #1
 8001b86:	f500 60c0 	add.w	r0, r0, #1536	; 0x600
 8001b8a:	f106 6606 	add.w	r6, r6, #140509184	; 0x8600000
 8001b8e:	4281      	cmp	r1, r0
 8001b90:	bf0c      	ite	eq
 8001b92:	2300      	moveq	r3, #0
 8001b94:	f003 0301 	andne.w	r3, r3, #1
 8001b98:	4869      	ldr	r0, [pc, #420]	; (8001d40 <HAL_ADC_ConfigChannel+0x308>)
 8001b9a:	f506 6640 	add.w	r6, r6, #3072	; 0xc00
 8001b9e:	42b1      	cmp	r1, r6
 8001ba0:	bf0c      	ite	eq
 8001ba2:	2300      	moveq	r3, #0
 8001ba4:	f003 0301 	andne.w	r3, r3, #1
 8001ba8:	4e66      	ldr	r6, [pc, #408]	; (8001d44 <HAL_ADC_ConfigChannel+0x30c>)
 8001baa:	4281      	cmp	r1, r0
 8001bac:	bf0c      	ite	eq
 8001bae:	2300      	moveq	r3, #0
 8001bb0:	f003 0301 	andne.w	r3, r3, #1
 8001bb4:	4864      	ldr	r0, [pc, #400]	; (8001d48 <HAL_ADC_ConfigChannel+0x310>)
 8001bb6:	42b1      	cmp	r1, r6
 8001bb8:	bf0c      	ite	eq
 8001bba:	2300      	moveq	r3, #0
 8001bbc:	f003 0301 	andne.w	r3, r3, #1
 8001bc0:	4e62      	ldr	r6, [pc, #392]	; (8001d4c <HAL_ADC_ConfigChannel+0x314>)
 8001bc2:	4281      	cmp	r1, r0
 8001bc4:	bf0c      	ite	eq
 8001bc6:	2300      	moveq	r3, #0
 8001bc8:	f003 0301 	andne.w	r3, r3, #1
 8001bcc:	4860      	ldr	r0, [pc, #384]	; (8001d50 <HAL_ADC_ConfigChannel+0x318>)
 8001bce:	4961      	ldr	r1, [pc, #388]	; (8001d54 <HAL_ADC_ConfigChannel+0x31c>)
 8001bd0:	42b2      	cmp	r2, r6
 8001bd2:	bf0c      	ite	eq
 8001bd4:	2300      	moveq	r3, #0
 8001bd6:	f003 0301 	andne.w	r3, r3, #1
 8001bda:	4282      	cmp	r2, r0
 8001bdc:	bf0c      	ite	eq
 8001bde:	2300      	moveq	r3, #0
 8001be0:	f003 0301 	andne.w	r3, r3, #1
 8001be4:	428a      	cmp	r2, r1
 8001be6:	bf0c      	ite	eq
 8001be8:	2300      	moveq	r3, #0
 8001bea:	f003 0301 	andne.w	r3, r3, #1
 8001bee:	2b00      	cmp	r3, #0
 8001bf0:	d167      	bne.n	8001cc2 <HAL_ADC_ConfigChannel+0x28a>
 8001bf2:	f895 3050 	ldrb.w	r3, [r5, #80]	; 0x50
 8001bf6:	2b01      	cmp	r3, #1
 8001bf8:	f000 82af 	beq.w	800215a <HAL_ADC_ConfigChannel+0x722>
 8001bfc:	682b      	ldr	r3, [r5, #0]
 8001bfe:	2001      	movs	r0, #1
 8001c00:	689a      	ldr	r2, [r3, #8]
 8001c02:	f885 0050 	strb.w	r0, [r5, #80]	; 0x50
 8001c06:	0752      	lsls	r2, r2, #29
 8001c08:	d452      	bmi.n	8001cb0 <HAL_ADC_ConfigChannel+0x278>
 8001c0a:	6822      	ldr	r2, [r4, #0]
 8001c0c:	f3c2 0113 	ubfx	r1, r2, #0, #20
 8001c10:	f3c2 6784 	ubfx	r7, r2, #26, #5
 8001c14:	2900      	cmp	r1, #0
 8001c16:	f040 81af 	bne.w	8001f78 <HAL_ADC_ConfigChannel+0x540>
 8001c1a:	40b8      	lsls	r0, r7
 8001c1c:	6861      	ldr	r1, [r4, #4]
 8001c1e:	221f      	movs	r2, #31
 8001c20:	69de      	ldr	r6, [r3, #28]
 8001c22:	ea4f 1c91 	mov.w	ip, r1, lsr #6
 8001c26:	4011      	ands	r1, r2
 8001c28:	ea46 0e00 	orr.w	lr, r6, r0
 8001c2c:	f103 0030 	add.w	r0, r3, #48	; 0x30
 8001c30:	f00c 060c 	and.w	r6, ip, #12
 8001c34:	fa02 fc01 	lsl.w	ip, r2, r1
 8001c38:	f8c3 e01c 	str.w	lr, [r3, #28]
 8001c3c:	fa07 f101 	lsl.w	r1, r7, r1
 8001c40:	5832      	ldr	r2, [r6, r0]
 8001c42:	ea22 020c 	bic.w	r2, r2, ip
 8001c46:	430a      	orrs	r2, r1
 8001c48:	5032      	str	r2, [r6, r0]
 8001c4a:	689a      	ldr	r2, [r3, #8]
 8001c4c:	0757      	lsls	r7, r2, #29
 8001c4e:	f100 8191 	bmi.w	8001f74 <HAL_ADC_ConfigChannel+0x53c>
 8001c52:	689e      	ldr	r6, [r3, #8]
 8001c54:	f016 0608 	ands.w	r6, r6, #8
 8001c58:	f000 80f2 	beq.w	8001e40 <HAL_ADC_ConfigChannel+0x408>
 8001c5c:	689a      	ldr	r2, [r3, #8]
 8001c5e:	07d6      	lsls	r6, r2, #31
 8001c60:	d418      	bmi.n	8001c94 <HAL_ADC_ConfigChannel+0x25c>
 8001c62:	68e6      	ldr	r6, [r4, #12]
 8001c64:	6821      	ldr	r1, [r4, #0]
 8001c66:	f006 0718 	and.w	r7, r6, #24
 8001c6a:	4a3b      	ldr	r2, [pc, #236]	; (8001d58 <HAL_ADC_ConfigChannel+0x320>)
 8001c6c:	f8d3 00c0 	ldr.w	r0, [r3, #192]	; 0xc0
 8001c70:	40fa      	lsrs	r2, r7
 8001c72:	f3c1 0713 	ubfx	r7, r1, #0, #20
 8001c76:	f8df c0a4 	ldr.w	ip, [pc, #164]	; 8001d1c <HAL_ADC_ConfigChannel+0x2e4>
 8001c7a:	400a      	ands	r2, r1
 8001c7c:	ea20 0007 	bic.w	r0, r0, r7
 8001c80:	4566      	cmp	r6, ip
 8001c82:	ea42 0200 	orr.w	r2, r2, r0
 8001c86:	f8c3 20c0 	str.w	r2, [r3, #192]	; 0xc0
 8001c8a:	f000 8227 	beq.w	80020dc <HAL_ADC_ConfigChannel+0x6a4>
 8001c8e:	2900      	cmp	r1, #0
 8001c90:	f2c0 81c4 	blt.w	800201c <HAL_ADC_ConfigChannel+0x5e4>
 8001c94:	2000      	movs	r0, #0
 8001c96:	e00f      	b.n	8001cb8 <HAL_ADC_ConfigChannel+0x280>
 8001c98:	4a30      	ldr	r2, [pc, #192]	; (8001d5c <HAL_ADC_ConfigChannel+0x324>)
 8001c9a:	40ca      	lsrs	r2, r1
 8001c9c:	43d2      	mvns	r2, r2
 8001c9e:	f002 0201 	and.w	r2, r2, #1
 8001ca2:	e6f2      	b.n	8001a8a <HAL_ADC_ConfigChannel+0x52>
 8001ca4:	4b2e      	ldr	r3, [pc, #184]	; (8001d60 <HAL_ADC_ConfigChannel+0x328>)
 8001ca6:	40cb      	lsrs	r3, r1
 8001ca8:	43db      	mvns	r3, r3
 8001caa:	f003 0301 	and.w	r3, r3, #1
 8001cae:	e6e0      	b.n	8001a72 <HAL_ADC_ConfigChannel+0x3a>
 8001cb0:	6d6b      	ldr	r3, [r5, #84]	; 0x54
 8001cb2:	f043 0320 	orr.w	r3, r3, #32
 8001cb6:	656b      	str	r3, [r5, #84]	; 0x54
 8001cb8:	2300      	movs	r3, #0
 8001cba:	f885 3050 	strb.w	r3, [r5, #80]	; 0x50
 8001cbe:	b003      	add	sp, #12
 8001cc0:	bdf0      	pop	{r4, r5, r6, r7, pc}
 8001cc2:	4b28      	ldr	r3, [pc, #160]	; (8001d64 <HAL_ADC_ConfigChannel+0x32c>)
 8001cc4:	429a      	cmp	r2, r3
 8001cc6:	d094      	beq.n	8001bf2 <HAL_ADC_ConfigChannel+0x1ba>
 8001cc8:	f640 216a 	movw	r1, #2666	; 0xa6a
 8001ccc:	4826      	ldr	r0, [pc, #152]	; (8001d68 <HAL_ADC_ConfigChannel+0x330>)
 8001cce:	f7ff f8e7 	bl	8000ea0 <assert_failed>
 8001cd2:	e78e      	b.n	8001bf2 <HAL_ADC_ConfigChannel+0x1ba>
 8001cd4:	f640 2157 	movw	r1, #2647	; 0xa57
 8001cd8:	4823      	ldr	r0, [pc, #140]	; (8001d68 <HAL_ADC_ConfigChannel+0x330>)
 8001cda:	f7ff f8e1 	bl	8000ea0 <assert_failed>
 8001cde:	6923      	ldr	r3, [r4, #16]
 8001ce0:	2b04      	cmp	r3, #4
 8001ce2:	f67f aee9 	bls.w	8001ab8 <HAL_ADC_ConfigChannel+0x80>
 8001ce6:	f640 2158 	movw	r1, #2648	; 0xa58
 8001cea:	481f      	ldr	r0, [pc, #124]	; (8001d68 <HAL_ADC_ConfigChannel+0x330>)
 8001cec:	f7ff f8d8 	bl	8000ea0 <assert_failed>
 8001cf0:	e6e2      	b.n	8001ab8 <HAL_ADC_ConfigChannel+0x80>
 8001cf2:	68d3      	ldr	r3, [r2, #12]
 8001cf4:	f003 031c 	and.w	r3, r3, #28
 8001cf8:	2b1c      	cmp	r3, #28
 8001cfa:	f47f aeec 	bne.w	8001ad6 <HAL_ADC_ConfigChannel+0x9e>
 8001cfe:	23ff      	movs	r3, #255	; 0xff
 8001d00:	e6f0      	b.n	8001ae4 <HAL_ADC_ConfigChannel+0xac>
 8001d02:	f640 2154 	movw	r1, #2644	; 0xa54
 8001d06:	4818      	ldr	r0, [pc, #96]	; (8001d68 <HAL_ADC_ConfigChannel+0x330>)
 8001d08:	f7ff f8ca 	bl	8000ea0 <assert_failed>
 8001d0c:	e6a5      	b.n	8001a5a <HAL_ADC_ConfigChannel+0x22>
 8001d0e:	bf00      	nop
 8001d10:	40022100 	.word	0x40022100
 8001d14:	40022000 	.word	0x40022000
 8001d18:	58026000 	.word	0x58026000
 8001d1c:	47ff0000 	.word	0x47ff0000
 8001d20:	5c001000 	.word	0x5c001000
 8001d24:	04300002 	.word	0x04300002
 8001d28:	08600004 	.word	0x08600004
 8001d2c:	0c900008 	.word	0x0c900008
 8001d30:	10c00010 	.word	0x10c00010
 8001d34:	19200040 	.word	0x19200040
 8001d38:	21800100 	.word	0x21800100
 8001d3c:	2a000400 	.word	0x2a000400
 8001d40:	36902000 	.word	0x36902000
 8001d44:	3ac04000 	.word	0x3ac04000
 8001d48:	3ef08000 	.word	0x3ef08000
 8001d4c:	43210000 	.word	0x43210000
 8001d50:	47520000 	.word	0x47520000
 8001d54:	4b840000 	.word	0x4b840000
 8001d58:	000fffff 	.word	0x000fffff
 8001d5c:	01041001 	.word	0x01041001
 8001d60:	01041000 	.word	0x01041000
 8001d64:	4fb80000 	.word	0x4fb80000
 8001d68:	0800cf54 	.word	0x0800cf54
 8001d6c:	f44f 6126 	mov.w	r1, #2656	; 0xa60
 8001d70:	48c3      	ldr	r0, [pc, #780]	; (8002080 <HAL_ADC_ConfigChannel+0x648>)
 8001d72:	f7ff f895 	bl	8000ea0 <assert_failed>
 8001d76:	6923      	ldr	r3, [r4, #16]
 8001d78:	2b04      	cmp	r3, #4
 8001d7a:	f43f aeb6 	beq.w	8001aea <HAL_ADC_ConfigChannel+0xb2>
 8001d7e:	f895 3038 	ldrb.w	r3, [r5, #56]	; 0x38
 8001d82:	2b01      	cmp	r3, #1
 8001d84:	f47f aeb1 	bne.w	8001aea <HAL_ADC_ConfigChannel+0xb2>
 8001d88:	f640 2165 	movw	r1, #2661	; 0xa65
 8001d8c:	48bc      	ldr	r0, [pc, #752]	; (8002080 <HAL_ADC_ConfigChannel+0x648>)
 8001d8e:	f7ff f887 	bl	8000ea0 <assert_failed>
 8001d92:	4bbc      	ldr	r3, [pc, #752]	; (8002084 <HAL_ADC_ConfigChannel+0x64c>)
 8001d94:	68e2      	ldr	r2, [r4, #12]
 8001d96:	429a      	cmp	r2, r3
 8001d98:	f47f aeac 	bne.w	8001af4 <HAL_ADC_ConfigChannel+0xbc>
 8001d9c:	682b      	ldr	r3, [r5, #0]
 8001d9e:	4aba      	ldr	r2, [pc, #744]	; (8002088 <HAL_ADC_ConfigChannel+0x650>)
 8001da0:	4293      	cmp	r3, r2
 8001da2:	f000 81e3 	beq.w	800216c <HAL_ADC_ConfigChannel+0x734>
 8001da6:	4ab9      	ldr	r2, [pc, #740]	; (800208c <HAL_ADC_ConfigChannel+0x654>)
 8001da8:	4293      	cmp	r3, r2
 8001daa:	f000 80f4 	beq.w	8001f96 <HAL_ADC_ConfigChannel+0x55e>
 8001dae:	4ab8      	ldr	r2, [pc, #736]	; (8002090 <HAL_ADC_ConfigChannel+0x658>)
 8001db0:	4293      	cmp	r3, r2
 8001db2:	f47f af1e 	bne.w	8001bf2 <HAL_ADC_ConfigChannel+0x1ba>
 8001db6:	6822      	ldr	r2, [r4, #0]
 8001db8:	4bb6      	ldr	r3, [pc, #728]	; (8002094 <HAL_ADC_ConfigChannel+0x65c>)
 8001dba:	48b7      	ldr	r0, [pc, #732]	; (8002098 <HAL_ADC_ConfigChannel+0x660>)
 8001dbc:	49b7      	ldr	r1, [pc, #732]	; (800209c <HAL_ADC_ConfigChannel+0x664>)
 8001dbe:	429a      	cmp	r2, r3
 8001dc0:	bf18      	it	ne
 8001dc2:	4282      	cmpne	r2, r0
 8001dc4:	48b6      	ldr	r0, [pc, #728]	; (80020a0 <HAL_ADC_ConfigChannel+0x668>)
 8001dc6:	bf14      	ite	ne
 8001dc8:	2301      	movne	r3, #1
 8001dca:	2300      	moveq	r3, #0
 8001dcc:	428a      	cmp	r2, r1
 8001dce:	bf0c      	ite	eq
 8001dd0:	2300      	moveq	r3, #0
 8001dd2:	f003 0301 	andne.w	r3, r3, #1
 8001dd6:	f101 6106 	add.w	r1, r1, #140509184	; 0x8600000
 8001dda:	4282      	cmp	r2, r0
 8001ddc:	bf0c      	ite	eq
 8001dde:	2300      	moveq	r3, #0
 8001de0:	f003 0301 	andne.w	r3, r3, #1
 8001de4:	3118      	adds	r1, #24
 8001de6:	48af      	ldr	r0, [pc, #700]	; (80020a4 <HAL_ADC_ConfigChannel+0x66c>)
 8001de8:	428a      	cmp	r2, r1
 8001dea:	bf0c      	ite	eq
 8001dec:	2300      	moveq	r3, #0
 8001dee:	f003 0301 	andne.w	r3, r3, #1
 8001df2:	f101 51ca 	add.w	r1, r1, #423624704	; 0x19400000
 8001df6:	4282      	cmp	r2, r0
 8001df8:	bf0c      	ite	eq
 8001dfa:	2300      	moveq	r3, #0
 8001dfc:	f003 0301 	andne.w	r3, r3, #1
 8001e00:	f501 61fc 	add.w	r1, r1, #2016	; 0x7e0
 8001e04:	48a8      	ldr	r0, [pc, #672]	; (80020a8 <HAL_ADC_ConfigChannel+0x670>)
 8001e06:	428a      	cmp	r2, r1
 8001e08:	bf0c      	ite	eq
 8001e0a:	2300      	moveq	r3, #0
 8001e0c:	f003 0301 	andne.w	r3, r3, #1
 8001e10:	49a6      	ldr	r1, [pc, #664]	; (80020ac <HAL_ADC_ConfigChannel+0x674>)
 8001e12:	4282      	cmp	r2, r0
 8001e14:	bf0c      	ite	eq
 8001e16:	2300      	moveq	r3, #0
 8001e18:	f003 0301 	andne.w	r3, r3, #1
 8001e1c:	428a      	cmp	r2, r1
 8001e1e:	bf0c      	ite	eq
 8001e20:	2300      	moveq	r3, #0
 8001e22:	f003 0301 	andne.w	r3, r3, #1
 8001e26:	2b00      	cmp	r3, #0
 8001e28:	f43f aee3 	beq.w	8001bf2 <HAL_ADC_ConfigChannel+0x1ba>
 8001e2c:	4ba0      	ldr	r3, [pc, #640]	; (80020b0 <HAL_ADC_ConfigChannel+0x678>)
 8001e2e:	429a      	cmp	r2, r3
 8001e30:	f43f aedf 	beq.w	8001bf2 <HAL_ADC_ConfigChannel+0x1ba>
 8001e34:	f640 2179 	movw	r1, #2681	; 0xa79
 8001e38:	4891      	ldr	r0, [pc, #580]	; (8002080 <HAL_ADC_ConfigChannel+0x648>)
 8001e3a:	f7ff f831 	bl	8000ea0 <assert_failed>
 8001e3e:	e6d8      	b.n	8001bf2 <HAL_ADC_ConfigChannel+0x1ba>
 8001e40:	6821      	ldr	r1, [r4, #0]
 8001e42:	f103 0014 	add.w	r0, r3, #20
 8001e46:	2207      	movs	r2, #7
 8001e48:	68a7      	ldr	r7, [r4, #8]
 8001e4a:	ea4f 5cd1 	mov.w	ip, r1, lsr #23
 8001e4e:	f3c1 5104 	ubfx	r1, r1, #20, #5
 8001e52:	f00c 0c04 	and.w	ip, ip, #4
 8001e56:	fa02 fe01 	lsl.w	lr, r2, r1
 8001e5a:	fa07 f101 	lsl.w	r1, r7, r1
 8001e5e:	4f95      	ldr	r7, [pc, #596]	; (80020b4 <HAL_ADC_ConfigChannel+0x67c>)
 8001e60:	f85c 2000 	ldr.w	r2, [ip, r0]
 8001e64:	ea22 020e 	bic.w	r2, r2, lr
 8001e68:	430a      	orrs	r2, r1
 8001e6a:	f84c 2000 	str.w	r2, [ip, r0]
 8001e6e:	683a      	ldr	r2, [r7, #0]
 8001e70:	f002 4270 	and.w	r2, r2, #4026531840	; 0xf0000000
 8001e74:	f1b2 5f80 	cmp.w	r2, #268435456	; 0x10000000
 8001e78:	f000 8128 	beq.w	80020cc <HAL_ADC_ConfigChannel+0x694>
 8001e7c:	68d9      	ldr	r1, [r3, #12]
 8001e7e:	6962      	ldr	r2, [r4, #20]
 8001e80:	f011 0f10 	tst.w	r1, #16
 8001e84:	68d9      	ldr	r1, [r3, #12]
 8001e86:	f040 81d5 	bne.w	8002234 <HAL_ADC_ConfigChannel+0x7fc>
 8001e8a:	f3c1 0182 	ubfx	r1, r1, #2, #3
 8001e8e:	0049      	lsls	r1, r1, #1
 8001e90:	fa02 f101 	lsl.w	r1, r2, r1
 8001e94:	f8d4 c010 	ldr.w	ip, [r4, #16]
 8001e98:	6827      	ldr	r7, [r4, #0]
 8001e9a:	f1bc 0f04 	cmp.w	ip, #4
 8001e9e:	f000 81ae 	beq.w	80021fe <HAL_ADC_ConfigChannel+0x7c6>
 8001ea2:	f103 0060 	add.w	r0, r3, #96	; 0x60
 8001ea6:	f007 47f8 	and.w	r7, r7, #2080374784	; 0x7c000000
 8001eaa:	f894 e019 	ldrb.w	lr, [r4, #25]
 8001eae:	f850 202c 	ldr.w	r2, [r0, ip, lsl #2]
 8001eb2:	f1be 0f01 	cmp.w	lr, #1
 8001eb6:	f002 4200 	and.w	r2, r2, #2147483648	; 0x80000000
 8001eba:	ea42 0207 	orr.w	r2, r2, r7
 8001ebe:	ea42 0201 	orr.w	r2, r2, r1
 8001ec2:	f840 202c 	str.w	r2, [r0, ip, lsl #2]
 8001ec6:	d909      	bls.n	8001edc <HAL_ADC_ConfigChannel+0x4a4>
 8001ec8:	486d      	ldr	r0, [pc, #436]	; (8002080 <HAL_ADC_ConfigChannel+0x648>)
 8001eca:	f640 21a6 	movw	r1, #2726	; 0xaa6
 8001ece:	f7fe ffe7 	bl	8000ea0 <assert_failed>
 8001ed2:	682b      	ldr	r3, [r5, #0]
 8001ed4:	f894 e019 	ldrb.w	lr, [r4, #25]
 8001ed8:	f103 0060 	add.w	r0, r3, #96	; 0x60
 8001edc:	6927      	ldr	r7, [r4, #16]
 8001ede:	f1be 0f01 	cmp.w	lr, #1
 8001ee2:	7e21      	ldrb	r1, [r4, #24]
 8001ee4:	f850 2027 	ldr.w	r2, [r0, r7, lsl #2]
 8001ee8:	bf14      	ite	ne
 8001eea:	f04f 0c00 	movne.w	ip, #0
 8001eee:	f04f 4c00 	moveq.w	ip, #2147483648	; 0x80000000
 8001ef2:	2901      	cmp	r1, #1
 8001ef4:	f022 4200 	bic.w	r2, r2, #2147483648	; 0x80000000
 8001ef8:	ea42 020c 	orr.w	r2, r2, ip
 8001efc:	f840 2027 	str.w	r2, [r0, r7, lsl #2]
 8001f00:	d906      	bls.n	8001f10 <HAL_ADC_ConfigChannel+0x4d8>
 8001f02:	f640 21aa 	movw	r1, #2730	; 0xaaa
 8001f06:	485e      	ldr	r0, [pc, #376]	; (8002080 <HAL_ADC_ConfigChannel+0x648>)
 8001f08:	f7fe ffca 	bl	8000ea0 <assert_failed>
 8001f0c:	682b      	ldr	r3, [r5, #0]
 8001f0e:	7e21      	ldrb	r1, [r4, #24]
 8001f10:	2901      	cmp	r1, #1
 8001f12:	6922      	ldr	r2, [r4, #16]
 8001f14:	d104      	bne.n	8001f20 <HAL_ADC_ConfigChannel+0x4e8>
 8001f16:	f002 021f 	and.w	r2, r2, #31
 8001f1a:	f44f 6600 	mov.w	r6, #2048	; 0x800
 8001f1e:	4096      	lsls	r6, r2
 8001f20:	691a      	ldr	r2, [r3, #16]
 8001f22:	f422 42f0 	bic.w	r2, r2, #30720	; 0x7800
 8001f26:	4316      	orrs	r6, r2
 8001f28:	611e      	str	r6, [r3, #16]
 8001f2a:	e697      	b.n	8001c5c <HAL_ADC_ConfigChannel+0x224>
 8001f2c:	681b      	ldr	r3, [r3, #0]
 8001f2e:	6be8      	ldr	r0, [r5, #60]	; 0x3c
 8001f30:	f003 5340 	and.w	r3, r3, #805306368	; 0x30000000
 8001f34:	3001      	adds	r0, #1
 8001f36:	f1b3 5f80 	cmp.w	r3, #268435456	; 0x10000000
 8001f3a:	fbb1 f1f0 	udiv	r1, r1, r0
 8001f3e:	d123      	bne.n	8001f88 <HAL_ADC_ConfigChannel+0x550>
 8001f40:	68d2      	ldr	r2, [r2, #12]
 8001f42:	f64f 73ff 	movw	r3, #65535	; 0xffff
 8001f46:	0852      	lsrs	r2, r2, #1
 8001f48:	f002 020e 	and.w	r2, r2, #14
 8001f4c:	40d3      	lsrs	r3, r2
 8001f4e:	4299      	cmp	r1, r3
 8001f50:	f200 8106 	bhi.w	8002160 <HAL_ADC_ConfigChannel+0x728>
 8001f54:	6923      	ldr	r3, [r4, #16]
 8001f56:	2b04      	cmp	r3, #4
 8001f58:	f43f adc7 	beq.w	8001aea <HAL_ADC_ConfigChannel+0xb2>
 8001f5c:	f640 2165 	movw	r1, #2661	; 0xa65
 8001f60:	4847      	ldr	r0, [pc, #284]	; (8002080 <HAL_ADC_ConfigChannel+0x648>)
 8001f62:	f7fe ff9d 	bl	8000ea0 <assert_failed>
 8001f66:	e714      	b.n	8001d92 <HAL_ADC_ConfigChannel+0x35a>
 8001f68:	f640 2156 	movw	r1, #2646	; 0xa56
 8001f6c:	4844      	ldr	r0, [pc, #272]	; (8002080 <HAL_ADC_ConfigChannel+0x648>)
 8001f6e:	f7fe ff97 	bl	8000ea0 <assert_failed>
 8001f72:	e594      	b.n	8001a9e <HAL_ADC_ConfigChannel+0x66>
 8001f74:	689a      	ldr	r2, [r3, #8]
 8001f76:	e671      	b.n	8001c5c <HAL_ADC_ConfigChannel+0x224>
 8001f78:	fa92 f2a2 	rbit	r2, r2
 8001f7c:	fab2 f282 	clz	r2, r2
 8001f80:	f002 021f 	and.w	r2, r2, #31
 8001f84:	4090      	lsls	r0, r2
 8001f86:	e649      	b.n	8001c1c <HAL_ADC_ConfigChannel+0x1e4>
 8001f88:	68d3      	ldr	r3, [r2, #12]
 8001f8a:	f003 031c 	and.w	r3, r3, #28
 8001f8e:	2b1c      	cmp	r3, #28
 8001f90:	d1d6      	bne.n	8001f40 <HAL_ADC_ConfigChannel+0x508>
 8001f92:	23ff      	movs	r3, #255	; 0xff
 8001f94:	e7db      	b.n	8001f4e <HAL_ADC_ConfigChannel+0x516>
 8001f96:	6822      	ldr	r2, [r4, #0]
 8001f98:	4b3e      	ldr	r3, [pc, #248]	; (8002094 <HAL_ADC_ConfigChannel+0x65c>)
 8001f9a:	493f      	ldr	r1, [pc, #252]	; (8002098 <HAL_ADC_ConfigChannel+0x660>)
 8001f9c:	483f      	ldr	r0, [pc, #252]	; (800209c <HAL_ADC_ConfigChannel+0x664>)
 8001f9e:	429a      	cmp	r2, r3
 8001fa0:	bf18      	it	ne
 8001fa2:	428a      	cmpne	r2, r1
 8001fa4:	493e      	ldr	r1, [pc, #248]	; (80020a0 <HAL_ADC_ConfigChannel+0x668>)
 8001fa6:	bf14      	ite	ne
 8001fa8:	2301      	movne	r3, #1
 8001faa:	2300      	moveq	r3, #0
 8001fac:	4282      	cmp	r2, r0
 8001fae:	bf0c      	ite	eq
 8001fb0:	2300      	moveq	r3, #0
 8001fb2:	f003 0301 	andne.w	r3, r3, #1
 8001fb6:	f100 6006 	add.w	r0, r0, #140509184	; 0x8600000
 8001fba:	428a      	cmp	r2, r1
 8001fbc:	bf0c      	ite	eq
 8001fbe:	2300      	moveq	r3, #0
 8001fc0:	f003 0301 	andne.w	r3, r3, #1
 8001fc4:	3018      	adds	r0, #24
 8001fc6:	4937      	ldr	r1, [pc, #220]	; (80020a4 <HAL_ADC_ConfigChannel+0x66c>)
 8001fc8:	4282      	cmp	r2, r0
 8001fca:	bf0c      	ite	eq
 8001fcc:	2300      	moveq	r3, #0
 8001fce:	f003 0301 	andne.w	r3, r3, #1
 8001fd2:	f100 50ca 	add.w	r0, r0, #423624704	; 0x19400000
 8001fd6:	428a      	cmp	r2, r1
 8001fd8:	bf0c      	ite	eq
 8001fda:	2300      	moveq	r3, #0
 8001fdc:	f003 0301 	andne.w	r3, r3, #1
 8001fe0:	f500 60fc 	add.w	r0, r0, #2016	; 0x7e0
 8001fe4:	f101 6106 	add.w	r1, r1, #140509184	; 0x8600000
 8001fe8:	4282      	cmp	r2, r0
 8001fea:	bf0c      	ite	eq
 8001fec:	2300      	moveq	r3, #0
 8001fee:	f003 0301 	andne.w	r3, r3, #1
 8001ff2:	f501 6140 	add.w	r1, r1, #3072	; 0xc00
 8001ff6:	428a      	cmp	r2, r1
 8001ff8:	bf0c      	ite	eq
 8001ffa:	2300      	moveq	r3, #0
 8001ffc:	f003 0301 	andne.w	r3, r3, #1
 8002000:	2b00      	cmp	r3, #0
 8002002:	f43f adf6 	beq.w	8001bf2 <HAL_ADC_ConfigChannel+0x1ba>
 8002006:	4b2c      	ldr	r3, [pc, #176]	; (80020b8 <HAL_ADC_ConfigChannel+0x680>)
 8002008:	429a      	cmp	r2, r3
 800200a:	f43f adf2 	beq.w	8001bf2 <HAL_ADC_ConfigChannel+0x1ba>
 800200e:	f640 2174 	movw	r1, #2676	; 0xa74
 8002012:	481b      	ldr	r0, [pc, #108]	; (8002080 <HAL_ADC_ConfigChannel+0x648>)
 8002014:	f7fe ff44 	bl	8000ea0 <assert_failed>
 8002018:	682b      	ldr	r3, [r5, #0]
 800201a:	e6c8      	b.n	8001dae <HAL_ADC_ConfigChannel+0x376>
 800201c:	4a1a      	ldr	r2, [pc, #104]	; (8002088 <HAL_ADC_ConfigChannel+0x650>)
 800201e:	4293      	cmp	r3, r2
 8002020:	f000 8133 	beq.w	800228a <HAL_ADC_ConfigChannel+0x852>
 8002024:	f502 7280 	add.w	r2, r2, #256	; 0x100
 8002028:	4293      	cmp	r3, r2
 800202a:	f000 812e 	beq.w	800228a <HAL_ADC_ConfigChannel+0x852>
 800202e:	4e18      	ldr	r6, [pc, #96]	; (8002090 <HAL_ADC_ConfigChannel+0x658>)
 8002030:	4c22      	ldr	r4, [pc, #136]	; (80020bc <HAL_ADC_ConfigChannel+0x684>)
 8002032:	68a0      	ldr	r0, [r4, #8]
 8002034:	68b2      	ldr	r2, [r6, #8]
 8002036:	f000 76e0 	and.w	r6, r0, #29360128	; 0x1c00000
 800203a:	43d2      	mvns	r2, r2
 800203c:	f002 0201 	and.w	r2, r2, #1
 8002040:	2a00      	cmp	r2, #0
 8002042:	f000 8137 	beq.w	80022b4 <HAL_ADC_ConfigChannel+0x87c>
 8002046:	4a1e      	ldr	r2, [pc, #120]	; (80020c0 <HAL_ADC_ConfigChannel+0x688>)
 8002048:	4291      	cmp	r1, r2
 800204a:	f000 8156 	beq.w	80022fa <HAL_ADC_ConfigChannel+0x8c2>
 800204e:	4a1d      	ldr	r2, [pc, #116]	; (80020c4 <HAL_ADC_ConfigChannel+0x68c>)
 8002050:	4291      	cmp	r1, r2
 8002052:	f000 8174 	beq.w	800233e <HAL_ADC_ConfigChannel+0x906>
 8002056:	4a1c      	ldr	r2, [pc, #112]	; (80020c8 <HAL_ADC_ConfigChannel+0x690>)
 8002058:	4291      	cmp	r1, r2
 800205a:	f47f ae1b 	bne.w	8001c94 <HAL_ADC_ConfigChannel+0x25c>
 800205e:	0242      	lsls	r2, r0, #9
 8002060:	f53f ae18 	bmi.w	8001c94 <HAL_ADC_ConfigChannel+0x25c>
 8002064:	4a0a      	ldr	r2, [pc, #40]	; (8002090 <HAL_ADC_ConfigChannel+0x658>)
 8002066:	4293      	cmp	r3, r2
 8002068:	f47f ae14 	bne.w	8001c94 <HAL_ADC_ConfigChannel+0x25c>
 800206c:	68a2      	ldr	r2, [r4, #8]
 800206e:	f446 0380 	orr.w	r3, r6, #4194304	; 0x400000
 8002072:	2000      	movs	r0, #0
 8002074:	f022 72e0 	bic.w	r2, r2, #29360128	; 0x1c00000
 8002078:	4313      	orrs	r3, r2
 800207a:	60a3      	str	r3, [r4, #8]
 800207c:	e61c      	b.n	8001cb8 <HAL_ADC_ConfigChannel+0x280>
 800207e:	bf00      	nop
 8002080:	0800cf54 	.word	0x0800cf54
 8002084:	47ff0000 	.word	0x47ff0000
 8002088:	40022000 	.word	0x40022000
 800208c:	40022100 	.word	0x40022100
 8002090:	58026000 	.word	0x58026000
 8002094:	04300002 	.word	0x04300002
 8002098:	08600004 	.word	0x08600004
 800209c:	0c900008 	.word	0x0c900008
 80020a0:	10c00010 	.word	0x10c00010
 80020a4:	2a000400 	.word	0x2a000400
 80020a8:	36902000 	.word	0x36902000
 80020ac:	3ac04000 	.word	0x3ac04000
 80020b0:	3ef08000 	.word	0x3ef08000
 80020b4:	5c001000 	.word	0x5c001000
 80020b8:	4b840000 	.word	0x4b840000
 80020bc:	58026300 	.word	0x58026300
 80020c0:	cb840000 	.word	0xcb840000
 80020c4:	c7520000 	.word	0xc7520000
 80020c8:	cfb80000 	.word	0xcfb80000
 80020cc:	68d9      	ldr	r1, [r3, #12]
 80020ce:	6962      	ldr	r2, [r4, #20]
 80020d0:	f3c1 0182 	ubfx	r1, r1, #2, #3
 80020d4:	0049      	lsls	r1, r1, #1
 80020d6:	fa02 f101 	lsl.w	r1, r2, r1
 80020da:	e6db      	b.n	8001e94 <HAL_ADC_ConfigChannel+0x45c>
 80020dc:	2f00      	cmp	r7, #0
 80020de:	f000 80af 	beq.w	8002240 <HAL_ADC_ConfigChannel+0x808>
 80020e2:	fa91 f2a1 	rbit	r2, r1
 80020e6:	fab2 f282 	clz	r2, r2
 80020ea:	3201      	adds	r2, #1
 80020ec:	f002 021f 	and.w	r2, r2, #31
 80020f0:	2a09      	cmp	r2, #9
 80020f2:	f200 80e5 	bhi.w	80022c0 <HAL_ADC_ConfigChannel+0x888>
 80020f6:	fa91 f2a1 	rbit	r2, r1
 80020fa:	fab2 f282 	clz	r2, r2
 80020fe:	fa91 f0a1 	rbit	r0, r1
 8002102:	2601      	movs	r6, #1
 8002104:	fab0 f080 	clz	r0, r0
 8002108:	3201      	adds	r2, #1
 800210a:	4430      	add	r0, r6
 800210c:	0692      	lsls	r2, r2, #26
 800210e:	f000 001f 	and.w	r0, r0, #31
 8002112:	f002 42f8 	and.w	r2, r2, #2080374784	; 0x7c000000
 8002116:	fa06 f000 	lsl.w	r0, r6, r0
 800211a:	4302      	orrs	r2, r0
 800211c:	fa91 f1a1 	rbit	r1, r1
 8002120:	fab1 f181 	clz	r1, r1
 8002124:	4431      	add	r1, r6
 8002126:	f001 011f 	and.w	r1, r1, #31
 800212a:	eb01 0141 	add.w	r1, r1, r1, lsl #1
 800212e:	0509      	lsls	r1, r1, #20
 8002130:	4311      	orrs	r1, r2
 8002132:	f103 0614 	add.w	r6, r3, #20
 8002136:	f04f 0c07 	mov.w	ip, #7
 800213a:	68a2      	ldr	r2, [r4, #8]
 800213c:	0dcf      	lsrs	r7, r1, #23
 800213e:	f3c1 5104 	ubfx	r1, r1, #20, #5
 8002142:	f007 0704 	and.w	r7, r7, #4
 8002146:	fa0c fc01 	lsl.w	ip, ip, r1
 800214a:	408a      	lsls	r2, r1
 800214c:	59b8      	ldr	r0, [r7, r6]
 800214e:	ea20 010c 	bic.w	r1, r0, ip
 8002152:	4311      	orrs	r1, r2
 8002154:	51b9      	str	r1, [r7, r6]
 8002156:	6821      	ldr	r1, [r4, #0]
 8002158:	e599      	b.n	8001c8e <HAL_ADC_ConfigChannel+0x256>
 800215a:	2002      	movs	r0, #2
 800215c:	b003      	add	sp, #12
 800215e:	bdf0      	pop	{r4, r5, r6, r7, pc}
 8002160:	f640 215c 	movw	r1, #2652	; 0xa5c
 8002164:	487e      	ldr	r0, [pc, #504]	; (8002360 <HAL_ADC_ConfigChannel+0x928>)
 8002166:	f7fe fe9b 	bl	8000ea0 <assert_failed>
 800216a:	e604      	b.n	8001d76 <HAL_ADC_ConfigChannel+0x33e>
 800216c:	6822      	ldr	r2, [r4, #0]
 800216e:	4b7d      	ldr	r3, [pc, #500]	; (8002364 <HAL_ADC_ConfigChannel+0x92c>)
 8002170:	487d      	ldr	r0, [pc, #500]	; (8002368 <HAL_ADC_ConfigChannel+0x930>)
 8002172:	497e      	ldr	r1, [pc, #504]	; (800236c <HAL_ADC_ConfigChannel+0x934>)
 8002174:	429a      	cmp	r2, r3
 8002176:	bf18      	it	ne
 8002178:	4282      	cmpne	r2, r0
 800217a:	487d      	ldr	r0, [pc, #500]	; (8002370 <HAL_ADC_ConfigChannel+0x938>)
 800217c:	bf14      	ite	ne
 800217e:	2301      	movne	r3, #1
 8002180:	2300      	moveq	r3, #0
 8002182:	428a      	cmp	r2, r1
 8002184:	bf0c      	ite	eq
 8002186:	2300      	moveq	r3, #0
 8002188:	f003 0301 	andne.w	r3, r3, #1
 800218c:	f101 6106 	add.w	r1, r1, #140509184	; 0x8600000
 8002190:	4282      	cmp	r2, r0
 8002192:	bf0c      	ite	eq
 8002194:	2300      	moveq	r3, #0
 8002196:	f003 0301 	andne.w	r3, r3, #1
 800219a:	3118      	adds	r1, #24
 800219c:	4875      	ldr	r0, [pc, #468]	; (8002374 <HAL_ADC_ConfigChannel+0x93c>)
 800219e:	428a      	cmp	r2, r1
 80021a0:	bf0c      	ite	eq
 80021a2:	2300      	moveq	r3, #0
 80021a4:	f003 0301 	andne.w	r3, r3, #1
 80021a8:	f101 51ca 	add.w	r1, r1, #423624704	; 0x19400000
 80021ac:	4282      	cmp	r2, r0
 80021ae:	bf0c      	ite	eq
 80021b0:	2300      	moveq	r3, #0
 80021b2:	f003 0301 	andne.w	r3, r3, #1
 80021b6:	f501 61fc 	add.w	r1, r1, #2016	; 0x7e0
 80021ba:	f100 6006 	add.w	r0, r0, #140509184	; 0x8600000
 80021be:	428a      	cmp	r2, r1
 80021c0:	bf0c      	ite	eq
 80021c2:	2300      	moveq	r3, #0
 80021c4:	f003 0301 	andne.w	r3, r3, #1
 80021c8:	496b      	ldr	r1, [pc, #428]	; (8002378 <HAL_ADC_ConfigChannel+0x940>)
 80021ca:	f500 6040 	add.w	r0, r0, #3072	; 0xc00
 80021ce:	4282      	cmp	r2, r0
 80021d0:	bf0c      	ite	eq
 80021d2:	2300      	moveq	r3, #0
 80021d4:	f003 0301 	andne.w	r3, r3, #1
 80021d8:	428a      	cmp	r2, r1
 80021da:	bf0c      	ite	eq
 80021dc:	2300      	moveq	r3, #0
 80021de:	f003 0301 	andne.w	r3, r3, #1
 80021e2:	2b00      	cmp	r3, #0
 80021e4:	f43f ad05 	beq.w	8001bf2 <HAL_ADC_ConfigChannel+0x1ba>
 80021e8:	4b64      	ldr	r3, [pc, #400]	; (800237c <HAL_ADC_ConfigChannel+0x944>)
 80021ea:	429a      	cmp	r2, r3
 80021ec:	f43f ad01 	beq.w	8001bf2 <HAL_ADC_ConfigChannel+0x1ba>
 80021f0:	f44f 6127 	mov.w	r1, #2672	; 0xa70
 80021f4:	485a      	ldr	r0, [pc, #360]	; (8002360 <HAL_ADC_ConfigChannel+0x928>)
 80021f6:	f7fe fe53 	bl	8000ea0 <assert_failed>
 80021fa:	682b      	ldr	r3, [r5, #0]
 80021fc:	e5d3      	b.n	8001da6 <HAL_ADC_ConfigChannel+0x36e>
 80021fe:	6e19      	ldr	r1, [r3, #96]	; 0x60
 8002200:	06ba      	lsls	r2, r7, #26
 8002202:	f001 41f8 	and.w	r1, r1, #2080374784	; 0x7c000000
 8002206:	4291      	cmp	r1, r2
 8002208:	d03a      	beq.n	8002280 <HAL_ADC_ConfigChannel+0x848>
 800220a:	6e59      	ldr	r1, [r3, #100]	; 0x64
 800220c:	f001 41f8 	and.w	r1, r1, #2080374784	; 0x7c000000
 8002210:	428a      	cmp	r2, r1
 8002212:	d030      	beq.n	8002276 <HAL_ADC_ConfigChannel+0x83e>
 8002214:	6e99      	ldr	r1, [r3, #104]	; 0x68
 8002216:	f001 41f8 	and.w	r1, r1, #2080374784	; 0x7c000000
 800221a:	428a      	cmp	r2, r1
 800221c:	d026      	beq.n	800226c <HAL_ADC_ConfigChannel+0x834>
 800221e:	6ed9      	ldr	r1, [r3, #108]	; 0x6c
 8002220:	f001 41f8 	and.w	r1, r1, #2080374784	; 0x7c000000
 8002224:	428a      	cmp	r2, r1
 8002226:	f47f ad19 	bne.w	8001c5c <HAL_ADC_ConfigChannel+0x224>
 800222a:	6eda      	ldr	r2, [r3, #108]	; 0x6c
 800222c:	f022 4200 	bic.w	r2, r2, #2147483648	; 0x80000000
 8002230:	66da      	str	r2, [r3, #108]	; 0x6c
 8002232:	e513      	b.n	8001c5c <HAL_ADC_ConfigChannel+0x224>
 8002234:	0849      	lsrs	r1, r1, #1
 8002236:	f001 0108 	and.w	r1, r1, #8
 800223a:	fa02 f101 	lsl.w	r1, r2, r1
 800223e:	e629      	b.n	8001e94 <HAL_ADC_ConfigChannel+0x45c>
 8002240:	2201      	movs	r2, #1
 8002242:	0e89      	lsrs	r1, r1, #26
 8002244:	4411      	add	r1, r2
 8002246:	f001 001f 	and.w	r0, r1, #31
 800224a:	0689      	lsls	r1, r1, #26
 800224c:	fa02 f600 	lsl.w	r6, r2, r0
 8002250:	2809      	cmp	r0, #9
 8002252:	f001 42f8 	and.w	r2, r1, #2080374784	; 0x7c000000
 8002256:	eb00 0140 	add.w	r1, r0, r0, lsl #1
 800225a:	ea42 0206 	orr.w	r2, r2, r6
 800225e:	f67f af66 	bls.w	800212e <HAL_ADC_ConfigChannel+0x6f6>
 8002262:	391e      	subs	r1, #30
 8002264:	0509      	lsls	r1, r1, #20
 8002266:	f041 7100 	orr.w	r1, r1, #33554432	; 0x2000000
 800226a:	e761      	b.n	8002130 <HAL_ADC_ConfigChannel+0x6f8>
 800226c:	6e99      	ldr	r1, [r3, #104]	; 0x68
 800226e:	f021 4100 	bic.w	r1, r1, #2147483648	; 0x80000000
 8002272:	6699      	str	r1, [r3, #104]	; 0x68
 8002274:	e7d3      	b.n	800221e <HAL_ADC_ConfigChannel+0x7e6>
 8002276:	6e59      	ldr	r1, [r3, #100]	; 0x64
 8002278:	f021 4100 	bic.w	r1, r1, #2147483648	; 0x80000000
 800227c:	6659      	str	r1, [r3, #100]	; 0x64
 800227e:	e7c9      	b.n	8002214 <HAL_ADC_ConfigChannel+0x7dc>
 8002280:	6e19      	ldr	r1, [r3, #96]	; 0x60
 8002282:	f021 4100 	bic.w	r1, r1, #2147483648	; 0x80000000
 8002286:	6619      	str	r1, [r3, #96]	; 0x60
 8002288:	e7bf      	b.n	800220a <HAL_ADC_ConfigChannel+0x7d2>
 800228a:	4a3d      	ldr	r2, [pc, #244]	; (8002380 <HAL_ADC_ConfigChannel+0x948>)
 800228c:	4e3d      	ldr	r6, [pc, #244]	; (8002384 <HAL_ADC_ConfigChannel+0x94c>)
 800228e:	4f3e      	ldr	r7, [pc, #248]	; (8002388 <HAL_ADC_ConfigChannel+0x950>)
 8002290:	4614      	mov	r4, r2
 8002292:	6890      	ldr	r0, [r2, #8]
 8002294:	68bf      	ldr	r7, [r7, #8]
 8002296:	68b2      	ldr	r2, [r6, #8]
 8002298:	f000 76e0 	and.w	r6, r0, #29360128	; 0x1c00000
 800229c:	433a      	orrs	r2, r7
 800229e:	43d2      	mvns	r2, r2
 80022a0:	f002 0201 	and.w	r2, r2, #1
 80022a4:	e6cc      	b.n	8002040 <HAL_ADC_ConfigChannel+0x608>
 80022a6:	f640 2155 	movw	r1, #2645	; 0xa55
 80022aa:	482d      	ldr	r0, [pc, #180]	; (8002360 <HAL_ADC_ConfigChannel+0x928>)
 80022ac:	f7fe fdf8 	bl	8000ea0 <assert_failed>
 80022b0:	f7ff bbf1 	b.w	8001a96 <HAL_ADC_ConfigChannel+0x5e>
 80022b4:	6d6b      	ldr	r3, [r5, #84]	; 0x54
 80022b6:	2001      	movs	r0, #1
 80022b8:	f043 0320 	orr.w	r3, r3, #32
 80022bc:	656b      	str	r3, [r5, #84]	; 0x54
 80022be:	e4fb      	b.n	8001cb8 <HAL_ADC_ConfigChannel+0x280>
 80022c0:	fa91 f2a1 	rbit	r2, r1
 80022c4:	fab2 f282 	clz	r2, r2
 80022c8:	fa91 f0a1 	rbit	r0, r1
 80022cc:	2601      	movs	r6, #1
 80022ce:	fab0 f080 	clz	r0, r0
 80022d2:	3201      	adds	r2, #1
 80022d4:	4430      	add	r0, r6
 80022d6:	0692      	lsls	r2, r2, #26
 80022d8:	f000 001f 	and.w	r0, r0, #31
 80022dc:	f002 42f8 	and.w	r2, r2, #2080374784	; 0x7c000000
 80022e0:	fa06 f000 	lsl.w	r0, r6, r0
 80022e4:	4302      	orrs	r2, r0
 80022e6:	fa91 f1a1 	rbit	r1, r1
 80022ea:	fab1 f181 	clz	r1, r1
 80022ee:	4431      	add	r1, r6
 80022f0:	f001 011f 	and.w	r1, r1, #31
 80022f4:	eb01 0141 	add.w	r1, r1, r1, lsl #1
 80022f8:	e7b3      	b.n	8002262 <HAL_ADC_ConfigChannel+0x82a>
 80022fa:	0200      	lsls	r0, r0, #8
 80022fc:	f53f acca 	bmi.w	8001c94 <HAL_ADC_ConfigChannel+0x25c>
 8002300:	4a22      	ldr	r2, [pc, #136]	; (800238c <HAL_ADC_ConfigChannel+0x954>)
 8002302:	4293      	cmp	r3, r2
 8002304:	f47f acc6 	bne.w	8001c94 <HAL_ADC_ConfigChannel+0x25c>
 8002308:	4b21      	ldr	r3, [pc, #132]	; (8002390 <HAL_ADC_ConfigChannel+0x958>)
 800230a:	f446 0200 	orr.w	r2, r6, #8388608	; 0x800000
 800230e:	68a1      	ldr	r1, [r4, #8]
 8002310:	681b      	ldr	r3, [r3, #0]
 8002312:	f021 71e0 	bic.w	r1, r1, #29360128	; 0x1c00000
 8002316:	481f      	ldr	r0, [pc, #124]	; (8002394 <HAL_ADC_ConfigChannel+0x95c>)
 8002318:	099b      	lsrs	r3, r3, #6
 800231a:	430a      	orrs	r2, r1
 800231c:	fba0 1303 	umull	r1, r3, r0, r3
 8002320:	60a2      	str	r2, [r4, #8]
 8002322:	099b      	lsrs	r3, r3, #6
 8002324:	005b      	lsls	r3, r3, #1
 8002326:	9301      	str	r3, [sp, #4]
 8002328:	9b01      	ldr	r3, [sp, #4]
 800232a:	2b00      	cmp	r3, #0
 800232c:	f43f acb2 	beq.w	8001c94 <HAL_ADC_ConfigChannel+0x25c>
 8002330:	9b01      	ldr	r3, [sp, #4]
 8002332:	3b01      	subs	r3, #1
 8002334:	9301      	str	r3, [sp, #4]
 8002336:	9b01      	ldr	r3, [sp, #4]
 8002338:	2b00      	cmp	r3, #0
 800233a:	d1f9      	bne.n	8002330 <HAL_ADC_ConfigChannel+0x8f8>
 800233c:	e4aa      	b.n	8001c94 <HAL_ADC_ConfigChannel+0x25c>
 800233e:	01c1      	lsls	r1, r0, #7
 8002340:	f53f aca8 	bmi.w	8001c94 <HAL_ADC_ConfigChannel+0x25c>
 8002344:	4a11      	ldr	r2, [pc, #68]	; (800238c <HAL_ADC_ConfigChannel+0x954>)
 8002346:	4293      	cmp	r3, r2
 8002348:	f47f aca4 	bne.w	8001c94 <HAL_ADC_ConfigChannel+0x25c>
 800234c:	68a2      	ldr	r2, [r4, #8]
 800234e:	f046 7380 	orr.w	r3, r6, #16777216	; 0x1000000
 8002352:	2000      	movs	r0, #0
 8002354:	f022 72e0 	bic.w	r2, r2, #29360128	; 0x1c00000
 8002358:	4313      	orrs	r3, r2
 800235a:	60a3      	str	r3, [r4, #8]
 800235c:	e4ac      	b.n	8001cb8 <HAL_ADC_ConfigChannel+0x280>
 800235e:	bf00      	nop
 8002360:	0800cf54 	.word	0x0800cf54
 8002364:	04300002 	.word	0x04300002
 8002368:	08600004 	.word	0x08600004
 800236c:	0c900008 	.word	0x0c900008
 8002370:	10c00010 	.word	0x10c00010
 8002374:	2a000400 	.word	0x2a000400
 8002378:	43210000 	.word	0x43210000
 800237c:	4b840000 	.word	0x4b840000
 8002380:	40022300 	.word	0x40022300
 8002384:	40022100 	.word	0x40022100
 8002388:	40022000 	.word	0x40022000
 800238c:	58026000 	.word	0x58026000
 8002390:	24000000 	.word	0x24000000
 8002394:	053e2d63 	.word	0x053e2d63

08002398 <ADC_Disable>:
 8002398:	b538      	push	{r3, r4, r5, lr}
 800239a:	6803      	ldr	r3, [r0, #0]
 800239c:	6899      	ldr	r1, [r3, #8]
 800239e:	0789      	lsls	r1, r1, #30
 80023a0:	d502      	bpl.n	80023a8 <ADC_Disable+0x10>
 80023a2:	689b      	ldr	r3, [r3, #8]
 80023a4:	2000      	movs	r0, #0
 80023a6:	bd38      	pop	{r3, r4, r5, pc}
 80023a8:	6899      	ldr	r1, [r3, #8]
 80023aa:	07ca      	lsls	r2, r1, #31
 80023ac:	d523      	bpl.n	80023f6 <ADC_Disable+0x5e>
 80023ae:	6899      	ldr	r1, [r3, #8]
 80023b0:	4604      	mov	r4, r0
 80023b2:	f001 010d 	and.w	r1, r1, #13
 80023b6:	2901      	cmp	r1, #1
 80023b8:	d008      	beq.n	80023cc <ADC_Disable+0x34>
 80023ba:	6d63      	ldr	r3, [r4, #84]	; 0x54
 80023bc:	2001      	movs	r0, #1
 80023be:	f043 0310 	orr.w	r3, r3, #16
 80023c2:	6563      	str	r3, [r4, #84]	; 0x54
 80023c4:	6da3      	ldr	r3, [r4, #88]	; 0x58
 80023c6:	4303      	orrs	r3, r0
 80023c8:	65a3      	str	r3, [r4, #88]	; 0x58
 80023ca:	bd38      	pop	{r3, r4, r5, pc}
 80023cc:	6898      	ldr	r0, [r3, #8]
 80023ce:	2103      	movs	r1, #3
 80023d0:	4a0a      	ldr	r2, [pc, #40]	; (80023fc <ADC_Disable+0x64>)
 80023d2:	4002      	ands	r2, r0
 80023d4:	f042 0202 	orr.w	r2, r2, #2
 80023d8:	609a      	str	r2, [r3, #8]
 80023da:	6019      	str	r1, [r3, #0]
 80023dc:	f7ff f864 	bl	80014a8 <HAL_GetTick>
 80023e0:	4605      	mov	r5, r0
 80023e2:	e004      	b.n	80023ee <ADC_Disable+0x56>
 80023e4:	f7ff f860 	bl	80014a8 <HAL_GetTick>
 80023e8:	1b40      	subs	r0, r0, r5
 80023ea:	2802      	cmp	r0, #2
 80023ec:	d8e5      	bhi.n	80023ba <ADC_Disable+0x22>
 80023ee:	6823      	ldr	r3, [r4, #0]
 80023f0:	689b      	ldr	r3, [r3, #8]
 80023f2:	07db      	lsls	r3, r3, #31
 80023f4:	d4f6      	bmi.n	80023e4 <ADC_Disable+0x4c>
 80023f6:	2000      	movs	r0, #0
 80023f8:	bd38      	pop	{r3, r4, r5, pc}
 80023fa:	bf00      	nop
 80023fc:	7fffffc0 	.word	0x7fffffc0

08002400 <ADC_ConfigureBoostMode>:
 8002400:	b538      	push	{r3, r4, r5, lr}
 8002402:	4a54      	ldr	r2, [pc, #336]	; (8002554 <ADC_ConfigureBoostMode+0x154>)
 8002404:	4605      	mov	r5, r0
 8002406:	6803      	ldr	r3, [r0, #0]
 8002408:	4293      	cmp	r3, r2
 800240a:	d027      	beq.n	800245c <ADC_ConfigureBoostMode+0x5c>
 800240c:	f502 7280 	add.w	r2, r2, #256	; 0x100
 8002410:	4293      	cmp	r3, r2
 8002412:	d023      	beq.n	800245c <ADC_ConfigureBoostMode+0x5c>
 8002414:	4b50      	ldr	r3, [pc, #320]	; (8002558 <ADC_ConfigureBoostMode+0x158>)
 8002416:	689b      	ldr	r3, [r3, #8]
 8002418:	f413 3f40 	tst.w	r3, #196608	; 0x30000
 800241c:	bf14      	ite	ne
 800241e:	2301      	movne	r3, #1
 8002420:	2300      	moveq	r3, #0
 8002422:	b323      	cbz	r3, 800246e <ADC_ConfigureBoostMode+0x6e>
 8002424:	f003 f912 	bl	800564c <HAL_RCC_GetHCLKFreq>
 8002428:	686b      	ldr	r3, [r5, #4]
 800242a:	4604      	mov	r4, r0
 800242c:	f5b3 3f00 	cmp.w	r3, #131072	; 0x20000
 8002430:	d066      	beq.n	8002500 <ADC_ConfigureBoostMode+0x100>
 8002432:	f5b3 3f40 	cmp.w	r3, #196608	; 0x30000
 8002436:	d076      	beq.n	8002526 <ADC_ConfigureBoostMode+0x126>
 8002438:	f5b3 3f80 	cmp.w	r3, #65536	; 0x10000
 800243c:	d060      	beq.n	8002500 <ADC_ConfigureBoostMode+0x100>
 800243e:	f7ff f84b 	bl	80014d8 <HAL_GetREVID>
 8002442:	f241 0303 	movw	r3, #4099	; 0x1003
 8002446:	4298      	cmp	r0, r3
 8002448:	d832      	bhi.n	80024b0 <ADC_ConfigureBoostMode+0xb0>
 800244a:	4a44      	ldr	r2, [pc, #272]	; (800255c <ADC_ConfigureBoostMode+0x15c>)
 800244c:	682b      	ldr	r3, [r5, #0]
 800244e:	4294      	cmp	r4, r2
 8002450:	d928      	bls.n	80024a4 <ADC_ConfigureBoostMode+0xa4>
 8002452:	689a      	ldr	r2, [r3, #8]
 8002454:	f442 7280 	orr.w	r2, r2, #256	; 0x100
 8002458:	609a      	str	r2, [r3, #8]
 800245a:	bd38      	pop	{r3, r4, r5, pc}
 800245c:	4b40      	ldr	r3, [pc, #256]	; (8002560 <ADC_ConfigureBoostMode+0x160>)
 800245e:	689b      	ldr	r3, [r3, #8]
 8002460:	f413 3f40 	tst.w	r3, #196608	; 0x30000
 8002464:	bf14      	ite	ne
 8002466:	2301      	movne	r3, #1
 8002468:	2300      	moveq	r3, #0
 800246a:	2b00      	cmp	r3, #0
 800246c:	d1da      	bne.n	8002424 <ADC_ConfigureBoostMode+0x24>
 800246e:	f44f 2000 	mov.w	r0, #524288	; 0x80000
 8002472:	f004 fb65 	bl	8006b40 <HAL_RCCEx_GetPeriphCLKFreq>
 8002476:	686b      	ldr	r3, [r5, #4]
 8002478:	4604      	mov	r4, r0
 800247a:	f5b3 1fc0 	cmp.w	r3, #1572864	; 0x180000
 800247e:	d04d      	beq.n	800251c <ADC_ConfigureBoostMode+0x11c>
 8002480:	d942      	bls.n	8002508 <ADC_ConfigureBoostMode+0x108>
 8002482:	f5b3 1f10 	cmp.w	r3, #2359296	; 0x240000
 8002486:	d052      	beq.n	800252e <ADC_ConfigureBoostMode+0x12e>
 8002488:	d92b      	bls.n	80024e2 <ADC_ConfigureBoostMode+0xe2>
 800248a:	f5b3 1f20 	cmp.w	r3, #2621440	; 0x280000
 800248e:	d04c      	beq.n	800252a <ADC_ConfigureBoostMode+0x12a>
 8002490:	f5b3 1f30 	cmp.w	r3, #2883584	; 0x2c0000
 8002494:	d1d3      	bne.n	800243e <ADC_ConfigureBoostMode+0x3e>
 8002496:	f7ff f81f 	bl	80014d8 <HAL_GetREVID>
 800249a:	f241 0303 	movw	r3, #4099	; 0x1003
 800249e:	4298      	cmp	r0, r3
 80024a0:	d805      	bhi.n	80024ae <ADC_ConfigureBoostMode+0xae>
 80024a2:	682b      	ldr	r3, [r5, #0]
 80024a4:	689a      	ldr	r2, [r3, #8]
 80024a6:	f422 7280 	bic.w	r2, r2, #256	; 0x100
 80024aa:	609a      	str	r2, [r3, #8]
 80024ac:	bd38      	pop	{r3, r4, r5, pc}
 80024ae:	0a24      	lsrs	r4, r4, #8
 80024b0:	0864      	lsrs	r4, r4, #1
 80024b2:	4a2c      	ldr	r2, [pc, #176]	; (8002564 <ADC_ConfigureBoostMode+0x164>)
 80024b4:	682b      	ldr	r3, [r5, #0]
 80024b6:	4294      	cmp	r4, r2
 80024b8:	d90e      	bls.n	80024d8 <ADC_ConfigureBoostMode+0xd8>
 80024ba:	4a2b      	ldr	r2, [pc, #172]	; (8002568 <ADC_ConfigureBoostMode+0x168>)
 80024bc:	492b      	ldr	r1, [pc, #172]	; (800256c <ADC_ConfigureBoostMode+0x16c>)
 80024be:	4422      	add	r2, r4
 80024c0:	428a      	cmp	r2, r1
 80024c2:	d916      	bls.n	80024f2 <ADC_ConfigureBoostMode+0xf2>
 80024c4:	4a2a      	ldr	r2, [pc, #168]	; (8002570 <ADC_ConfigureBoostMode+0x170>)
 80024c6:	492b      	ldr	r1, [pc, #172]	; (8002574 <ADC_ConfigureBoostMode+0x174>)
 80024c8:	4422      	add	r2, r4
 80024ca:	428a      	cmp	r2, r1
 80024cc:	689a      	ldr	r2, [r3, #8]
 80024ce:	d932      	bls.n	8002536 <ADC_ConfigureBoostMode+0x136>
 80024d0:	f442 7240 	orr.w	r2, r2, #768	; 0x300
 80024d4:	609a      	str	r2, [r3, #8]
 80024d6:	bd38      	pop	{r3, r4, r5, pc}
 80024d8:	689a      	ldr	r2, [r3, #8]
 80024da:	f422 7240 	bic.w	r2, r2, #768	; 0x300
 80024de:	609a      	str	r2, [r3, #8]
 80024e0:	bd38      	pop	{r3, r4, r5, pc}
 80024e2:	f5b3 1fe0 	cmp.w	r3, #1835008	; 0x1c0000
 80024e6:	d024      	beq.n	8002532 <ADC_ConfigureBoostMode+0x132>
 80024e8:	f5b3 1f00 	cmp.w	r3, #2097152	; 0x200000
 80024ec:	d1a7      	bne.n	800243e <ADC_ConfigureBoostMode+0x3e>
 80024ee:	0944      	lsrs	r4, r0, #5
 80024f0:	e7a5      	b.n	800243e <ADC_ConfigureBoostMode+0x3e>
 80024f2:	689a      	ldr	r2, [r3, #8]
 80024f4:	f422 7240 	bic.w	r2, r2, #768	; 0x300
 80024f8:	f442 7280 	orr.w	r2, r2, #256	; 0x100
 80024fc:	609a      	str	r2, [r3, #8]
 80024fe:	bd38      	pop	{r3, r4, r5, pc}
 8002500:	0c1b      	lsrs	r3, r3, #16
 8002502:	fbb4 f4f3 	udiv	r4, r4, r3
 8002506:	e79a      	b.n	800243e <ADC_ConfigureBoostMode+0x3e>
 8002508:	f5b3 2f40 	cmp.w	r3, #786432	; 0xc0000
 800250c:	d006      	beq.n	800251c <ADC_ConfigureBoostMode+0x11c>
 800250e:	d818      	bhi.n	8002542 <ADC_ConfigureBoostMode+0x142>
 8002510:	f5b3 2f80 	cmp.w	r3, #262144	; 0x40000
 8002514:	d002      	beq.n	800251c <ADC_ConfigureBoostMode+0x11c>
 8002516:	f5b3 2f00 	cmp.w	r3, #524288	; 0x80000
 800251a:	d190      	bne.n	800243e <ADC_ConfigureBoostMode+0x3e>
 800251c:	0c9b      	lsrs	r3, r3, #18
 800251e:	005b      	lsls	r3, r3, #1
 8002520:	fbb4 f4f3 	udiv	r4, r4, r3
 8002524:	e78b      	b.n	800243e <ADC_ConfigureBoostMode+0x3e>
 8002526:	0884      	lsrs	r4, r0, #2
 8002528:	e789      	b.n	800243e <ADC_ConfigureBoostMode+0x3e>
 800252a:	09c4      	lsrs	r4, r0, #7
 800252c:	e787      	b.n	800243e <ADC_ConfigureBoostMode+0x3e>
 800252e:	0984      	lsrs	r4, r0, #6
 8002530:	e785      	b.n	800243e <ADC_ConfigureBoostMode+0x3e>
 8002532:	0904      	lsrs	r4, r0, #4
 8002534:	e783      	b.n	800243e <ADC_ConfigureBoostMode+0x3e>
 8002536:	f422 7240 	bic.w	r2, r2, #768	; 0x300
 800253a:	f442 7200 	orr.w	r2, r2, #512	; 0x200
 800253e:	609a      	str	r2, [r3, #8]
 8002540:	bd38      	pop	{r3, r4, r5, pc}
 8002542:	f5b3 1f80 	cmp.w	r3, #1048576	; 0x100000
 8002546:	d0e9      	beq.n	800251c <ADC_ConfigureBoostMode+0x11c>
 8002548:	f5b3 1fa0 	cmp.w	r3, #1310720	; 0x140000
 800254c:	f47f af77 	bne.w	800243e <ADC_ConfigureBoostMode+0x3e>
 8002550:	e7e4      	b.n	800251c <ADC_ConfigureBoostMode+0x11c>
 8002552:	bf00      	nop
 8002554:	40022000 	.word	0x40022000
 8002558:	58026300 	.word	0x58026300
 800255c:	01312d00 	.word	0x01312d00
 8002560:	40022300 	.word	0x40022300
 8002564:	005f5e10 	.word	0x005f5e10
 8002568:	ffa0a1ef 	.word	0xffa0a1ef
 800256c:	005f5e0f 	.word	0x005f5e0f
 8002570:	ff4143df 	.word	0xff4143df
 8002574:	00bebc1f 	.word	0x00bebc1f

08002578 <HAL_ADC_Init>:
 8002578:	b5f0      	push	{r4, r5, r6, r7, lr}
 800257a:	2300      	movs	r3, #0
 800257c:	b083      	sub	sp, #12
 800257e:	9301      	str	r3, [sp, #4]
 8002580:	2800      	cmp	r0, #0
 8002582:	f000 81b5 	beq.w	80028f0 <HAL_ADC_Init+0x378>
 8002586:	6803      	ldr	r3, [r0, #0]
 8002588:	4604      	mov	r4, r0
 800258a:	49b7      	ldr	r1, [pc, #732]	; (8002868 <HAL_ADC_Init+0x2f0>)
 800258c:	4ab7      	ldr	r2, [pc, #732]	; (800286c <HAL_ADC_Init+0x2f4>)
 800258e:	428b      	cmp	r3, r1
 8002590:	bf18      	it	ne
 8002592:	4293      	cmpne	r3, r2
 8002594:	d003      	beq.n	800259e <HAL_ADC_Init+0x26>
 8002596:	4ab6      	ldr	r2, [pc, #728]	; (8002870 <HAL_ADC_Init+0x2f8>)
 8002598:	4293      	cmp	r3, r2
 800259a:	f040 81ba 	bne.w	8002912 <HAL_ADC_Init+0x39a>
 800259e:	6862      	ldr	r2, [r4, #4]
 80025a0:	f422 2300 	bic.w	r3, r2, #524288	; 0x80000
 80025a4:	f422 3540 	bic.w	r5, r2, #196608	; 0x30000
 80025a8:	f422 1080 	bic.w	r0, r2, #1048576	; 0x100000
 80025ac:	f422 2180 	bic.w	r1, r2, #262144	; 0x40000
 80025b0:	f5b3 2f80 	cmp.w	r3, #262144	; 0x40000
 80025b4:	bf18      	it	ne
 80025b6:	2d00      	cmpne	r5, #0
 80025b8:	bf14      	ite	ne
 80025ba:	2301      	movne	r3, #1
 80025bc:	2300      	moveq	r3, #0
 80025be:	f5b2 1fe0 	cmp.w	r2, #1835008	; 0x1c0000
 80025c2:	bf0c      	ite	eq
 80025c4:	2300      	moveq	r3, #0
 80025c6:	f003 0301 	andne.w	r3, r3, #1
 80025ca:	f5b0 2f00 	cmp.w	r0, #524288	; 0x80000
 80025ce:	bf0c      	ite	eq
 80025d0:	2300      	moveq	r3, #0
 80025d2:	f003 0301 	andne.w	r3, r3, #1
 80025d6:	f5b1 1f80 	cmp.w	r1, #1048576	; 0x100000
 80025da:	bf0c      	ite	eq
 80025dc:	2300      	moveq	r3, #0
 80025de:	f003 0301 	andne.w	r3, r3, #1
 80025e2:	b12b      	cbz	r3, 80025f0 <HAL_ADC_Init+0x78>
 80025e4:	f422 2240 	bic.w	r2, r2, #786432	; 0xc0000
 80025e8:	f5b2 1f00 	cmp.w	r2, #2097152	; 0x200000
 80025ec:	f040 81e6 	bne.w	80029bc <HAL_ADC_Init+0x444>
 80025f0:	68a2      	ldr	r2, [r4, #8]
 80025f2:	2a10      	cmp	r2, #16
 80025f4:	f200 8187 	bhi.w	8002906 <HAL_ADC_Init+0x38e>
 80025f8:	4b9e      	ldr	r3, [pc, #632]	; (8002874 <HAL_ADC_Init+0x2fc>)
 80025fa:	40d3      	lsrs	r3, r2
 80025fc:	07dd      	lsls	r5, r3, #31
 80025fe:	f140 8182 	bpl.w	8002906 <HAL_ADC_Init+0x38e>
 8002602:	68e3      	ldr	r3, [r4, #12]
 8002604:	2b01      	cmp	r3, #1
 8002606:	f200 8155 	bhi.w	80028b4 <HAL_ADC_Init+0x33c>
 800260a:	7d63      	ldrb	r3, [r4, #21]
 800260c:	2b01      	cmp	r3, #1
 800260e:	f200 8141 	bhi.w	8002894 <HAL_ADC_Init+0x31c>
 8002612:	6aa3      	ldr	r3, [r4, #40]	; 0x28
 8002614:	f433 6340 	bics.w	r3, r3, #3072	; 0xc00
 8002618:	f040 8146 	bne.w	80028a8 <HAL_ADC_Init+0x330>
 800261c:	6a62      	ldr	r2, [r4, #36]	; 0x24
 800261e:	f5b2 6fd0 	cmp.w	r2, #1664	; 0x680
 8002622:	bf18      	it	ne
 8002624:	f5b2 6fb8 	cmpne.w	r2, #1472	; 0x5c0
 8002628:	f022 0040 	bic.w	r0, r2, #64	; 0x40
 800262c:	f022 0180 	bic.w	r1, r2, #128	; 0x80
 8002630:	f422 7590 	bic.w	r5, r2, #288	; 0x120
 8002634:	bf14      	ite	ne
 8002636:	2301      	movne	r3, #1
 8002638:	2300      	moveq	r3, #0
 800263a:	f5b0 6f84 	cmp.w	r0, #1056	; 0x420
 800263e:	bf0c      	ite	eq
 8002640:	2300      	moveq	r3, #0
 8002642:	f003 0301 	andne.w	r3, r3, #1
 8002646:	f422 7080 	bic.w	r0, r2, #256	; 0x100
 800264a:	f5b1 6f88 	cmp.w	r1, #1088	; 0x440
 800264e:	bf0c      	ite	eq
 8002650:	2300      	moveq	r3, #0
 8002652:	f003 0301 	andne.w	r3, r3, #1
 8002656:	f022 0160 	bic.w	r1, r2, #96	; 0x60
 800265a:	f5b5 6f90 	cmp.w	r5, #1152	; 0x480
 800265e:	bf0c      	ite	eq
 8002660:	2300      	moveq	r3, #0
 8002662:	f003 0301 	andne.w	r3, r3, #1
 8002666:	f5b0 6f9c 	cmp.w	r0, #1248	; 0x4e0
 800266a:	bf0c      	ite	eq
 800266c:	2300      	moveq	r3, #0
 800266e:	f003 0301 	andne.w	r3, r3, #1
 8002672:	f5b1 6fa0 	cmp.w	r1, #1280	; 0x500
 8002676:	bf0c      	ite	eq
 8002678:	2300      	moveq	r3, #0
 800267a:	f003 0301 	andne.w	r3, r3, #1
 800267e:	f5b1 6fc0 	cmp.w	r1, #1536	; 0x600
 8002682:	bf0c      	ite	eq
 8002684:	2300      	moveq	r3, #0
 8002686:	f003 0301 	andne.w	r3, r3, #1
 800268a:	b11b      	cbz	r3, 8002694 <HAL_ADC_Init+0x11c>
 800268c:	f432 6380 	bics.w	r3, r2, #1024	; 0x400
 8002690:	f040 819a 	bne.w	80029c8 <HAL_ADC_Init+0x450>
 8002694:	6ae3      	ldr	r3, [r4, #44]	; 0x2c
 8002696:	2b03      	cmp	r3, #3
 8002698:	f200 816d 	bhi.w	8002976 <HAL_ADC_Init+0x3fe>
 800269c:	6923      	ldr	r3, [r4, #16]
 800269e:	2b04      	cmp	r3, #4
 80026a0:	d006      	beq.n	80026b0 <HAL_ADC_Init+0x138>
 80026a2:	2b08      	cmp	r3, #8
 80026a4:	d004      	beq.n	80026b0 <HAL_ADC_Init+0x138>
 80026a6:	f44f 71d7 	mov.w	r1, #430	; 0x1ae
 80026aa:	4873      	ldr	r0, [pc, #460]	; (8002878 <HAL_ADC_Init+0x300>)
 80026ac:	f7fe fbf8 	bl	8000ea0 <assert_failed>
 80026b0:	6b23      	ldr	r3, [r4, #48]	; 0x30
 80026b2:	f433 5380 	bics.w	r3, r3, #4096	; 0x1000
 80026b6:	f040 8107 	bne.w	80028c8 <HAL_ADC_Init+0x350>
 80026ba:	7d23      	ldrb	r3, [r4, #20]
 80026bc:	2b01      	cmp	r3, #1
 80026be:	f200 80c8 	bhi.w	8002852 <HAL_ADC_Init+0x2da>
 80026c2:	f894 3038 	ldrb.w	r3, [r4, #56]	; 0x38
 80026c6:	2b01      	cmp	r3, #1
 80026c8:	f200 80b9 	bhi.w	800283e <HAL_ADC_Init+0x2c6>
 80026cc:	68e3      	ldr	r3, [r4, #12]
 80026ce:	2b00      	cmp	r3, #0
 80026d0:	f040 809a 	bne.w	8002808 <HAL_ADC_Init+0x290>
 80026d4:	7f23      	ldrb	r3, [r4, #28]
 80026d6:	2b01      	cmp	r3, #1
 80026d8:	f000 80a7 	beq.w	800282a <HAL_ADC_Init+0x2b2>
 80026dc:	6d65      	ldr	r5, [r4, #84]	; 0x54
 80026de:	2d00      	cmp	r5, #0
 80026e0:	f000 810a 	beq.w	80028f8 <HAL_ADC_Init+0x380>
 80026e4:	6822      	ldr	r2, [r4, #0]
 80026e6:	6893      	ldr	r3, [r2, #8]
 80026e8:	0098      	lsls	r0, r3, #2
 80026ea:	d503      	bpl.n	80026f4 <HAL_ADC_Init+0x17c>
 80026ec:	6891      	ldr	r1, [r2, #8]
 80026ee:	4b63      	ldr	r3, [pc, #396]	; (800287c <HAL_ADC_Init+0x304>)
 80026f0:	400b      	ands	r3, r1
 80026f2:	6093      	str	r3, [r2, #8]
 80026f4:	6893      	ldr	r3, [r2, #8]
 80026f6:	00d9      	lsls	r1, r3, #3
 80026f8:	d415      	bmi.n	8002726 <HAL_ADC_Init+0x1ae>
 80026fa:	4b61      	ldr	r3, [pc, #388]	; (8002880 <HAL_ADC_Init+0x308>)
 80026fc:	6890      	ldr	r0, [r2, #8]
 80026fe:	681b      	ldr	r3, [r3, #0]
 8002700:	4d60      	ldr	r5, [pc, #384]	; (8002884 <HAL_ADC_Init+0x30c>)
 8002702:	099b      	lsrs	r3, r3, #6
 8002704:	4960      	ldr	r1, [pc, #384]	; (8002888 <HAL_ADC_Init+0x310>)
 8002706:	fba5 5303 	umull	r5, r3, r5, r3
 800270a:	4001      	ands	r1, r0
 800270c:	099b      	lsrs	r3, r3, #6
 800270e:	f041 5180 	orr.w	r1, r1, #268435456	; 0x10000000
 8002712:	6091      	str	r1, [r2, #8]
 8002714:	9301      	str	r3, [sp, #4]
 8002716:	9b01      	ldr	r3, [sp, #4]
 8002718:	b12b      	cbz	r3, 8002726 <HAL_ADC_Init+0x1ae>
 800271a:	9b01      	ldr	r3, [sp, #4]
 800271c:	3b01      	subs	r3, #1
 800271e:	9301      	str	r3, [sp, #4]
 8002720:	9b01      	ldr	r3, [sp, #4]
 8002722:	2b00      	cmp	r3, #0
 8002724:	d1f9      	bne.n	800271a <HAL_ADC_Init+0x1a2>
 8002726:	6893      	ldr	r3, [r2, #8]
 8002728:	00db      	lsls	r3, r3, #3
 800272a:	f100 80df 	bmi.w	80028ec <HAL_ADC_Init+0x374>
 800272e:	6d63      	ldr	r3, [r4, #84]	; 0x54
 8002730:	2501      	movs	r5, #1
 8002732:	f043 0310 	orr.w	r3, r3, #16
 8002736:	6563      	str	r3, [r4, #84]	; 0x54
 8002738:	6da3      	ldr	r3, [r4, #88]	; 0x58
 800273a:	432b      	orrs	r3, r5
 800273c:	65a3      	str	r3, [r4, #88]	; 0x58
 800273e:	6893      	ldr	r3, [r2, #8]
 8002740:	f013 0f04 	tst.w	r3, #4
 8002744:	6d63      	ldr	r3, [r4, #84]	; 0x54
 8002746:	f040 80c9 	bne.w	80028dc <HAL_ADC_Init+0x364>
 800274a:	06df      	lsls	r7, r3, #27
 800274c:	f100 80c6 	bmi.w	80028dc <HAL_ADC_Init+0x364>
 8002750:	6d63      	ldr	r3, [r4, #84]	; 0x54
 8002752:	f423 7381 	bic.w	r3, r3, #258	; 0x102
 8002756:	f043 0302 	orr.w	r3, r3, #2
 800275a:	6563      	str	r3, [r4, #84]	; 0x54
 800275c:	6893      	ldr	r3, [r2, #8]
 800275e:	07de      	lsls	r6, r3, #31
 8002760:	d413      	bmi.n	800278a <HAL_ADC_Init+0x212>
 8002762:	4b41      	ldr	r3, [pc, #260]	; (8002868 <HAL_ADC_Init+0x2f0>)
 8002764:	429a      	cmp	r2, r3
 8002766:	f000 811f 	beq.w	80029a8 <HAL_ADC_Init+0x430>
 800276a:	f503 7380 	add.w	r3, r3, #256	; 0x100
 800276e:	429a      	cmp	r2, r3
 8002770:	f000 811a 	beq.w	80029a8 <HAL_ADC_Init+0x430>
 8002774:	4b3e      	ldr	r3, [pc, #248]	; (8002870 <HAL_ADC_Init+0x2f8>)
 8002776:	689b      	ldr	r3, [r3, #8]
 8002778:	07d9      	lsls	r1, r3, #31
 800277a:	d406      	bmi.n	800278a <HAL_ADC_Init+0x212>
 800277c:	4a43      	ldr	r2, [pc, #268]	; (800288c <HAL_ADC_Init+0x314>)
 800277e:	6893      	ldr	r3, [r2, #8]
 8002780:	6861      	ldr	r1, [r4, #4]
 8002782:	f423 137c 	bic.w	r3, r3, #4128768	; 0x3f0000
 8002786:	430b      	orrs	r3, r1
 8002788:	6093      	str	r3, [r2, #8]
 800278a:	f7fe fea5 	bl	80014d8 <HAL_GetREVID>
 800278e:	f241 0303 	movw	r3, #4099	; 0x1003
 8002792:	7d61      	ldrb	r1, [r4, #21]
 8002794:	4298      	cmp	r0, r3
 8002796:	7f20      	ldrb	r0, [r4, #28]
 8002798:	f240 80f3 	bls.w	8002982 <HAL_ADC_Init+0x40a>
 800279c:	68a3      	ldr	r3, [r4, #8]
 800279e:	0349      	lsls	r1, r1, #13
 80027a0:	0402      	lsls	r2, r0, #16
 80027a2:	6b26      	ldr	r6, [r4, #48]	; 0x30
 80027a4:	2b10      	cmp	r3, #16
 80027a6:	f000 814f 	beq.w	8002a48 <HAL_ADC_Init+0x4d0>
 80027aa:	4319      	orrs	r1, r3
 80027ac:	4331      	orrs	r1, r6
 80027ae:	4311      	orrs	r1, r2
 80027b0:	2801      	cmp	r0, #1
 80027b2:	d103      	bne.n	80027bc <HAL_ADC_Init+0x244>
 80027b4:	6a23      	ldr	r3, [r4, #32]
 80027b6:	3b01      	subs	r3, #1
 80027b8:	ea41 4143 	orr.w	r1, r1, r3, lsl #17
 80027bc:	6a63      	ldr	r3, [r4, #36]	; 0x24
 80027be:	b123      	cbz	r3, 80027ca <HAL_ADC_Init+0x252>
 80027c0:	f403 7378 	and.w	r3, r3, #992	; 0x3e0
 80027c4:	6aa2      	ldr	r2, [r4, #40]	; 0x28
 80027c6:	4313      	orrs	r3, r2
 80027c8:	4319      	orrs	r1, r3
 80027ca:	6823      	ldr	r3, [r4, #0]
 80027cc:	4a30      	ldr	r2, [pc, #192]	; (8002890 <HAL_ADC_Init+0x318>)
 80027ce:	68d8      	ldr	r0, [r3, #12]
 80027d0:	4002      	ands	r2, r0
 80027d2:	430a      	orrs	r2, r1
 80027d4:	60da      	str	r2, [r3, #12]
 80027d6:	689a      	ldr	r2, [r3, #8]
 80027d8:	f012 0f04 	tst.w	r2, #4
 80027dc:	689a      	ldr	r2, [r3, #8]
 80027de:	d102      	bne.n	80027e6 <HAL_ADC_Init+0x26e>
 80027e0:	0712      	lsls	r2, r2, #28
 80027e2:	f140 80a6 	bpl.w	8002932 <HAL_ADC_Init+0x3ba>
 80027e6:	68e2      	ldr	r2, [r4, #12]
 80027e8:	2a01      	cmp	r2, #1
 80027ea:	f000 80cf 	beq.w	800298c <HAL_ADC_Init+0x414>
 80027ee:	6b1a      	ldr	r2, [r3, #48]	; 0x30
 80027f0:	f022 020f 	bic.w	r2, r2, #15
 80027f4:	631a      	str	r2, [r3, #48]	; 0x30
 80027f6:	6d63      	ldr	r3, [r4, #84]	; 0x54
 80027f8:	4628      	mov	r0, r5
 80027fa:	f023 0303 	bic.w	r3, r3, #3
 80027fe:	f043 0301 	orr.w	r3, r3, #1
 8002802:	6563      	str	r3, [r4, #84]	; 0x54
 8002804:	b003      	add	sp, #12
 8002806:	bdf0      	pop	{r4, r5, r6, r7, pc}
 8002808:	69a3      	ldr	r3, [r4, #24]
 800280a:	3b01      	subs	r3, #1
 800280c:	2b0f      	cmp	r3, #15
 800280e:	f200 80ac 	bhi.w	800296a <HAL_ADC_Init+0x3f2>
 8002812:	7f23      	ldrb	r3, [r4, #28]
 8002814:	2b01      	cmp	r3, #1
 8002816:	f200 8082 	bhi.w	800291e <HAL_ADC_Init+0x3a6>
 800281a:	2b01      	cmp	r3, #1
 800281c:	f47f af5e 	bne.w	80026dc <HAL_ADC_Init+0x164>
 8002820:	6a23      	ldr	r3, [r4, #32]
 8002822:	3b01      	subs	r3, #1
 8002824:	2b07      	cmp	r3, #7
 8002826:	f200 80b9 	bhi.w	800299c <HAL_ADC_Init+0x424>
 800282a:	7d63      	ldrb	r3, [r4, #21]
 800282c:	2b01      	cmp	r3, #1
 800282e:	f47f af55 	bne.w	80026dc <HAL_ADC_Init+0x164>
 8002832:	f240 11bf 	movw	r1, #447	; 0x1bf
 8002836:	4810      	ldr	r0, [pc, #64]	; (8002878 <HAL_ADC_Init+0x300>)
 8002838:	f7fe fb32 	bl	8000ea0 <assert_failed>
 800283c:	e74e      	b.n	80026dc <HAL_ADC_Init+0x164>
 800283e:	f240 11b1 	movw	r1, #433	; 0x1b1
 8002842:	480d      	ldr	r0, [pc, #52]	; (8002878 <HAL_ADC_Init+0x300>)
 8002844:	f7fe fb2c 	bl	8000ea0 <assert_failed>
 8002848:	68e3      	ldr	r3, [r4, #12]
 800284a:	2b00      	cmp	r3, #0
 800284c:	f43f af42 	beq.w	80026d4 <HAL_ADC_Init+0x15c>
 8002850:	e7da      	b.n	8002808 <HAL_ADC_Init+0x290>
 8002852:	f44f 71d8 	mov.w	r1, #432	; 0x1b0
 8002856:	4808      	ldr	r0, [pc, #32]	; (8002878 <HAL_ADC_Init+0x300>)
 8002858:	f7fe fb22 	bl	8000ea0 <assert_failed>
 800285c:	f894 3038 	ldrb.w	r3, [r4, #56]	; 0x38
 8002860:	2b01      	cmp	r3, #1
 8002862:	f67f af33 	bls.w	80026cc <HAL_ADC_Init+0x154>
 8002866:	e7ea      	b.n	800283e <HAL_ADC_Init+0x2c6>
 8002868:	40022000 	.word	0x40022000
 800286c:	40022100 	.word	0x40022100
 8002870:	58026000 	.word	0x58026000
 8002874:	00011111 	.word	0x00011111
 8002878:	0800cf54 	.word	0x0800cf54
 800287c:	5fffffc0 	.word	0x5fffffc0
 8002880:	24000000 	.word	0x24000000
 8002884:	053e2d63 	.word	0x053e2d63
 8002888:	6fffffc0 	.word	0x6fffffc0
 800288c:	58026300 	.word	0x58026300
 8002890:	fff0c003 	.word	0xfff0c003
 8002894:	f44f 71d5 	mov.w	r1, #426	; 0x1aa
 8002898:	487a      	ldr	r0, [pc, #488]	; (8002a84 <HAL_ADC_Init+0x50c>)
 800289a:	f7fe fb01 	bl	8000ea0 <assert_failed>
 800289e:	6aa3      	ldr	r3, [r4, #40]	; 0x28
 80028a0:	f433 6340 	bics.w	r3, r3, #3072	; 0xc00
 80028a4:	f43f aeba 	beq.w	800261c <HAL_ADC_Init+0xa4>
 80028a8:	f240 11ab 	movw	r1, #427	; 0x1ab
 80028ac:	4875      	ldr	r0, [pc, #468]	; (8002a84 <HAL_ADC_Init+0x50c>)
 80028ae:	f7fe faf7 	bl	8000ea0 <assert_failed>
 80028b2:	e6b3      	b.n	800261c <HAL_ADC_Init+0xa4>
 80028b4:	f240 11a9 	movw	r1, #425	; 0x1a9
 80028b8:	4872      	ldr	r0, [pc, #456]	; (8002a84 <HAL_ADC_Init+0x50c>)
 80028ba:	f7fe faf1 	bl	8000ea0 <assert_failed>
 80028be:	7d63      	ldrb	r3, [r4, #21]
 80028c0:	2b01      	cmp	r3, #1
 80028c2:	f67f aea6 	bls.w	8002612 <HAL_ADC_Init+0x9a>
 80028c6:	e7e5      	b.n	8002894 <HAL_ADC_Init+0x31c>
 80028c8:	f240 11af 	movw	r1, #431	; 0x1af
 80028cc:	486d      	ldr	r0, [pc, #436]	; (8002a84 <HAL_ADC_Init+0x50c>)
 80028ce:	f7fe fae7 	bl	8000ea0 <assert_failed>
 80028d2:	7d23      	ldrb	r3, [r4, #20]
 80028d4:	2b01      	cmp	r3, #1
 80028d6:	f67f aef4 	bls.w	80026c2 <HAL_ADC_Init+0x14a>
 80028da:	e7ba      	b.n	8002852 <HAL_ADC_Init+0x2da>
 80028dc:	6d63      	ldr	r3, [r4, #84]	; 0x54
 80028de:	2501      	movs	r5, #1
 80028e0:	f043 0310 	orr.w	r3, r3, #16
 80028e4:	4628      	mov	r0, r5
 80028e6:	6563      	str	r3, [r4, #84]	; 0x54
 80028e8:	b003      	add	sp, #12
 80028ea:	bdf0      	pop	{r4, r5, r6, r7, pc}
 80028ec:	2500      	movs	r5, #0
 80028ee:	e726      	b.n	800273e <HAL_ADC_Init+0x1c6>
 80028f0:	2501      	movs	r5, #1
 80028f2:	4628      	mov	r0, r5
 80028f4:	b003      	add	sp, #12
 80028f6:	bdf0      	pop	{r4, r5, r6, r7, pc}
 80028f8:	4620      	mov	r0, r4
 80028fa:	f7fd ff0b 	bl	8000714 <HAL_ADC_MspInit>
 80028fe:	65a5      	str	r5, [r4, #88]	; 0x58
 8002900:	f884 5050 	strb.w	r5, [r4, #80]	; 0x50
 8002904:	e6ee      	b.n	80026e4 <HAL_ADC_Init+0x16c>
 8002906:	f44f 71d4 	mov.w	r1, #424	; 0x1a8
 800290a:	485e      	ldr	r0, [pc, #376]	; (8002a84 <HAL_ADC_Init+0x50c>)
 800290c:	f7fe fac8 	bl	8000ea0 <assert_failed>
 8002910:	e677      	b.n	8002602 <HAL_ADC_Init+0x8a>
 8002912:	f44f 71d3 	mov.w	r1, #422	; 0x1a6
 8002916:	485b      	ldr	r0, [pc, #364]	; (8002a84 <HAL_ADC_Init+0x50c>)
 8002918:	f7fe fac2 	bl	8000ea0 <assert_failed>
 800291c:	e63f      	b.n	800259e <HAL_ADC_Init+0x26>
 800291e:	f44f 71db 	mov.w	r1, #438	; 0x1b6
 8002922:	4858      	ldr	r0, [pc, #352]	; (8002a84 <HAL_ADC_Init+0x50c>)
 8002924:	f7fe fabc 	bl	8000ea0 <assert_failed>
 8002928:	7f23      	ldrb	r3, [r4, #28]
 800292a:	2b01      	cmp	r3, #1
 800292c:	f47f aed6 	bne.w	80026dc <HAL_ADC_Init+0x164>
 8002930:	e776      	b.n	8002820 <HAL_ADC_Init+0x2a8>
 8002932:	68d8      	ldr	r0, [r3, #12]
 8002934:	4a54      	ldr	r2, [pc, #336]	; (8002a88 <HAL_ADC_Init+0x510>)
 8002936:	7d21      	ldrb	r1, [r4, #20]
 8002938:	4002      	ands	r2, r0
 800293a:	6ae0      	ldr	r0, [r4, #44]	; 0x2c
 800293c:	ea42 3281 	orr.w	r2, r2, r1, lsl #14
 8002940:	f894 1038 	ldrb.w	r1, [r4, #56]	; 0x38
 8002944:	4302      	orrs	r2, r0
 8002946:	2901      	cmp	r1, #1
 8002948:	60da      	str	r2, [r3, #12]
 800294a:	d043      	beq.n	80029d4 <HAL_ADC_Init+0x45c>
 800294c:	691a      	ldr	r2, [r3, #16]
 800294e:	f022 0201 	bic.w	r2, r2, #1
 8002952:	611a      	str	r2, [r3, #16]
 8002954:	691a      	ldr	r2, [r3, #16]
 8002956:	4620      	mov	r0, r4
 8002958:	6b61      	ldr	r1, [r4, #52]	; 0x34
 800295a:	f022 4270 	bic.w	r2, r2, #4026531840	; 0xf0000000
 800295e:	430a      	orrs	r2, r1
 8002960:	611a      	str	r2, [r3, #16]
 8002962:	f7ff fd4d 	bl	8002400 <ADC_ConfigureBoostMode>
 8002966:	6823      	ldr	r3, [r4, #0]
 8002968:	e73d      	b.n	80027e6 <HAL_ADC_Init+0x26e>
 800296a:	f240 11b5 	movw	r1, #437	; 0x1b5
 800296e:	4845      	ldr	r0, [pc, #276]	; (8002a84 <HAL_ADC_Init+0x50c>)
 8002970:	f7fe fa96 	bl	8000ea0 <assert_failed>
 8002974:	e74d      	b.n	8002812 <HAL_ADC_Init+0x29a>
 8002976:	f240 11ad 	movw	r1, #429	; 0x1ad
 800297a:	4842      	ldr	r0, [pc, #264]	; (8002a84 <HAL_ADC_Init+0x50c>)
 800297c:	f7fe fa90 	bl	8000ea0 <assert_failed>
 8002980:	e68c      	b.n	800269c <HAL_ADC_Init+0x124>
 8002982:	0349      	lsls	r1, r1, #13
 8002984:	68a3      	ldr	r3, [r4, #8]
 8002986:	0402      	lsls	r2, r0, #16
 8002988:	6b26      	ldr	r6, [r4, #48]	; 0x30
 800298a:	e70e      	b.n	80027aa <HAL_ADC_Init+0x232>
 800298c:	6b19      	ldr	r1, [r3, #48]	; 0x30
 800298e:	69a2      	ldr	r2, [r4, #24]
 8002990:	f021 010f 	bic.w	r1, r1, #15
 8002994:	3a01      	subs	r2, #1
 8002996:	430a      	orrs	r2, r1
 8002998:	631a      	str	r2, [r3, #48]	; 0x30
 800299a:	e72c      	b.n	80027f6 <HAL_ADC_Init+0x27e>
 800299c:	f44f 71dd 	mov.w	r1, #442	; 0x1ba
 80029a0:	4838      	ldr	r0, [pc, #224]	; (8002a84 <HAL_ADC_Init+0x50c>)
 80029a2:	f7fe fa7d 	bl	8000ea0 <assert_failed>
 80029a6:	e695      	b.n	80026d4 <HAL_ADC_Init+0x15c>
 80029a8:	4a38      	ldr	r2, [pc, #224]	; (8002a8c <HAL_ADC_Init+0x514>)
 80029aa:	4b39      	ldr	r3, [pc, #228]	; (8002a90 <HAL_ADC_Init+0x518>)
 80029ac:	6892      	ldr	r2, [r2, #8]
 80029ae:	689b      	ldr	r3, [r3, #8]
 80029b0:	4313      	orrs	r3, r2
 80029b2:	07d8      	lsls	r0, r3, #31
 80029b4:	f53f aee9 	bmi.w	800278a <HAL_ADC_Init+0x212>
 80029b8:	4a36      	ldr	r2, [pc, #216]	; (8002a94 <HAL_ADC_Init+0x51c>)
 80029ba:	e6e0      	b.n	800277e <HAL_ADC_Init+0x206>
 80029bc:	f240 11a7 	movw	r1, #423	; 0x1a7
 80029c0:	4830      	ldr	r0, [pc, #192]	; (8002a84 <HAL_ADC_Init+0x50c>)
 80029c2:	f7fe fa6d 	bl	8000ea0 <assert_failed>
 80029c6:	e613      	b.n	80025f0 <HAL_ADC_Init+0x78>
 80029c8:	f44f 71d6 	mov.w	r1, #428	; 0x1ac
 80029cc:	482d      	ldr	r0, [pc, #180]	; (8002a84 <HAL_ADC_Init+0x50c>)
 80029ce:	f7fe fa67 	bl	8000ea0 <assert_failed>
 80029d2:	e65f      	b.n	8002694 <HAL_ADC_Init+0x11c>
 80029d4:	6be3      	ldr	r3, [r4, #60]	; 0x3c
 80029d6:	3b01      	subs	r3, #1
 80029d8:	f5b3 6f80 	cmp.w	r3, #1024	; 0x400
 80029dc:	d245      	bcs.n	8002a6a <HAL_ADC_Init+0x4f2>
 80029de:	6c22      	ldr	r2, [r4, #64]	; 0x40
 80029e0:	f032 0160 	bics.w	r1, r2, #96	; 0x60
 80029e4:	bf14      	ite	ne
 80029e6:	2301      	movne	r3, #1
 80029e8:	2300      	moveq	r3, #0
 80029ea:	2980      	cmp	r1, #128	; 0x80
 80029ec:	bf0c      	ite	eq
 80029ee:	2300      	moveq	r3, #0
 80029f0:	f003 0301 	andne.w	r3, r3, #1
 80029f4:	b113      	cbz	r3, 80029fc <HAL_ADC_Init+0x484>
 80029f6:	f5b2 7f80 	cmp.w	r2, #256	; 0x100
 80029fa:	d13c      	bne.n	8002a76 <HAL_ADC_Init+0x4fe>
 80029fc:	6c63      	ldr	r3, [r4, #68]	; 0x44
 80029fe:	f433 7300 	bics.w	r3, r3, #512	; 0x200
 8002a02:	d12c      	bne.n	8002a5e <HAL_ADC_Init+0x4e6>
 8002a04:	6ca3      	ldr	r3, [r4, #72]	; 0x48
 8002a06:	f423 6380 	bic.w	r3, r3, #1024	; 0x400
 8002a0a:	2b01      	cmp	r3, #1
 8002a0c:	d121      	bne.n	8002a52 <HAL_ADC_Init+0x4da>
 8002a0e:	6a63      	ldr	r3, [r4, #36]	; 0x24
 8002a10:	6c66      	ldr	r6, [r4, #68]	; 0x44
 8002a12:	b10b      	cbz	r3, 8002a18 <HAL_ADC_Init+0x4a0>
 8002a14:	6aa3      	ldr	r3, [r4, #40]	; 0x28
 8002a16:	b933      	cbnz	r3, 8002a26 <HAL_ADC_Init+0x4ae>
 8002a18:	b12e      	cbz	r6, 8002a26 <HAL_ADC_Init+0x4ae>
 8002a1a:	f240 2183 	movw	r1, #643	; 0x283
 8002a1e:	4819      	ldr	r0, [pc, #100]	; (8002a84 <HAL_ADC_Init+0x50c>)
 8002a20:	f7fe fa3e 	bl	8000ea0 <assert_failed>
 8002a24:	6c66      	ldr	r6, [r4, #68]	; 0x44
 8002a26:	6ca1      	ldr	r1, [r4, #72]	; 0x48
 8002a28:	6823      	ldr	r3, [r4, #0]
 8002a2a:	6c22      	ldr	r2, [r4, #64]	; 0x40
 8002a2c:	691f      	ldr	r7, [r3, #16]
 8002a2e:	430a      	orrs	r2, r1
 8002a30:	4819      	ldr	r0, [pc, #100]	; (8002a98 <HAL_ADC_Init+0x520>)
 8002a32:	6be1      	ldr	r1, [r4, #60]	; 0x3c
 8002a34:	4038      	ands	r0, r7
 8002a36:	f042 0201 	orr.w	r2, r2, #1
 8002a3a:	3901      	subs	r1, #1
 8002a3c:	4302      	orrs	r2, r0
 8002a3e:	ea42 4201 	orr.w	r2, r2, r1, lsl #16
 8002a42:	4332      	orrs	r2, r6
 8002a44:	611a      	str	r2, [r3, #16]
 8002a46:	e785      	b.n	8002954 <HAL_ADC_Init+0x3dc>
 8002a48:	f046 061c 	orr.w	r6, r6, #28
 8002a4c:	4331      	orrs	r1, r6
 8002a4e:	4311      	orrs	r1, r2
 8002a50:	e6ae      	b.n	80027b0 <HAL_ADC_Init+0x238>
 8002a52:	f240 217d 	movw	r1, #637	; 0x27d
 8002a56:	480b      	ldr	r0, [pc, #44]	; (8002a84 <HAL_ADC_Init+0x50c>)
 8002a58:	f7fe fa22 	bl	8000ea0 <assert_failed>
 8002a5c:	e7d7      	b.n	8002a0e <HAL_ADC_Init+0x496>
 8002a5e:	f44f 711f 	mov.w	r1, #636	; 0x27c
 8002a62:	4808      	ldr	r0, [pc, #32]	; (8002a84 <HAL_ADC_Init+0x50c>)
 8002a64:	f7fe fa1c 	bl	8000ea0 <assert_failed>
 8002a68:	e7cc      	b.n	8002a04 <HAL_ADC_Init+0x48c>
 8002a6a:	f240 217a 	movw	r1, #634	; 0x27a
 8002a6e:	4805      	ldr	r0, [pc, #20]	; (8002a84 <HAL_ADC_Init+0x50c>)
 8002a70:	f7fe fa16 	bl	8000ea0 <assert_failed>
 8002a74:	e7b3      	b.n	80029de <HAL_ADC_Init+0x466>
 8002a76:	f240 217b 	movw	r1, #635	; 0x27b
 8002a7a:	4802      	ldr	r0, [pc, #8]	; (8002a84 <HAL_ADC_Init+0x50c>)
 8002a7c:	f7fe fa10 	bl	8000ea0 <assert_failed>
 8002a80:	e7bc      	b.n	80029fc <HAL_ADC_Init+0x484>
 8002a82:	bf00      	nop
 8002a84:	0800cf54 	.word	0x0800cf54
 8002a88:	ffffbffc 	.word	0xffffbffc
 8002a8c:	40022000 	.word	0x40022000
 8002a90:	40022100 	.word	0x40022100
 8002a94:	40022300 	.word	0x40022300
 8002a98:	fc00f81e 	.word	0xfc00f81e

08002a9c <HAL_ADCEx_Calibration_Start>:
 8002a9c:	b5f0      	push	{r4, r5, r6, r7, lr}
 8002a9e:	4604      	mov	r4, r0
 8002aa0:	4616      	mov	r6, r2
 8002aa2:	4835      	ldr	r0, [pc, #212]	; (8002b78 <HAL_ADCEx_Calibration_Start+0xdc>)
 8002aa4:	b083      	sub	sp, #12
 8002aa6:	6823      	ldr	r3, [r4, #0]
 8002aa8:	2700      	movs	r7, #0
 8002aaa:	4a34      	ldr	r2, [pc, #208]	; (8002b7c <HAL_ADCEx_Calibration_Start+0xe0>)
 8002aac:	460d      	mov	r5, r1
 8002aae:	9701      	str	r7, [sp, #4]
 8002ab0:	4283      	cmp	r3, r0
 8002ab2:	bf18      	it	ne
 8002ab4:	4293      	cmpne	r3, r2
 8002ab6:	d002      	beq.n	8002abe <HAL_ADCEx_Calibration_Start+0x22>
 8002ab8:	4a31      	ldr	r2, [pc, #196]	; (8002b80 <HAL_ADCEx_Calibration_Start+0xe4>)
 8002aba:	4293      	cmp	r3, r2
 8002abc:	d14a      	bne.n	8002b54 <HAL_ADCEx_Calibration_Start+0xb8>
 8002abe:	f240 73ff 	movw	r3, #2047	; 0x7ff
 8002ac2:	429e      	cmp	r6, r3
 8002ac4:	d002      	beq.n	8002acc <HAL_ADCEx_Calibration_Start+0x30>
 8002ac6:	4b2f      	ldr	r3, [pc, #188]	; (8002b84 <HAL_ADCEx_Calibration_Start+0xe8>)
 8002ac8:	429e      	cmp	r6, r3
 8002aca:	d138      	bne.n	8002b3e <HAL_ADCEx_Calibration_Start+0xa2>
 8002acc:	f894 3050 	ldrb.w	r3, [r4, #80]	; 0x50
 8002ad0:	2b01      	cmp	r3, #1
 8002ad2:	d03c      	beq.n	8002b4e <HAL_ADCEx_Calibration_Start+0xb2>
 8002ad4:	2301      	movs	r3, #1
 8002ad6:	4620      	mov	r0, r4
 8002ad8:	f884 3050 	strb.w	r3, [r4, #80]	; 0x50
 8002adc:	f7ff fc5c 	bl	8002398 <ADC_Disable>
 8002ae0:	bb20      	cbnz	r0, 8002b2c <HAL_ADCEx_Calibration_Start+0x90>
 8002ae2:	6d61      	ldr	r1, [r4, #84]	; 0x54
 8002ae4:	f405 3380 	and.w	r3, r5, #65536	; 0x10000
 8002ae8:	4d27      	ldr	r5, [pc, #156]	; (8002b88 <HAL_ADCEx_Calibration_Start+0xec>)
 8002aea:	f006 4680 	and.w	r6, r6, #1073741824	; 0x40000000
 8002aee:	6822      	ldr	r2, [r4, #0]
 8002af0:	f043 4300 	orr.w	r3, r3, #2147483648	; 0x80000000
 8002af4:	400d      	ands	r5, r1
 8002af6:	4f25      	ldr	r7, [pc, #148]	; (8002b8c <HAL_ADCEx_Calibration_Start+0xf0>)
 8002af8:	4333      	orrs	r3, r6
 8002afa:	4925      	ldr	r1, [pc, #148]	; (8002b90 <HAL_ADCEx_Calibration_Start+0xf4>)
 8002afc:	f045 0502 	orr.w	r5, r5, #2
 8002b00:	6565      	str	r5, [r4, #84]	; 0x54
 8002b02:	6895      	ldr	r5, [r2, #8]
 8002b04:	402f      	ands	r7, r5
 8002b06:	433b      	orrs	r3, r7
 8002b08:	6093      	str	r3, [r2, #8]
 8002b0a:	e005      	b.n	8002b18 <HAL_ADCEx_Calibration_Start+0x7c>
 8002b0c:	9b01      	ldr	r3, [sp, #4]
 8002b0e:	3301      	adds	r3, #1
 8002b10:	9301      	str	r3, [sp, #4]
 8002b12:	9b01      	ldr	r3, [sp, #4]
 8002b14:	428b      	cmp	r3, r1
 8002b16:	d822      	bhi.n	8002b5e <HAL_ADCEx_Calibration_Start+0xc2>
 8002b18:	6893      	ldr	r3, [r2, #8]
 8002b1a:	2b00      	cmp	r3, #0
 8002b1c:	dbf6      	blt.n	8002b0c <HAL_ADCEx_Calibration_Start+0x70>
 8002b1e:	6d63      	ldr	r3, [r4, #84]	; 0x54
 8002b20:	f023 0303 	bic.w	r3, r3, #3
 8002b24:	f043 0301 	orr.w	r3, r3, #1
 8002b28:	6563      	str	r3, [r4, #84]	; 0x54
 8002b2a:	e003      	b.n	8002b34 <HAL_ADCEx_Calibration_Start+0x98>
 8002b2c:	6d63      	ldr	r3, [r4, #84]	; 0x54
 8002b2e:	f043 0310 	orr.w	r3, r3, #16
 8002b32:	6563      	str	r3, [r4, #84]	; 0x54
 8002b34:	2300      	movs	r3, #0
 8002b36:	f884 3050 	strb.w	r3, [r4, #80]	; 0x50
 8002b3a:	b003      	add	sp, #12
 8002b3c:	bdf0      	pop	{r4, r5, r6, r7, pc}
 8002b3e:	218f      	movs	r1, #143	; 0x8f
 8002b40:	4814      	ldr	r0, [pc, #80]	; (8002b94 <HAL_ADCEx_Calibration_Start+0xf8>)
 8002b42:	f7fe f9ad 	bl	8000ea0 <assert_failed>
 8002b46:	f894 3050 	ldrb.w	r3, [r4, #80]	; 0x50
 8002b4a:	2b01      	cmp	r3, #1
 8002b4c:	d1c2      	bne.n	8002ad4 <HAL_ADCEx_Calibration_Start+0x38>
 8002b4e:	2002      	movs	r0, #2
 8002b50:	b003      	add	sp, #12
 8002b52:	bdf0      	pop	{r4, r5, r6, r7, pc}
 8002b54:	218e      	movs	r1, #142	; 0x8e
 8002b56:	480f      	ldr	r0, [pc, #60]	; (8002b94 <HAL_ADCEx_Calibration_Start+0xf8>)
 8002b58:	f7fe f9a2 	bl	8000ea0 <assert_failed>
 8002b5c:	e7af      	b.n	8002abe <HAL_ADCEx_Calibration_Start+0x22>
 8002b5e:	6d63      	ldr	r3, [r4, #84]	; 0x54
 8002b60:	2200      	movs	r2, #0
 8002b62:	2001      	movs	r0, #1
 8002b64:	f023 0312 	bic.w	r3, r3, #18
 8002b68:	f884 2050 	strb.w	r2, [r4, #80]	; 0x50
 8002b6c:	f043 0310 	orr.w	r3, r3, #16
 8002b70:	6563      	str	r3, [r4, #84]	; 0x54
 8002b72:	b003      	add	sp, #12
 8002b74:	bdf0      	pop	{r4, r5, r6, r7, pc}
 8002b76:	bf00      	nop
 8002b78:	40022000 	.word	0x40022000
 8002b7c:	40022100 	.word	0x40022100
 8002b80:	58026000 	.word	0x58026000
 8002b84:	47ff0000 	.word	0x47ff0000
 8002b88:	ffffeefd 	.word	0xffffeefd
 8002b8c:	3ffeffc0 	.word	0x3ffeffc0
 8002b90:	25c3f7ff 	.word	0x25c3f7ff
 8002b94:	0800cf8c 	.word	0x0800cf8c

08002b98 <HAL_ADCEx_InjectedConvCpltCallback>:
 8002b98:	4770      	bx	lr
 8002b9a:	bf00      	nop

08002b9c <HAL_ADCEx_InjectedQueueOverflowCallback>:
 8002b9c:	4770      	bx	lr
 8002b9e:	bf00      	nop

08002ba0 <HAL_ADCEx_LevelOutOfWindow2Callback>:
 8002ba0:	4770      	bx	lr
 8002ba2:	bf00      	nop

08002ba4 <HAL_ADCEx_LevelOutOfWindow3Callback>:
 8002ba4:	4770      	bx	lr
 8002ba6:	bf00      	nop

08002ba8 <HAL_ADCEx_EndOfSamplingCallback>:
 8002ba8:	4770      	bx	lr
 8002baa:	bf00      	nop

08002bac <HAL_ADCEx_MultiModeConfigChannel>:
 8002bac:	b5f8      	push	{r3, r4, r5, r6, r7, lr}
 8002bae:	6802      	ldr	r2, [r0, #0]
 8002bb0:	4604      	mov	r4, r0
 8002bb2:	4b49      	ldr	r3, [pc, #292]	; (8002cd8 <HAL_ADCEx_MultiModeConfigChannel+0x12c>)
 8002bb4:	460d      	mov	r5, r1
 8002bb6:	429a      	cmp	r2, r3
 8002bb8:	d004      	beq.n	8002bc4 <HAL_ADCEx_MultiModeConfigChannel+0x18>
 8002bba:	f640 0194 	movw	r1, #2196	; 0x894
 8002bbe:	4847      	ldr	r0, [pc, #284]	; (8002cdc <HAL_ADCEx_MultiModeConfigChannel+0x130>)
 8002bc0:	f7fe f96e 	bl	8000ea0 <assert_failed>
 8002bc4:	682b      	ldr	r3, [r5, #0]
 8002bc6:	2b09      	cmp	r3, #9
 8002bc8:	d933      	bls.n	8002c32 <HAL_ADCEx_MultiModeConfigChannel+0x86>
 8002bca:	f640 0195 	movw	r1, #2197	; 0x895
 8002bce:	4843      	ldr	r0, [pc, #268]	; (8002cdc <HAL_ADCEx_MultiModeConfigChannel+0x130>)
 8002bd0:	f7fe f966 	bl	8000ea0 <assert_failed>
 8002bd4:	682b      	ldr	r3, [r5, #0]
 8002bd6:	b1cb      	cbz	r3, 8002c0c <HAL_ADCEx_MultiModeConfigChannel+0x60>
 8002bd8:	686b      	ldr	r3, [r5, #4]
 8002bda:	f433 4200 	bics.w	r2, r3, #32768	; 0x8000
 8002bde:	d002      	beq.n	8002be6 <HAL_ADCEx_MultiModeConfigChannel+0x3a>
 8002be0:	f5b3 4f40 	cmp.w	r3, #49152	; 0xc000
 8002be4:	d158      	bne.n	8002c98 <HAL_ADCEx_MultiModeConfigChannel+0xec>
 8002be6:	68ab      	ldr	r3, [r5, #8]
 8002be8:	f5b3 6fe0 	cmp.w	r3, #1792	; 0x700
 8002bec:	bf18      	it	ne
 8002bee:	f5b3 6f00 	cmpne.w	r3, #2048	; 0x800
 8002bf2:	bf14      	ite	ne
 8002bf4:	2201      	movne	r2, #1
 8002bf6:	2200      	moveq	r2, #0
 8002bf8:	f433 7140 	bics.w	r1, r3, #768	; 0x300
 8002bfc:	bf08      	it	eq
 8002bfe:	2200      	moveq	r2, #0
 8002c00:	b122      	cbz	r2, 8002c0c <HAL_ADCEx_MultiModeConfigChannel+0x60>
 8002c02:	f423 7380 	bic.w	r3, r3, #256	; 0x100
 8002c06:	f5b3 6f80 	cmp.w	r3, #1024	; 0x400
 8002c0a:	d15f      	bne.n	8002ccc <HAL_ADCEx_MultiModeConfigChannel+0x120>
 8002c0c:	f894 3050 	ldrb.w	r3, [r4, #80]	; 0x50
 8002c10:	2b01      	cmp	r3, #1
 8002c12:	d053      	beq.n	8002cbc <HAL_ADCEx_MultiModeConfigChannel+0x110>
 8002c14:	4b30      	ldr	r3, [pc, #192]	; (8002cd8 <HAL_ADCEx_MultiModeConfigChannel+0x12c>)
 8002c16:	2001      	movs	r0, #1
 8002c18:	6822      	ldr	r2, [r4, #0]
 8002c1a:	f884 0050 	strb.w	r0, [r4, #80]	; 0x50
 8002c1e:	429a      	cmp	r2, r3
 8002c20:	d00d      	beq.n	8002c3e <HAL_ADCEx_MultiModeConfigChannel+0x92>
 8002c22:	6d63      	ldr	r3, [r4, #84]	; 0x54
 8002c24:	2200      	movs	r2, #0
 8002c26:	f043 0320 	orr.w	r3, r3, #32
 8002c2a:	f884 2050 	strb.w	r2, [r4, #80]	; 0x50
 8002c2e:	6563      	str	r3, [r4, #84]	; 0x54
 8002c30:	bdf8      	pop	{r3, r4, r5, r6, r7, pc}
 8002c32:	f240 22ef 	movw	r2, #751	; 0x2ef
 8002c36:	40da      	lsrs	r2, r3
 8002c38:	07d7      	lsls	r7, r2, #31
 8002c3a:	d4cc      	bmi.n	8002bd6 <HAL_ADCEx_MultiModeConfigChannel+0x2a>
 8002c3c:	e7c5      	b.n	8002bca <HAL_ADCEx_MultiModeConfigChannel+0x1e>
 8002c3e:	4928      	ldr	r1, [pc, #160]	; (8002ce0 <HAL_ADCEx_MultiModeConfigChannel+0x134>)
 8002c40:	688b      	ldr	r3, [r1, #8]
 8002c42:	0758      	lsls	r0, r3, #29
 8002c44:	d509      	bpl.n	8002c5a <HAL_ADCEx_MultiModeConfigChannel+0xae>
 8002c46:	6893      	ldr	r3, [r2, #8]
 8002c48:	6d63      	ldr	r3, [r4, #84]	; 0x54
 8002c4a:	2001      	movs	r0, #1
 8002c4c:	f043 0320 	orr.w	r3, r3, #32
 8002c50:	6563      	str	r3, [r4, #84]	; 0x54
 8002c52:	2300      	movs	r3, #0
 8002c54:	f884 3050 	strb.w	r3, [r4, #80]	; 0x50
 8002c58:	bdf8      	pop	{r3, r4, r5, r6, r7, pc}
 8002c5a:	6890      	ldr	r0, [r2, #8]
 8002c5c:	f010 0004 	ands.w	r0, r0, #4
 8002c60:	d1f2      	bne.n	8002c48 <HAL_ADCEx_MultiModeConfigChannel+0x9c>
 8002c62:	682f      	ldr	r7, [r5, #0]
 8002c64:	b1f7      	cbz	r7, 8002ca4 <HAL_ADCEx_MultiModeConfigChannel+0xf8>
 8002c66:	f8df c080 	ldr.w	ip, [pc, #128]	; 8002ce8 <HAL_ADCEx_MultiModeConfigChannel+0x13c>
 8002c6a:	686e      	ldr	r6, [r5, #4]
 8002c6c:	f8dc 3008 	ldr.w	r3, [ip, #8]
 8002c70:	f423 4340 	bic.w	r3, r3, #49152	; 0xc000
 8002c74:	4333      	orrs	r3, r6
 8002c76:	f8cc 3008 	str.w	r3, [ip, #8]
 8002c7a:	6892      	ldr	r2, [r2, #8]
 8002c7c:	688b      	ldr	r3, [r1, #8]
 8002c7e:	4313      	orrs	r3, r2
 8002c80:	07de      	lsls	r6, r3, #31
 8002c82:	d419      	bmi.n	8002cb8 <HAL_ADCEx_MultiModeConfigChannel+0x10c>
 8002c84:	68ab      	ldr	r3, [r5, #8]
 8002c86:	f8dc 1008 	ldr.w	r1, [ip, #8]
 8002c8a:	4a16      	ldr	r2, [pc, #88]	; (8002ce4 <HAL_ADCEx_MultiModeConfigChannel+0x138>)
 8002c8c:	431f      	orrs	r7, r3
 8002c8e:	400a      	ands	r2, r1
 8002c90:	4317      	orrs	r7, r2
 8002c92:	f8cc 7008 	str.w	r7, [ip, #8]
 8002c96:	e7dc      	b.n	8002c52 <HAL_ADCEx_MultiModeConfigChannel+0xa6>
 8002c98:	f640 0198 	movw	r1, #2200	; 0x898
 8002c9c:	480f      	ldr	r0, [pc, #60]	; (8002cdc <HAL_ADCEx_MultiModeConfigChannel+0x130>)
 8002c9e:	f7fe f8ff 	bl	8000ea0 <assert_failed>
 8002ca2:	e7a0      	b.n	8002be6 <HAL_ADCEx_MultiModeConfigChannel+0x3a>
 8002ca4:	4d10      	ldr	r5, [pc, #64]	; (8002ce8 <HAL_ADCEx_MultiModeConfigChannel+0x13c>)
 8002ca6:	68ab      	ldr	r3, [r5, #8]
 8002ca8:	f423 4340 	bic.w	r3, r3, #49152	; 0xc000
 8002cac:	60ab      	str	r3, [r5, #8]
 8002cae:	6892      	ldr	r2, [r2, #8]
 8002cb0:	688b      	ldr	r3, [r1, #8]
 8002cb2:	4313      	orrs	r3, r2
 8002cb4:	07db      	lsls	r3, r3, #31
 8002cb6:	d503      	bpl.n	8002cc0 <HAL_ADCEx_MultiModeConfigChannel+0x114>
 8002cb8:	2000      	movs	r0, #0
 8002cba:	e7ca      	b.n	8002c52 <HAL_ADCEx_MultiModeConfigChannel+0xa6>
 8002cbc:	2002      	movs	r0, #2
 8002cbe:	bdf8      	pop	{r3, r4, r5, r6, r7, pc}
 8002cc0:	68aa      	ldr	r2, [r5, #8]
 8002cc2:	4638      	mov	r0, r7
 8002cc4:	4b07      	ldr	r3, [pc, #28]	; (8002ce4 <HAL_ADCEx_MultiModeConfigChannel+0x138>)
 8002cc6:	4013      	ands	r3, r2
 8002cc8:	60ab      	str	r3, [r5, #8]
 8002cca:	e7c2      	b.n	8002c52 <HAL_ADCEx_MultiModeConfigChannel+0xa6>
 8002ccc:	f640 0199 	movw	r1, #2201	; 0x899
 8002cd0:	4802      	ldr	r0, [pc, #8]	; (8002cdc <HAL_ADCEx_MultiModeConfigChannel+0x130>)
 8002cd2:	f7fe f8e5 	bl	8000ea0 <assert_failed>
 8002cd6:	e799      	b.n	8002c0c <HAL_ADCEx_MultiModeConfigChannel+0x60>
 8002cd8:	40022000 	.word	0x40022000
 8002cdc:	0800cf8c 	.word	0x0800cf8c
 8002ce0:	40022100 	.word	0x40022100
 8002ce4:	fffff0e0 	.word	0xfffff0e0
 8002ce8:	40022300 	.word	0x40022300

08002cec <HAL_NVIC_SetPriorityGrouping>:
 8002cec:	1ec3      	subs	r3, r0, #3
 8002cee:	2b04      	cmp	r3, #4
 8002cf0:	b510      	push	{r4, lr}
 8002cf2:	4604      	mov	r4, r0
 8002cf4:	d903      	bls.n	8002cfe <HAL_NVIC_SetPriorityGrouping+0x12>
 8002cf6:	2192      	movs	r1, #146	; 0x92
 8002cf8:	4807      	ldr	r0, [pc, #28]	; (8002d18 <HAL_NVIC_SetPriorityGrouping+0x2c>)
 8002cfa:	f7fe f8d1 	bl	8000ea0 <assert_failed>
 8002cfe:	4907      	ldr	r1, [pc, #28]	; (8002d1c <HAL_NVIC_SetPriorityGrouping+0x30>)
 8002d00:	f64f 00ff 	movw	r0, #63743	; 0xf8ff
 8002d04:	0224      	lsls	r4, r4, #8
 8002d06:	4b06      	ldr	r3, [pc, #24]	; (8002d20 <HAL_NVIC_SetPriorityGrouping+0x34>)
 8002d08:	68ca      	ldr	r2, [r1, #12]
 8002d0a:	f404 64e0 	and.w	r4, r4, #1792	; 0x700
 8002d0e:	4002      	ands	r2, r0
 8002d10:	4313      	orrs	r3, r2
 8002d12:	431c      	orrs	r4, r3
 8002d14:	60cc      	str	r4, [r1, #12]
 8002d16:	bd10      	pop	{r4, pc}
 8002d18:	0800cfc8 	.word	0x0800cfc8
 8002d1c:	e000ed00 	.word	0xe000ed00
 8002d20:	05fa0000 	.word	0x05fa0000

08002d24 <HAL_NVIC_SetPriority>:
 8002d24:	2a0f      	cmp	r2, #15
 8002d26:	b570      	push	{r4, r5, r6, lr}
 8002d28:	4616      	mov	r6, r2
 8002d2a:	4605      	mov	r5, r0
 8002d2c:	460c      	mov	r4, r1
 8002d2e:	d832      	bhi.n	8002d96 <HAL_NVIC_SetPriority+0x72>
 8002d30:	2c0f      	cmp	r4, #15
 8002d32:	d82b      	bhi.n	8002d8c <HAL_NVIC_SetPriority+0x68>
 8002d34:	4b1a      	ldr	r3, [pc, #104]	; (8002da0 <HAL_NVIC_SetPriority+0x7c>)
 8002d36:	68db      	ldr	r3, [r3, #12]
 8002d38:	f3c3 2302 	ubfx	r3, r3, #8, #3
 8002d3c:	f1c3 0107 	rsb	r1, r3, #7
 8002d40:	1d1a      	adds	r2, r3, #4
 8002d42:	2904      	cmp	r1, #4
 8002d44:	bf28      	it	cs
 8002d46:	2104      	movcs	r1, #4
 8002d48:	2a06      	cmp	r2, #6
 8002d4a:	d917      	bls.n	8002d7c <HAL_NVIC_SetPriority+0x58>
 8002d4c:	3b03      	subs	r3, #3
 8002d4e:	f04f 32ff 	mov.w	r2, #4294967295	; 0xffffffff
 8002d52:	409a      	lsls	r2, r3
 8002d54:	ea26 0602 	bic.w	r6, r6, r2
 8002d58:	f04f 32ff 	mov.w	r2, #4294967295	; 0xffffffff
 8002d5c:	2d00      	cmp	r5, #0
 8002d5e:	fa02 f201 	lsl.w	r2, r2, r1
 8002d62:	ea24 0202 	bic.w	r2, r4, r2
 8002d66:	fa02 f203 	lsl.w	r2, r2, r3
 8002d6a:	ea42 0206 	orr.w	r2, r2, r6
 8002d6e:	ea4f 1202 	mov.w	r2, r2, lsl #4
 8002d72:	b2d2      	uxtb	r2, r2
 8002d74:	db05      	blt.n	8002d82 <HAL_NVIC_SetPriority+0x5e>
 8002d76:	4b0b      	ldr	r3, [pc, #44]	; (8002da4 <HAL_NVIC_SetPriority+0x80>)
 8002d78:	555a      	strb	r2, [r3, r5]
 8002d7a:	bd70      	pop	{r4, r5, r6, pc}
 8002d7c:	2600      	movs	r6, #0
 8002d7e:	4633      	mov	r3, r6
 8002d80:	e7ea      	b.n	8002d58 <HAL_NVIC_SetPriority+0x34>
 8002d82:	f005 050f 	and.w	r5, r5, #15
 8002d86:	4b08      	ldr	r3, [pc, #32]	; (8002da8 <HAL_NVIC_SetPriority+0x84>)
 8002d88:	555a      	strb	r2, [r3, r5]
 8002d8a:	bd70      	pop	{r4, r5, r6, pc}
 8002d8c:	21ab      	movs	r1, #171	; 0xab
 8002d8e:	4807      	ldr	r0, [pc, #28]	; (8002dac <HAL_NVIC_SetPriority+0x88>)
 8002d90:	f7fe f886 	bl	8000ea0 <assert_failed>
 8002d94:	e7ce      	b.n	8002d34 <HAL_NVIC_SetPriority+0x10>
 8002d96:	21aa      	movs	r1, #170	; 0xaa
 8002d98:	4804      	ldr	r0, [pc, #16]	; (8002dac <HAL_NVIC_SetPriority+0x88>)
 8002d9a:	f7fe f881 	bl	8000ea0 <assert_failed>
 8002d9e:	e7c7      	b.n	8002d30 <HAL_NVIC_SetPriority+0xc>
 8002da0:	e000ed00 	.word	0xe000ed00
 8002da4:	e000e400 	.word	0xe000e400
 8002da8:	e000ed14 	.word	0xe000ed14
 8002dac:	0800cfc8 	.word	0x0800cfc8

08002db0 <HAL_NVIC_EnableIRQ>:
 8002db0:	2800      	cmp	r0, #0
 8002db2:	db08      	blt.n	8002dc6 <HAL_NVIC_EnableIRQ+0x16>
 8002db4:	f000 011f 	and.w	r1, r0, #31
 8002db8:	2301      	movs	r3, #1
 8002dba:	0940      	lsrs	r0, r0, #5
 8002dbc:	4a04      	ldr	r2, [pc, #16]	; (8002dd0 <HAL_NVIC_EnableIRQ+0x20>)
 8002dbe:	408b      	lsls	r3, r1
 8002dc0:	f842 3020 	str.w	r3, [r2, r0, lsl #2]
 8002dc4:	4770      	bx	lr
 8002dc6:	21be      	movs	r1, #190	; 0xbe
 8002dc8:	4802      	ldr	r0, [pc, #8]	; (8002dd4 <HAL_NVIC_EnableIRQ+0x24>)
 8002dca:	f7fe b869 	b.w	8000ea0 <assert_failed>
 8002dce:	bf00      	nop
 8002dd0:	e000e100 	.word	0xe000e100
 8002dd4:	0800cfc8 	.word	0x0800cfc8

08002dd8 <HAL_SYSTICK_Config>:
 8002dd8:	3801      	subs	r0, #1
 8002dda:	f1b0 7f80 	cmp.w	r0, #16777216	; 0x1000000
 8002dde:	d20d      	bcs.n	8002dfc <HAL_SYSTICK_Config+0x24>
 8002de0:	4b07      	ldr	r3, [pc, #28]	; (8002e00 <HAL_SYSTICK_Config+0x28>)
 8002de2:	2200      	movs	r2, #0
 8002de4:	2107      	movs	r1, #7
 8002de6:	b430      	push	{r4, r5}
 8002de8:	25f0      	movs	r5, #240	; 0xf0
 8002dea:	4c06      	ldr	r4, [pc, #24]	; (8002e04 <HAL_SYSTICK_Config+0x2c>)
 8002dec:	6058      	str	r0, [r3, #4]
 8002dee:	4610      	mov	r0, r2
 8002df0:	f884 5023 	strb.w	r5, [r4, #35]	; 0x23
 8002df4:	609a      	str	r2, [r3, #8]
 8002df6:	6019      	str	r1, [r3, #0]
 8002df8:	bc30      	pop	{r4, r5}
 8002dfa:	4770      	bx	lr
 8002dfc:	2001      	movs	r0, #1
 8002dfe:	4770      	bx	lr
 8002e00:	e000e010 	.word	0xe000e010
 8002e04:	e000ed00 	.word	0xe000ed00

08002e08 <HAL_DAC_Init>:
 8002e08:	b1d8      	cbz	r0, 8002e42 <HAL_DAC_Init+0x3a>
 8002e0a:	4b0f      	ldr	r3, [pc, #60]	; (8002e48 <HAL_DAC_Init+0x40>)
 8002e0c:	6802      	ldr	r2, [r0, #0]
 8002e0e:	429a      	cmp	r2, r3
 8002e10:	b510      	push	{r4, lr}
 8002e12:	4604      	mov	r4, r0
 8002e14:	d004      	beq.n	8002e20 <HAL_DAC_Init+0x18>
 8002e16:	f240 116b 	movw	r1, #363	; 0x16b
 8002e1a:	480c      	ldr	r0, [pc, #48]	; (8002e4c <HAL_DAC_Init+0x44>)
 8002e1c:	f7fe f840 	bl	8000ea0 <assert_failed>
 8002e20:	7923      	ldrb	r3, [r4, #4]
 8002e22:	f003 02ff 	and.w	r2, r3, #255	; 0xff
 8002e26:	b13b      	cbz	r3, 8002e38 <HAL_DAC_Init+0x30>
 8002e28:	2300      	movs	r3, #0
 8002e2a:	2102      	movs	r1, #2
 8002e2c:	2201      	movs	r2, #1
 8002e2e:	7121      	strb	r1, [r4, #4]
 8002e30:	4618      	mov	r0, r3
 8002e32:	6123      	str	r3, [r4, #16]
 8002e34:	7122      	strb	r2, [r4, #4]
 8002e36:	bd10      	pop	{r4, pc}
 8002e38:	7162      	strb	r2, [r4, #5]
 8002e3a:	4620      	mov	r0, r4
 8002e3c:	f7fd fd28 	bl	8000890 <HAL_DAC_MspInit>
 8002e40:	e7f2      	b.n	8002e28 <HAL_DAC_Init+0x20>
 8002e42:	2001      	movs	r0, #1
 8002e44:	4770      	bx	lr
 8002e46:	bf00      	nop
 8002e48:	40007400 	.word	0x40007400
 8002e4c:	0800d004 	.word	0x0800d004

08002e50 <HAL_DAC_Start>:
 8002e50:	b538      	push	{r3, r4, r5, lr}
 8002e52:	f031 0310 	bics.w	r3, r1, #16
 8002e56:	460d      	mov	r5, r1
 8002e58:	4604      	mov	r4, r0
 8002e5a:	d12c      	bne.n	8002eb6 <HAL_DAC_Start+0x66>
 8002e5c:	7963      	ldrb	r3, [r4, #5]
 8002e5e:	2002      	movs	r0, #2
 8002e60:	2b01      	cmp	r3, #1
 8002e62:	d018      	beq.n	8002e96 <HAL_DAC_Start+0x46>
 8002e64:	6822      	ldr	r2, [r4, #0]
 8002e66:	2101      	movs	r1, #1
 8002e68:	f005 0310 	and.w	r3, r5, #16
 8002e6c:	7120      	strb	r0, [r4, #4]
 8002e6e:	6810      	ldr	r0, [r2, #0]
 8002e70:	fa01 f303 	lsl.w	r3, r1, r3
 8002e74:	7161      	strb	r1, [r4, #5]
 8002e76:	4303      	orrs	r3, r0
 8002e78:	6013      	str	r3, [r2, #0]
 8002e7a:	6813      	ldr	r3, [r2, #0]
 8002e7c:	b965      	cbnz	r5, 8002e98 <HAL_DAC_Start+0x48>
 8002e7e:	f003 033e 	and.w	r3, r3, #62	; 0x3e
 8002e82:	2b02      	cmp	r3, #2
 8002e84:	d102      	bne.n	8002e8c <HAL_DAC_Start+0x3c>
 8002e86:	6853      	ldr	r3, [r2, #4]
 8002e88:	430b      	orrs	r3, r1
 8002e8a:	6053      	str	r3, [r2, #4]
 8002e8c:	2300      	movs	r3, #0
 8002e8e:	2201      	movs	r2, #1
 8002e90:	4618      	mov	r0, r3
 8002e92:	7122      	strb	r2, [r4, #4]
 8002e94:	7163      	strb	r3, [r4, #5]
 8002e96:	bd38      	pop	{r3, r4, r5, pc}
 8002e98:	f403 1378 	and.w	r3, r3, #4063232	; 0x3e0000
 8002e9c:	f5b3 3f00 	cmp.w	r3, #131072	; 0x20000
 8002ea0:	d1f4      	bne.n	8002e8c <HAL_DAC_Start+0x3c>
 8002ea2:	6853      	ldr	r3, [r2, #4]
 8002ea4:	f043 0302 	orr.w	r3, r3, #2
 8002ea8:	6053      	str	r3, [r2, #4]
 8002eaa:	2300      	movs	r3, #0
 8002eac:	2201      	movs	r2, #1
 8002eae:	4618      	mov	r0, r3
 8002eb0:	7163      	strb	r3, [r4, #5]
 8002eb2:	7122      	strb	r2, [r4, #4]
 8002eb4:	e7ef      	b.n	8002e96 <HAL_DAC_Start+0x46>
 8002eb6:	f44f 7102 	mov.w	r1, #520	; 0x208
 8002eba:	4802      	ldr	r0, [pc, #8]	; (8002ec4 <HAL_DAC_Start+0x74>)
 8002ebc:	f7fd fff0 	bl	8000ea0 <assert_failed>
 8002ec0:	e7cc      	b.n	8002e5c <HAL_DAC_Start+0xc>
 8002ec2:	bf00      	nop
 8002ec4:	0800d004 	.word	0x0800d004

08002ec8 <HAL_DAC_SetValue>:
 8002ec8:	b5f0      	push	{r4, r5, r6, r7, lr}
 8002eca:	460e      	mov	r6, r1
 8002ecc:	b083      	sub	sp, #12
 8002ece:	2100      	movs	r1, #0
 8002ed0:	461d      	mov	r5, r3
 8002ed2:	f036 0310 	bics.w	r3, r6, #16
 8002ed6:	4607      	mov	r7, r0
 8002ed8:	4614      	mov	r4, r2
 8002eda:	9101      	str	r1, [sp, #4]
 8002edc:	d12b      	bne.n	8002f36 <HAL_DAC_SetValue+0x6e>
 8002ede:	f034 0304 	bics.w	r3, r4, #4
 8002ee2:	d001      	beq.n	8002ee8 <HAL_DAC_SetValue+0x20>
 8002ee4:	2c08      	cmp	r4, #8
 8002ee6:	d10f      	bne.n	8002f08 <HAL_DAC_SetValue+0x40>
 8002ee8:	f64f 73f0 	movw	r3, #65520	; 0xfff0
 8002eec:	429d      	cmp	r5, r3
 8002eee:	d814      	bhi.n	8002f1a <HAL_DAC_SetValue+0x52>
 8002ef0:	683b      	ldr	r3, [r7, #0]
 8002ef2:	9301      	str	r3, [sp, #4]
 8002ef4:	9a01      	ldr	r2, [sp, #4]
 8002ef6:	b1d6      	cbz	r6, 8002f2e <HAL_DAC_SetValue+0x66>
 8002ef8:	3214      	adds	r2, #20
 8002efa:	4414      	add	r4, r2
 8002efc:	9401      	str	r4, [sp, #4]
 8002efe:	9b01      	ldr	r3, [sp, #4]
 8002f00:	2000      	movs	r0, #0
 8002f02:	601d      	str	r5, [r3, #0]
 8002f04:	b003      	add	sp, #12
 8002f06:	bdf0      	pop	{r4, r5, r6, r7, pc}
 8002f08:	f44f 7157 	mov.w	r1, #860	; 0x35c
 8002f0c:	480d      	ldr	r0, [pc, #52]	; (8002f44 <HAL_DAC_SetValue+0x7c>)
 8002f0e:	f7fd ffc7 	bl	8000ea0 <assert_failed>
 8002f12:	f64f 73f0 	movw	r3, #65520	; 0xfff0
 8002f16:	429d      	cmp	r5, r3
 8002f18:	d9ea      	bls.n	8002ef0 <HAL_DAC_SetValue+0x28>
 8002f1a:	f240 315d 	movw	r1, #861	; 0x35d
 8002f1e:	4809      	ldr	r0, [pc, #36]	; (8002f44 <HAL_DAC_SetValue+0x7c>)
 8002f20:	f7fd ffbe 	bl	8000ea0 <assert_failed>
 8002f24:	683b      	ldr	r3, [r7, #0]
 8002f26:	9301      	str	r3, [sp, #4]
 8002f28:	9a01      	ldr	r2, [sp, #4]
 8002f2a:	2e00      	cmp	r6, #0
 8002f2c:	d1e4      	bne.n	8002ef8 <HAL_DAC_SetValue+0x30>
 8002f2e:	3208      	adds	r2, #8
 8002f30:	4414      	add	r4, r2
 8002f32:	9401      	str	r4, [sp, #4]
 8002f34:	e7e3      	b.n	8002efe <HAL_DAC_SetValue+0x36>
 8002f36:	f240 315b 	movw	r1, #859	; 0x35b
 8002f3a:	4802      	ldr	r0, [pc, #8]	; (8002f44 <HAL_DAC_SetValue+0x7c>)
 8002f3c:	f7fd ffb0 	bl	8000ea0 <assert_failed>
 8002f40:	e7cd      	b.n	8002ede <HAL_DAC_SetValue+0x16>
 8002f42:	bf00      	nop
 8002f44:	0800d004 	.word	0x0800d004

08002f48 <HAL_DAC_ConfigChannel>:
 8002f48:	e92d 41f0 	stmdb	sp!, {r4, r5, r6, r7, r8, lr}
 8002f4c:	4615      	mov	r5, r2
 8002f4e:	684a      	ldr	r2, [r1, #4]
 8002f50:	460c      	mov	r4, r1
 8002f52:	4606      	mov	r6, r0
 8002f54:	2a1e      	cmp	r2, #30
 8002f56:	d972      	bls.n	800303e <HAL_DAC_ConfigChannel+0xf6>
 8002f58:	3a22      	subs	r2, #34	; 0x22
 8002f5a:	2a14      	cmp	r2, #20
 8002f5c:	f200 810d 	bhi.w	800317a <HAL_DAC_ConfigChannel+0x232>
 8002f60:	4b89      	ldr	r3, [pc, #548]	; (8003188 <HAL_DAC_ConfigChannel+0x240>)
 8002f62:	40d3      	lsrs	r3, r2
 8002f64:	43db      	mvns	r3, r3
 8002f66:	f003 0301 	and.w	r3, r3, #1
 8002f6a:	2b00      	cmp	r3, #0
 8002f6c:	f040 8105 	bne.w	800317a <HAL_DAC_ConfigChannel+0x232>
 8002f70:	68a3      	ldr	r3, [r4, #8]
 8002f72:	f033 0302 	bics.w	r3, r3, #2
 8002f76:	f040 80a6 	bne.w	80030c6 <HAL_DAC_ConfigChannel+0x17e>
 8002f7a:	68e3      	ldr	r3, [r4, #12]
 8002f7c:	2b01      	cmp	r3, #1
 8002f7e:	d904      	bls.n	8002f8a <HAL_DAC_ConfigChannel+0x42>
 8002f80:	f44f 717c 	mov.w	r1, #1008	; 0x3f0
 8002f84:	4881      	ldr	r0, [pc, #516]	; (800318c <HAL_DAC_ConfigChannel+0x244>)
 8002f86:	f7fd ff8b 	bl	8000ea0 <assert_failed>
 8002f8a:	6923      	ldr	r3, [r4, #16]
 8002f8c:	2b01      	cmp	r3, #1
 8002f8e:	d905      	bls.n	8002f9c <HAL_DAC_ConfigChannel+0x54>
 8002f90:	f240 31f1 	movw	r1, #1009	; 0x3f1
 8002f94:	487d      	ldr	r0, [pc, #500]	; (800318c <HAL_DAC_ConfigChannel+0x244>)
 8002f96:	f7fd ff83 	bl	8000ea0 <assert_failed>
 8002f9a:	6923      	ldr	r3, [r4, #16]
 8002f9c:	2b01      	cmp	r3, #1
 8002f9e:	d07d      	beq.n	800309c <HAL_DAC_ConfigChannel+0x154>
 8002fa0:	6823      	ldr	r3, [r4, #0]
 8002fa2:	f033 0204 	bics.w	r2, r3, #4
 8002fa6:	f040 8087 	bne.w	80030b8 <HAL_DAC_ConfigChannel+0x170>
 8002faa:	2b04      	cmp	r3, #4
 8002fac:	d057      	beq.n	800305e <HAL_DAC_ConfigChannel+0x116>
 8002fae:	f035 0310 	bics.w	r3, r5, #16
 8002fb2:	d168      	bne.n	8003086 <HAL_DAC_ConfigChannel+0x13e>
 8002fb4:	7973      	ldrb	r3, [r6, #5]
 8002fb6:	2b01      	cmp	r3, #1
 8002fb8:	d06d      	beq.n	8003096 <HAL_DAC_ConfigChannel+0x14e>
 8002fba:	6827      	ldr	r7, [r4, #0]
 8002fbc:	2201      	movs	r2, #1
 8002fbe:	2302      	movs	r3, #2
 8002fc0:	2f04      	cmp	r7, #4
 8002fc2:	7172      	strb	r2, [r6, #5]
 8002fc4:	7133      	strb	r3, [r6, #4]
 8002fc6:	f000 8084 	beq.w	80030d2 <HAL_DAC_ConfigChannel+0x18a>
 8002fca:	f005 0510 	and.w	r5, r5, #16
 8002fce:	6833      	ldr	r3, [r6, #0]
 8002fd0:	6922      	ldr	r2, [r4, #16]
 8002fd2:	2a01      	cmp	r2, #1
 8002fd4:	d039      	beq.n	800304a <HAL_DAC_ConfigChannel+0x102>
 8002fd6:	68e0      	ldr	r0, [r4, #12]
 8002fd8:	f04f 0e07 	mov.w	lr, #7
 8002fdc:	68a2      	ldr	r2, [r4, #8]
 8002fde:	fa0e fe05 	lsl.w	lr, lr, r5
 8002fe2:	6861      	ldr	r1, [r4, #4]
 8002fe4:	4302      	orrs	r2, r0
 8002fe6:	6bd8      	ldr	r0, [r3, #60]	; 0x3c
 8002fe8:	f640 74fe 	movw	r4, #4094	; 0xffe
 8002fec:	40a9      	lsls	r1, r5
 8002fee:	433a      	orrs	r2, r7
 8002ff0:	ea20 0e0e 	bic.w	lr, r0, lr
 8002ff4:	f44f 4080 	mov.w	r0, #16384	; 0x4000
 8002ff8:	fa04 f705 	lsl.w	r7, r4, r5
 8002ffc:	40aa      	lsls	r2, r5
 8002ffe:	fa00 fc05 	lsl.w	ip, r0, r5
 8003002:	20c0      	movs	r0, #192	; 0xc0
 8003004:	ea42 020e 	orr.w	r2, r2, lr
 8003008:	f04f 0e01 	mov.w	lr, #1
 800300c:	63da      	str	r2, [r3, #60]	; 0x3c
 800300e:	fa00 f205 	lsl.w	r2, r0, r5
 8003012:	6818      	ldr	r0, [r3, #0]
 8003014:	ea20 000c 	bic.w	r0, r0, ip
 8003018:	f04f 0c00 	mov.w	ip, #0
 800301c:	6018      	str	r0, [r3, #0]
 800301e:	4660      	mov	r0, ip
 8003020:	681c      	ldr	r4, [r3, #0]
 8003022:	ea24 0407 	bic.w	r4, r4, r7
 8003026:	4321      	orrs	r1, r4
 8003028:	6019      	str	r1, [r3, #0]
 800302a:	681d      	ldr	r5, [r3, #0]
 800302c:	ea25 0502 	bic.w	r5, r5, r2
 8003030:	601d      	str	r5, [r3, #0]
 8003032:	f886 e004 	strb.w	lr, [r6, #4]
 8003036:	f886 c005 	strb.w	ip, [r6, #5]
 800303a:	e8bd 81f0 	ldmia.w	sp!, {r4, r5, r6, r7, r8, pc}
 800303e:	4b54      	ldr	r3, [pc, #336]	; (8003190 <HAL_DAC_ConfigChannel+0x248>)
 8003040:	40d3      	lsrs	r3, r2
 8003042:	43db      	mvns	r3, r3
 8003044:	f003 0301 	and.w	r3, r3, #1
 8003048:	e78f      	b.n	8002f6a <HAL_DAC_ConfigChannel+0x22>
 800304a:	201f      	movs	r0, #31
 800304c:	6b99      	ldr	r1, [r3, #56]	; 0x38
 800304e:	6962      	ldr	r2, [r4, #20]
 8003050:	40a8      	lsls	r0, r5
 8003052:	40aa      	lsls	r2, r5
 8003054:	ea21 0100 	bic.w	r1, r1, r0
 8003058:	430a      	orrs	r2, r1
 800305a:	639a      	str	r2, [r3, #56]	; 0x38
 800305c:	e7bb      	b.n	8002fd6 <HAL_DAC_ConfigChannel+0x8e>
 800305e:	69a3      	ldr	r3, [r4, #24]
 8003060:	f5b3 6f80 	cmp.w	r3, #1024	; 0x400
 8003064:	f080 8083 	bcs.w	800316e <HAL_DAC_ConfigChannel+0x226>
 8003068:	69e3      	ldr	r3, [r4, #28]
 800306a:	f5b3 6f80 	cmp.w	r3, #1024	; 0x400
 800306e:	d278      	bcs.n	8003162 <HAL_DAC_ConfigChannel+0x21a>
 8003070:	6a23      	ldr	r3, [r4, #32]
 8003072:	2bff      	cmp	r3, #255	; 0xff
 8003074:	d99b      	bls.n	8002fae <HAL_DAC_ConfigChannel+0x66>
 8003076:	f240 31fb 	movw	r1, #1019	; 0x3fb
 800307a:	4844      	ldr	r0, [pc, #272]	; (800318c <HAL_DAC_ConfigChannel+0x244>)
 800307c:	f7fd ff10 	bl	8000ea0 <assert_failed>
 8003080:	f035 0310 	bics.w	r3, r5, #16
 8003084:	d096      	beq.n	8002fb4 <HAL_DAC_ConfigChannel+0x6c>
 8003086:	f240 31fd 	movw	r1, #1021	; 0x3fd
 800308a:	4840      	ldr	r0, [pc, #256]	; (800318c <HAL_DAC_ConfigChannel+0x244>)
 800308c:	f7fd ff08 	bl	8000ea0 <assert_failed>
 8003090:	7973      	ldrb	r3, [r6, #5]
 8003092:	2b01      	cmp	r3, #1
 8003094:	d191      	bne.n	8002fba <HAL_DAC_ConfigChannel+0x72>
 8003096:	2002      	movs	r0, #2
 8003098:	e8bd 81f0 	ldmia.w	sp!, {r4, r5, r6, r7, r8, pc}
 800309c:	6963      	ldr	r3, [r4, #20]
 800309e:	2b1f      	cmp	r3, #31
 80030a0:	f67f af7e 	bls.w	8002fa0 <HAL_DAC_ConfigChannel+0x58>
 80030a4:	f44f 717d 	mov.w	r1, #1012	; 0x3f4
 80030a8:	4838      	ldr	r0, [pc, #224]	; (800318c <HAL_DAC_ConfigChannel+0x244>)
 80030aa:	f7fd fef9 	bl	8000ea0 <assert_failed>
 80030ae:	6823      	ldr	r3, [r4, #0]
 80030b0:	f033 0204 	bics.w	r2, r3, #4
 80030b4:	f43f af79 	beq.w	8002faa <HAL_DAC_ConfigChannel+0x62>
 80030b8:	f240 31f6 	movw	r1, #1014	; 0x3f6
 80030bc:	4833      	ldr	r0, [pc, #204]	; (800318c <HAL_DAC_ConfigChannel+0x244>)
 80030be:	f7fd feef 	bl	8000ea0 <assert_failed>
 80030c2:	6823      	ldr	r3, [r4, #0]
 80030c4:	e771      	b.n	8002faa <HAL_DAC_ConfigChannel+0x62>
 80030c6:	f240 31ef 	movw	r1, #1007	; 0x3ef
 80030ca:	4830      	ldr	r0, [pc, #192]	; (800318c <HAL_DAC_ConfigChannel+0x244>)
 80030cc:	f7fd fee8 	bl	8000ea0 <assert_failed>
 80030d0:	e753      	b.n	8002f7a <HAL_DAC_ConfigChannel+0x32>
 80030d2:	b9cd      	cbnz	r5, 8003108 <HAL_DAC_ConfigChannel+0x1c0>
 80030d4:	f7fe f9e8 	bl	80014a8 <HAL_GetTick>
 80030d8:	4f2e      	ldr	r7, [pc, #184]	; (8003194 <HAL_DAC_ConfigChannel+0x24c>)
 80030da:	4680      	mov	r8, r0
 80030dc:	e005      	b.n	80030ea <HAL_DAC_ConfigChannel+0x1a2>
 80030de:	f7fe f9e3 	bl	80014a8 <HAL_GetTick>
 80030e2:	eba0 0008 	sub.w	r0, r0, r8
 80030e6:	2801      	cmp	r0, #1
 80030e8:	d832      	bhi.n	8003150 <HAL_DAC_ConfigChannel+0x208>
 80030ea:	6833      	ldr	r3, [r6, #0]
 80030ec:	6b5b      	ldr	r3, [r3, #52]	; 0x34
 80030ee:	423b      	tst	r3, r7
 80030f0:	d1f5      	bne.n	80030de <HAL_DAC_ConfigChannel+0x196>
 80030f2:	2001      	movs	r0, #1
 80030f4:	f7fe f9de 	bl	80014b4 <HAL_Delay>
 80030f8:	6833      	ldr	r3, [r6, #0]
 80030fa:	69a2      	ldr	r2, [r4, #24]
 80030fc:	641a      	str	r2, [r3, #64]	; 0x40
 80030fe:	e00d      	b.n	800311c <HAL_DAC_ConfigChannel+0x1d4>
 8003100:	f7fe f9d2 	bl	80014a8 <HAL_GetTick>
 8003104:	2801      	cmp	r0, #1
 8003106:	d823      	bhi.n	8003150 <HAL_DAC_ConfigChannel+0x208>
 8003108:	6833      	ldr	r3, [r6, #0]
 800310a:	6b5b      	ldr	r3, [r3, #52]	; 0x34
 800310c:	2b00      	cmp	r3, #0
 800310e:	dbf7      	blt.n	8003100 <HAL_DAC_ConfigChannel+0x1b8>
 8003110:	2001      	movs	r0, #1
 8003112:	f7fe f9cf 	bl	80014b4 <HAL_Delay>
 8003116:	6833      	ldr	r3, [r6, #0]
 8003118:	69a2      	ldr	r2, [r4, #24]
 800311a:	645a      	str	r2, [r3, #68]	; 0x44
 800311c:	f005 0510 	and.w	r5, r5, #16
 8003120:	f240 3cff 	movw	ip, #1023	; 0x3ff
 8003124:	6c99      	ldr	r1, [r3, #72]	; 0x48
 8003126:	22ff      	movs	r2, #255	; 0xff
 8003128:	69e7      	ldr	r7, [r4, #28]
 800312a:	fa0c fc05 	lsl.w	ip, ip, r5
 800312e:	fa02 f005 	lsl.w	r0, r2, r5
 8003132:	6a22      	ldr	r2, [r4, #32]
 8003134:	40af      	lsls	r7, r5
 8003136:	ea21 010c 	bic.w	r1, r1, ip
 800313a:	4339      	orrs	r1, r7
 800313c:	6827      	ldr	r7, [r4, #0]
 800313e:	6499      	str	r1, [r3, #72]	; 0x48
 8003140:	fa02 f105 	lsl.w	r1, r2, r5
 8003144:	6cda      	ldr	r2, [r3, #76]	; 0x4c
 8003146:	ea22 0200 	bic.w	r2, r2, r0
 800314a:	430a      	orrs	r2, r1
 800314c:	64da      	str	r2, [r3, #76]	; 0x4c
 800314e:	e73f      	b.n	8002fd0 <HAL_DAC_ConfigChannel+0x88>
 8003150:	6933      	ldr	r3, [r6, #16]
 8003152:	2203      	movs	r2, #3
 8003154:	f043 0308 	orr.w	r3, r3, #8
 8003158:	4610      	mov	r0, r2
 800315a:	6133      	str	r3, [r6, #16]
 800315c:	7132      	strb	r2, [r6, #4]
 800315e:	e8bd 81f0 	ldmia.w	sp!, {r4, r5, r6, r7, r8, pc}
 8003162:	f240 31fa 	movw	r1, #1018	; 0x3fa
 8003166:	4809      	ldr	r0, [pc, #36]	; (800318c <HAL_DAC_ConfigChannel+0x244>)
 8003168:	f7fd fe9a 	bl	8000ea0 <assert_failed>
 800316c:	e780      	b.n	8003070 <HAL_DAC_ConfigChannel+0x128>
 800316e:	f240 31f9 	movw	r1, #1017	; 0x3f9
 8003172:	4806      	ldr	r0, [pc, #24]	; (800318c <HAL_DAC_ConfigChannel+0x244>)
 8003174:	f7fd fe94 	bl	8000ea0 <assert_failed>
 8003178:	e776      	b.n	8003068 <HAL_DAC_ConfigChannel+0x120>
 800317a:	f240 31ee 	movw	r1, #1006	; 0x3ee
 800317e:	4803      	ldr	r0, [pc, #12]	; (800318c <HAL_DAC_ConfigChannel+0x244>)
 8003180:	f7fd fe8e 	bl	8000ea0 <assert_failed>
 8003184:	e6f4      	b.n	8002f70 <HAL_DAC_ConfigChannel+0x28>
 8003186:	bf00      	nop
 8003188:	00111111 	.word	0x00111111
 800318c:	0800d004 	.word	0x0800d004
 8003190:	44444445 	.word	0x44444445
 8003194:	20008000 	.word	0x20008000

08003198 <DMA_CalcBaseAndBitshift>:
 8003198:	6802      	ldr	r2, [r0, #0]
 800319a:	4601      	mov	r1, r0
 800319c:	4b34      	ldr	r3, [pc, #208]	; (8003270 <DMA_CalcBaseAndBitshift+0xd8>)
 800319e:	4835      	ldr	r0, [pc, #212]	; (8003274 <DMA_CalcBaseAndBitshift+0xdc>)
 80031a0:	b430      	push	{r4, r5}
 80031a2:	4c35      	ldr	r4, [pc, #212]	; (8003278 <DMA_CalcBaseAndBitshift+0xe0>)
 80031a4:	4d35      	ldr	r5, [pc, #212]	; (800327c <DMA_CalcBaseAndBitshift+0xe4>)
 80031a6:	42a2      	cmp	r2, r4
 80031a8:	bf18      	it	ne
 80031aa:	429a      	cmpne	r2, r3
 80031ac:	f104 0448 	add.w	r4, r4, #72	; 0x48
 80031b0:	bf0c      	ite	eq
 80031b2:	2301      	moveq	r3, #1
 80031b4:	2300      	movne	r3, #0
 80031b6:	4282      	cmp	r2, r0
 80031b8:	bf08      	it	eq
 80031ba:	f043 0301 	orreq.w	r3, r3, #1
 80031be:	3048      	adds	r0, #72	; 0x48
 80031c0:	42aa      	cmp	r2, r5
 80031c2:	bf08      	it	eq
 80031c4:	f043 0301 	orreq.w	r3, r3, #1
 80031c8:	3548      	adds	r5, #72	; 0x48
 80031ca:	42a2      	cmp	r2, r4
 80031cc:	bf08      	it	eq
 80031ce:	f043 0301 	orreq.w	r3, r3, #1
 80031d2:	3448      	adds	r4, #72	; 0x48
 80031d4:	4282      	cmp	r2, r0
 80031d6:	bf08      	it	eq
 80031d8:	f043 0301 	orreq.w	r3, r3, #1
 80031dc:	f500 7062 	add.w	r0, r0, #904	; 0x388
 80031e0:	42aa      	cmp	r2, r5
 80031e2:	bf08      	it	eq
 80031e4:	f043 0301 	orreq.w	r3, r3, #1
 80031e8:	f505 7562 	add.w	r5, r5, #904	; 0x388
 80031ec:	42a2      	cmp	r2, r4
 80031ee:	bf08      	it	eq
 80031f0:	f043 0301 	orreq.w	r3, r3, #1
 80031f4:	f504 7462 	add.w	r4, r4, #904	; 0x388
 80031f8:	4282      	cmp	r2, r0
 80031fa:	bf08      	it	eq
 80031fc:	f043 0301 	orreq.w	r3, r3, #1
 8003200:	3048      	adds	r0, #72	; 0x48
 8003202:	42aa      	cmp	r2, r5
 8003204:	bf08      	it	eq
 8003206:	f043 0301 	orreq.w	r3, r3, #1
 800320a:	3548      	adds	r5, #72	; 0x48
 800320c:	42a2      	cmp	r2, r4
 800320e:	bf08      	it	eq
 8003210:	f043 0301 	orreq.w	r3, r3, #1
 8003214:	3448      	adds	r4, #72	; 0x48
 8003216:	4282      	cmp	r2, r0
 8003218:	bf08      	it	eq
 800321a:	f043 0301 	orreq.w	r3, r3, #1
 800321e:	3048      	adds	r0, #72	; 0x48
 8003220:	42aa      	cmp	r2, r5
 8003222:	bf08      	it	eq
 8003224:	f043 0301 	orreq.w	r3, r3, #1
 8003228:	42a2      	cmp	r2, r4
 800322a:	bf08      	it	eq
 800322c:	f043 0301 	orreq.w	r3, r3, #1
 8003230:	4282      	cmp	r2, r0
 8003232:	bf08      	it	eq
 8003234:	f043 0301 	orreq.w	r3, r3, #1
 8003238:	b913      	cbnz	r3, 8003240 <DMA_CalcBaseAndBitshift+0xa8>
 800323a:	4b11      	ldr	r3, [pc, #68]	; (8003280 <DMA_CalcBaseAndBitshift+0xe8>)
 800323c:	429a      	cmp	r2, r3
 800323e:	d112      	bne.n	8003266 <DMA_CalcBaseAndBitshift+0xce>
 8003240:	b2d3      	uxtb	r3, r2
 8003242:	4d10      	ldr	r5, [pc, #64]	; (8003284 <DMA_CalcBaseAndBitshift+0xec>)
 8003244:	4810      	ldr	r0, [pc, #64]	; (8003288 <DMA_CalcBaseAndBitshift+0xf0>)
 8003246:	3b10      	subs	r3, #16
 8003248:	4c10      	ldr	r4, [pc, #64]	; (800328c <DMA_CalcBaseAndBitshift+0xf4>)
 800324a:	4010      	ands	r0, r2
 800324c:	fba5 5303 	umull	r5, r3, r5, r3
 8003250:	091b      	lsrs	r3, r3, #4
 8003252:	f003 0207 	and.w	r2, r3, #7
 8003256:	2b03      	cmp	r3, #3
 8003258:	5ca2      	ldrb	r2, [r4, r2]
 800325a:	bf88      	it	hi
 800325c:	3004      	addhi	r0, #4
 800325e:	65ca      	str	r2, [r1, #92]	; 0x5c
 8003260:	6588      	str	r0, [r1, #88]	; 0x58
 8003262:	bc30      	pop	{r4, r5}
 8003264:	4770      	bx	lr
 8003266:	f022 00ff 	bic.w	r0, r2, #255	; 0xff
 800326a:	6588      	str	r0, [r1, #88]	; 0x58
 800326c:	e7f9      	b.n	8003262 <DMA_CalcBaseAndBitshift+0xca>
 800326e:	bf00      	nop
 8003270:	40020010 	.word	0x40020010
 8003274:	40020040 	.word	0x40020040
 8003278:	40020028 	.word	0x40020028
 800327c:	40020058 	.word	0x40020058
 8003280:	400204b8 	.word	0x400204b8
 8003284:	aaaaaaab 	.word	0xaaaaaaab
 8003288:	fffffc00 	.word	0xfffffc00
 800328c:	0800d074 	.word	0x0800d074

08003290 <HAL_DMA_Init>:
 8003290:	b5f8      	push	{r3, r4, r5, r6, r7, lr}
 8003292:	4605      	mov	r5, r0
 8003294:	f7fe f908 	bl	80014a8 <HAL_GetTick>
 8003298:	2d00      	cmp	r5, #0
 800329a:	f000 821e 	beq.w	80036da <HAL_DMA_Init+0x44a>
 800329e:	682a      	ldr	r2, [r5, #0]
 80032a0:	4604      	mov	r4, r0
 80032a2:	4b98      	ldr	r3, [pc, #608]	; (8003504 <HAL_DMA_Init+0x274>)
 80032a4:	4898      	ldr	r0, [pc, #608]	; (8003508 <HAL_DMA_Init+0x278>)
 80032a6:	4999      	ldr	r1, [pc, #612]	; (800350c <HAL_DMA_Init+0x27c>)
 80032a8:	429a      	cmp	r2, r3
 80032aa:	bf18      	it	ne
 80032ac:	4282      	cmpne	r2, r0
 80032ae:	f100 0030 	add.w	r0, r0, #48	; 0x30
 80032b2:	bf14      	ite	ne
 80032b4:	2301      	movne	r3, #1
 80032b6:	2300      	moveq	r3, #0
 80032b8:	428a      	cmp	r2, r1
 80032ba:	bf0c      	ite	eq
 80032bc:	2300      	moveq	r3, #0
 80032be:	f003 0301 	andne.w	r3, r3, #1
 80032c2:	3130      	adds	r1, #48	; 0x30
 80032c4:	4282      	cmp	r2, r0
 80032c6:	bf0c      	ite	eq
 80032c8:	2300      	moveq	r3, #0
 80032ca:	f003 0301 	andne.w	r3, r3, #1
 80032ce:	3030      	adds	r0, #48	; 0x30
 80032d0:	428a      	cmp	r2, r1
 80032d2:	bf0c      	ite	eq
 80032d4:	2300      	moveq	r3, #0
 80032d6:	f003 0301 	andne.w	r3, r3, #1
 80032da:	3130      	adds	r1, #48	; 0x30
 80032dc:	4282      	cmp	r2, r0
 80032de:	bf0c      	ite	eq
 80032e0:	2300      	moveq	r3, #0
 80032e2:	f003 0301 	andne.w	r3, r3, #1
 80032e6:	3030      	adds	r0, #48	; 0x30
 80032e8:	428a      	cmp	r2, r1
 80032ea:	bf0c      	ite	eq
 80032ec:	2300      	moveq	r3, #0
 80032ee:	f003 0301 	andne.w	r3, r3, #1
 80032f2:	f501 715c 	add.w	r1, r1, #880	; 0x370
 80032f6:	4282      	cmp	r2, r0
 80032f8:	bf0c      	ite	eq
 80032fa:	2300      	moveq	r3, #0
 80032fc:	f003 0301 	andne.w	r3, r3, #1
 8003300:	f500 705c 	add.w	r0, r0, #880	; 0x370
 8003304:	428a      	cmp	r2, r1
 8003306:	bf0c      	ite	eq
 8003308:	2300      	moveq	r3, #0
 800330a:	f003 0301 	andne.w	r3, r3, #1
 800330e:	3130      	adds	r1, #48	; 0x30
 8003310:	4282      	cmp	r2, r0
 8003312:	bf0c      	ite	eq
 8003314:	2300      	moveq	r3, #0
 8003316:	f003 0301 	andne.w	r3, r3, #1
 800331a:	3030      	adds	r0, #48	; 0x30
 800331c:	428a      	cmp	r2, r1
 800331e:	bf0c      	ite	eq
 8003320:	2300      	moveq	r3, #0
 8003322:	f003 0301 	andne.w	r3, r3, #1
 8003326:	3130      	adds	r1, #48	; 0x30
 8003328:	4282      	cmp	r2, r0
 800332a:	bf0c      	ite	eq
 800332c:	2300      	moveq	r3, #0
 800332e:	f003 0301 	andne.w	r3, r3, #1
 8003332:	3030      	adds	r0, #48	; 0x30
 8003334:	428a      	cmp	r2, r1
 8003336:	bf0c      	ite	eq
 8003338:	2300      	moveq	r3, #0
 800333a:	f003 0301 	andne.w	r3, r3, #1
 800333e:	3130      	adds	r1, #48	; 0x30
 8003340:	4282      	cmp	r2, r0
 8003342:	bf0c      	ite	eq
 8003344:	2300      	moveq	r3, #0
 8003346:	f003 0301 	andne.w	r3, r3, #1
 800334a:	3030      	adds	r0, #48	; 0x30
 800334c:	428a      	cmp	r2, r1
 800334e:	bf0c      	ite	eq
 8003350:	2300      	moveq	r3, #0
 8003352:	f003 0301 	andne.w	r3, r3, #1
 8003356:	496e      	ldr	r1, [pc, #440]	; (8003510 <HAL_DMA_Init+0x280>)
 8003358:	4282      	cmp	r2, r0
 800335a:	bf0c      	ite	eq
 800335c:	2300      	moveq	r3, #0
 800335e:	f003 0301 	andne.w	r3, r3, #1
 8003362:	486c      	ldr	r0, [pc, #432]	; (8003514 <HAL_DMA_Init+0x284>)
 8003364:	428a      	cmp	r2, r1
 8003366:	bf0c      	ite	eq
 8003368:	2300      	moveq	r3, #0
 800336a:	f003 0301 	andne.w	r3, r3, #1
 800336e:	3128      	adds	r1, #40	; 0x28
 8003370:	4282      	cmp	r2, r0
 8003372:	bf0c      	ite	eq
 8003374:	2300      	moveq	r3, #0
 8003376:	f003 0301 	andne.w	r3, r3, #1
 800337a:	3028      	adds	r0, #40	; 0x28
 800337c:	428a      	cmp	r2, r1
 800337e:	bf0c      	ite	eq
 8003380:	2300      	moveq	r3, #0
 8003382:	f003 0301 	andne.w	r3, r3, #1
 8003386:	3128      	adds	r1, #40	; 0x28
 8003388:	4282      	cmp	r2, r0
 800338a:	bf0c      	ite	eq
 800338c:	2300      	moveq	r3, #0
 800338e:	f003 0301 	andne.w	r3, r3, #1
 8003392:	3028      	adds	r0, #40	; 0x28
 8003394:	428a      	cmp	r2, r1
 8003396:	bf0c      	ite	eq
 8003398:	2300      	moveq	r3, #0
 800339a:	f003 0301 	andne.w	r3, r3, #1
 800339e:	3128      	adds	r1, #40	; 0x28
 80033a0:	4282      	cmp	r2, r0
 80033a2:	bf0c      	ite	eq
 80033a4:	2300      	moveq	r3, #0
 80033a6:	f003 0301 	andne.w	r3, r3, #1
 80033aa:	428a      	cmp	r2, r1
 80033ac:	bf0c      	ite	eq
 80033ae:	2300      	moveq	r3, #0
 80033b0:	f003 0301 	andne.w	r3, r3, #1
 80033b4:	b11b      	cbz	r3, 80033be <HAL_DMA_Init+0x12e>
 80033b6:	4b58      	ldr	r3, [pc, #352]	; (8003518 <HAL_DMA_Init+0x288>)
 80033b8:	429a      	cmp	r2, r3
 80033ba:	f040 82a3 	bne.w	8003904 <HAL_DMA_Init+0x674>
 80033be:	68ab      	ldr	r3, [r5, #8]
 80033c0:	f033 0240 	bics.w	r2, r3, #64	; 0x40
 80033c4:	d002      	beq.n	80033cc <HAL_DMA_Init+0x13c>
 80033c6:	2b80      	cmp	r3, #128	; 0x80
 80033c8:	f040 8189 	bne.w	80036de <HAL_DMA_Init+0x44e>
 80033cc:	68eb      	ldr	r3, [r5, #12]
 80033ce:	f433 7300 	bics.w	r3, r3, #512	; 0x200
 80033d2:	f040 8151 	bne.w	8003678 <HAL_DMA_Init+0x3e8>
 80033d6:	692b      	ldr	r3, [r5, #16]
 80033d8:	f433 6380 	bics.w	r3, r3, #1024	; 0x400
 80033dc:	f040 8142 	bne.w	8003664 <HAL_DMA_Init+0x3d4>
 80033e0:	696b      	ldr	r3, [r5, #20]
 80033e2:	f433 6200 	bics.w	r2, r3, #2048	; 0x800
 80033e6:	d003      	beq.n	80033f0 <HAL_DMA_Init+0x160>
 80033e8:	f5b3 5f80 	cmp.w	r3, #4096	; 0x1000
 80033ec:	f040 8181 	bne.w	80036f2 <HAL_DMA_Init+0x462>
 80033f0:	69ab      	ldr	r3, [r5, #24]
 80033f2:	f433 5200 	bics.w	r2, r3, #8192	; 0x2000
 80033f6:	d003      	beq.n	8003400 <HAL_DMA_Init+0x170>
 80033f8:	f5b3 4f80 	cmp.w	r3, #16384	; 0x4000
 80033fc:	f040 8183 	bne.w	8003706 <HAL_DMA_Init+0x476>
 8003400:	69ea      	ldr	r2, [r5, #28]
 8003402:	f032 0320 	bics.w	r3, r2, #32
 8003406:	f422 2100 	bic.w	r1, r2, #524288	; 0x80000
 800340a:	bf14      	ite	ne
 800340c:	2301      	movne	r3, #1
 800340e:	2300      	moveq	r3, #0
 8003410:	f5b1 2f80 	cmp.w	r1, #262144	; 0x40000
 8003414:	bf0c      	ite	eq
 8003416:	2300      	moveq	r3, #0
 8003418:	f003 0301 	andne.w	r3, r3, #1
 800341c:	b11b      	cbz	r3, 8003426 <HAL_DMA_Init+0x196>
 800341e:	f5b2 7f80 	cmp.w	r2, #256	; 0x100
 8003422:	f040 8175 	bne.w	8003710 <HAL_DMA_Init+0x480>
 8003426:	6a2b      	ldr	r3, [r5, #32]
 8003428:	f433 3340 	bics.w	r3, r3, #196608	; 0x30000
 800342c:	f040 819e 	bne.w	800376c <HAL_DMA_Init+0x4dc>
 8003430:	682a      	ldr	r2, [r5, #0]
 8003432:	4b34      	ldr	r3, [pc, #208]	; (8003504 <HAL_DMA_Init+0x274>)
 8003434:	4834      	ldr	r0, [pc, #208]	; (8003508 <HAL_DMA_Init+0x278>)
 8003436:	4935      	ldr	r1, [pc, #212]	; (800350c <HAL_DMA_Init+0x27c>)
 8003438:	4282      	cmp	r2, r0
 800343a:	bf18      	it	ne
 800343c:	429a      	cmpne	r2, r3
 800343e:	f100 0030 	add.w	r0, r0, #48	; 0x30
 8003442:	bf0c      	ite	eq
 8003444:	2301      	moveq	r3, #1
 8003446:	2300      	movne	r3, #0
 8003448:	428a      	cmp	r2, r1
 800344a:	bf08      	it	eq
 800344c:	f043 0301 	orreq.w	r3, r3, #1
 8003450:	3130      	adds	r1, #48	; 0x30
 8003452:	4282      	cmp	r2, r0
 8003454:	bf08      	it	eq
 8003456:	f043 0301 	orreq.w	r3, r3, #1
 800345a:	3030      	adds	r0, #48	; 0x30
 800345c:	428a      	cmp	r2, r1
 800345e:	bf08      	it	eq
 8003460:	f043 0301 	orreq.w	r3, r3, #1
 8003464:	3130      	adds	r1, #48	; 0x30
 8003466:	4282      	cmp	r2, r0
 8003468:	bf08      	it	eq
 800346a:	f043 0301 	orreq.w	r3, r3, #1
 800346e:	3030      	adds	r0, #48	; 0x30
 8003470:	428a      	cmp	r2, r1
 8003472:	bf08      	it	eq
 8003474:	f043 0301 	orreq.w	r3, r3, #1
 8003478:	f501 715c 	add.w	r1, r1, #880	; 0x370
 800347c:	4282      	cmp	r2, r0
 800347e:	bf08      	it	eq
 8003480:	f043 0301 	orreq.w	r3, r3, #1
 8003484:	f500 705c 	add.w	r0, r0, #880	; 0x370
 8003488:	428a      	cmp	r2, r1
 800348a:	bf08      	it	eq
 800348c:	f043 0301 	orreq.w	r3, r3, #1
 8003490:	3130      	adds	r1, #48	; 0x30
 8003492:	4282      	cmp	r2, r0
 8003494:	bf08      	it	eq
 8003496:	f043 0301 	orreq.w	r3, r3, #1
 800349a:	3030      	adds	r0, #48	; 0x30
 800349c:	428a      	cmp	r2, r1
 800349e:	bf08      	it	eq
 80034a0:	f043 0301 	orreq.w	r3, r3, #1
 80034a4:	3130      	adds	r1, #48	; 0x30
 80034a6:	4282      	cmp	r2, r0
 80034a8:	bf08      	it	eq
 80034aa:	f043 0301 	orreq.w	r3, r3, #1
 80034ae:	3030      	adds	r0, #48	; 0x30
 80034b0:	428a      	cmp	r2, r1
 80034b2:	bf08      	it	eq
 80034b4:	f043 0301 	orreq.w	r3, r3, #1
 80034b8:	3130      	adds	r1, #48	; 0x30
 80034ba:	4282      	cmp	r2, r0
 80034bc:	bf08      	it	eq
 80034be:	f043 0301 	orreq.w	r3, r3, #1
 80034c2:	428a      	cmp	r2, r1
 80034c4:	bf08      	it	eq
 80034c6:	f043 0301 	orreq.w	r3, r3, #1
 80034ca:	b91b      	cbnz	r3, 80034d4 <HAL_DMA_Init+0x244>
 80034cc:	4b13      	ldr	r3, [pc, #76]	; (800351c <HAL_DMA_Init+0x28c>)
 80034ce:	429a      	cmp	r2, r3
 80034d0:	f040 8176 	bne.w	80037c0 <HAL_DMA_Init+0x530>
 80034d4:	686b      	ldr	r3, [r5, #4]
 80034d6:	2b73      	cmp	r3, #115	; 0x73
 80034d8:	f200 80d8 	bhi.w	800368c <HAL_DMA_Init+0x3fc>
 80034dc:	6a6b      	ldr	r3, [r5, #36]	; 0x24
 80034de:	f033 0204 	bics.w	r2, r3, #4
 80034e2:	f040 80dc 	bne.w	800369e <HAL_DMA_Init+0x40e>
 80034e6:	2b00      	cmp	r3, #0
 80034e8:	f040 80a9 	bne.w	800363e <HAL_DMA_Init+0x3ae>
 80034ec:	2000      	movs	r0, #0
 80034ee:	682b      	ldr	r3, [r5, #0]
 80034f0:	f885 0034 	strb.w	r0, [r5, #52]	; 0x34
 80034f4:	2002      	movs	r0, #2
 80034f6:	f885 0035 	strb.w	r0, [r5, #53]	; 0x35
 80034fa:	681a      	ldr	r2, [r3, #0]
 80034fc:	f022 0201 	bic.w	r2, r2, #1
 8003500:	601a      	str	r2, [r3, #0]
 8003502:	e014      	b.n	800352e <HAL_DMA_Init+0x29e>
 8003504:	40020010 	.word	0x40020010
 8003508:	40020028 	.word	0x40020028
 800350c:	40020040 	.word	0x40020040
 8003510:	58025408 	.word	0x58025408
 8003514:	5802541c 	.word	0x5802541c
 8003518:	58025494 	.word	0x58025494
 800351c:	400204b8 	.word	0x400204b8
 8003520:	f7fd ffc2 	bl	80014a8 <HAL_GetTick>
 8003524:	1b00      	subs	r0, r0, r4
 8003526:	2805      	cmp	r0, #5
 8003528:	f200 80d0 	bhi.w	80036cc <HAL_DMA_Init+0x43c>
 800352c:	682b      	ldr	r3, [r5, #0]
 800352e:	681a      	ldr	r2, [r3, #0]
 8003530:	07d1      	lsls	r1, r2, #31
 8003532:	d4f5      	bmi.n	8003520 <HAL_DMA_Init+0x290>
 8003534:	e9d5 2002 	ldrd	r2, r0, [r5, #8]
 8003538:	6929      	ldr	r1, [r5, #16]
 800353a:	4302      	orrs	r2, r0
 800353c:	681f      	ldr	r7, [r3, #0]
 800353e:	e9d5 6405 	ldrd	r6, r4, [r5, #20]
 8003542:	430a      	orrs	r2, r1
 8003544:	4332      	orrs	r2, r6
 8003546:	4e94      	ldr	r6, [pc, #592]	; (8003798 <HAL_DMA_Init+0x508>)
 8003548:	e9d5 1007 	ldrd	r1, r0, [r5, #28]
 800354c:	4322      	orrs	r2, r4
 800354e:	403e      	ands	r6, r7
 8003550:	430a      	orrs	r2, r1
 8003552:	6a69      	ldr	r1, [r5, #36]	; 0x24
 8003554:	4302      	orrs	r2, r0
 8003556:	2904      	cmp	r1, #4
 8003558:	ea42 0206 	orr.w	r2, r2, r6
 800355c:	f000 80dd 	beq.w	800371a <HAL_DMA_Init+0x48a>
 8003560:	601a      	str	r2, [r3, #0]
 8003562:	695a      	ldr	r2, [r3, #20]
 8003564:	f022 0207 	bic.w	r2, r2, #7
 8003568:	4311      	orrs	r1, r2
 800356a:	6159      	str	r1, [r3, #20]
 800356c:	4628      	mov	r0, r5
 800356e:	f7ff fe13 	bl	8003198 <DMA_CalcBaseAndBitshift>
 8003572:	6dea      	ldr	r2, [r5, #92]	; 0x5c
 8003574:	233f      	movs	r3, #63	; 0x3f
 8003576:	f002 021f 	and.w	r2, r2, #31
 800357a:	4093      	lsls	r3, r2
 800357c:	6083      	str	r3, [r0, #8]
 800357e:	6829      	ldr	r1, [r5, #0]
 8003580:	4b86      	ldr	r3, [pc, #536]	; (800379c <HAL_DMA_Init+0x50c>)
 8003582:	4887      	ldr	r0, [pc, #540]	; (80037a0 <HAL_DMA_Init+0x510>)
 8003584:	b2ca      	uxtb	r2, r1
 8003586:	4c87      	ldr	r4, [pc, #540]	; (80037a4 <HAL_DMA_Init+0x514>)
 8003588:	4281      	cmp	r1, r0
 800358a:	bf18      	it	ne
 800358c:	4299      	cmpne	r1, r3
 800358e:	f100 0028 	add.w	r0, r0, #40	; 0x28
 8003592:	bf0c      	ite	eq
 8003594:	2301      	moveq	r3, #1
 8003596:	2300      	movne	r3, #0
 8003598:	42a1      	cmp	r1, r4
 800359a:	bf08      	it	eq
 800359c:	f043 0301 	orreq.w	r3, r3, #1
 80035a0:	3428      	adds	r4, #40	; 0x28
 80035a2:	4281      	cmp	r1, r0
 80035a4:	bf08      	it	eq
 80035a6:	f043 0301 	orreq.w	r3, r3, #1
 80035aa:	3028      	adds	r0, #40	; 0x28
 80035ac:	42a1      	cmp	r1, r4
 80035ae:	bf08      	it	eq
 80035b0:	f043 0301 	orreq.w	r3, r3, #1
 80035b4:	3428      	adds	r4, #40	; 0x28
 80035b6:	4281      	cmp	r1, r0
 80035b8:	bf08      	it	eq
 80035ba:	f043 0301 	orreq.w	r3, r3, #1
 80035be:	3028      	adds	r0, #40	; 0x28
 80035c0:	42a1      	cmp	r1, r4
 80035c2:	bf08      	it	eq
 80035c4:	f043 0301 	orreq.w	r3, r3, #1
 80035c8:	4281      	cmp	r1, r0
 80035ca:	bf08      	it	eq
 80035cc:	f043 0301 	orreq.w	r3, r3, #1
 80035d0:	2b00      	cmp	r3, #0
 80035d2:	f000 815d 	beq.w	8003890 <HAL_DMA_Init+0x600>
 80035d6:	4c74      	ldr	r4, [pc, #464]	; (80037a8 <HAL_DMA_Init+0x518>)
 80035d8:	3a08      	subs	r2, #8
 80035da:	4974      	ldr	r1, [pc, #464]	; (80037ac <HAL_DMA_Init+0x51c>)
 80035dc:	2001      	movs	r0, #1
 80035de:	fba4 4202 	umull	r4, r2, r4, r2
 80035e2:	4c73      	ldr	r4, [pc, #460]	; (80037b0 <HAL_DMA_Init+0x520>)
 80035e4:	0912      	lsrs	r2, r2, #4
 80035e6:	666c      	str	r4, [r5, #100]	; 0x64
 80035e8:	4411      	add	r1, r2
 80035ea:	f002 021f 	and.w	r2, r2, #31
 80035ee:	0089      	lsls	r1, r1, #2
 80035f0:	fa00 f202 	lsl.w	r2, r0, r2
 80035f4:	6629      	str	r1, [r5, #96]	; 0x60
 80035f6:	66aa      	str	r2, [r5, #104]	; 0x68
 80035f8:	68a8      	ldr	r0, [r5, #8]
 80035fa:	2880      	cmp	r0, #128	; 0x80
 80035fc:	d058      	beq.n	80036b0 <HAL_DMA_Init+0x420>
 80035fe:	6868      	ldr	r0, [r5, #4]
 8003600:	b2c6      	uxtb	r6, r0
 8003602:	3801      	subs	r0, #1
 8003604:	2807      	cmp	r0, #7
 8003606:	600e      	str	r6, [r1, #0]
 8003608:	6062      	str	r2, [r4, #4]
 800360a:	d855      	bhi.n	80036b8 <HAL_DMA_Init+0x428>
 800360c:	1e70      	subs	r0, r6, #1
 800360e:	2807      	cmp	r0, #7
 8003610:	f200 80b6 	bhi.w	8003780 <HAL_DMA_Init+0x4f0>
 8003614:	2b00      	cmp	r3, #0
 8003616:	f000 8167 	beq.w	80038e8 <HAL_DMA_Init+0x658>
 800361a:	4b66      	ldr	r3, [pc, #408]	; (80037b4 <HAL_DMA_Init+0x524>)
 800361c:	4966      	ldr	r1, [pc, #408]	; (80037b8 <HAL_DMA_Init+0x528>)
 800361e:	4433      	add	r3, r6
 8003620:	009b      	lsls	r3, r3, #2
 8003622:	2201      	movs	r2, #1
 8003624:	4082      	lsls	r2, r0
 8003626:	e9c5 311b 	strd	r3, r1, [r5, #108]	; 0x6c
 800362a:	676a      	str	r2, [r5, #116]	; 0x74
 800362c:	2000      	movs	r0, #0
 800362e:	6018      	str	r0, [r3, #0]
 8003630:	2000      	movs	r0, #0
 8003632:	2301      	movs	r3, #1
 8003634:	604a      	str	r2, [r1, #4]
 8003636:	6568      	str	r0, [r5, #84]	; 0x54
 8003638:	f885 3035 	strb.w	r3, [r5, #53]	; 0x35
 800363c:	bdf8      	pop	{r3, r4, r5, r6, r7, pc}
 800363e:	6aab      	ldr	r3, [r5, #40]	; 0x28
 8003640:	2b03      	cmp	r3, #3
 8003642:	f200 808e 	bhi.w	8003762 <HAL_DMA_Init+0x4d2>
 8003646:	6aeb      	ldr	r3, [r5, #44]	; 0x2c
 8003648:	f033 73c0 	bics.w	r3, r3, #25165824	; 0x1800000
 800364c:	f040 8093 	bne.w	8003776 <HAL_DMA_Init+0x4e6>
 8003650:	6b2b      	ldr	r3, [r5, #48]	; 0x30
 8003652:	f433 03c0 	bics.w	r3, r3, #6291456	; 0x600000
 8003656:	f43f af49 	beq.w	80034ec <HAL_DMA_Init+0x25c>
 800365a:	21e7      	movs	r1, #231	; 0xe7
 800365c:	4857      	ldr	r0, [pc, #348]	; (80037bc <HAL_DMA_Init+0x52c>)
 800365e:	f7fd fc1f 	bl	8000ea0 <assert_failed>
 8003662:	e743      	b.n	80034ec <HAL_DMA_Init+0x25c>
 8003664:	21d7      	movs	r1, #215	; 0xd7
 8003666:	4855      	ldr	r0, [pc, #340]	; (80037bc <HAL_DMA_Init+0x52c>)
 8003668:	f7fd fc1a 	bl	8000ea0 <assert_failed>
 800366c:	696b      	ldr	r3, [r5, #20]
 800366e:	f433 6200 	bics.w	r2, r3, #2048	; 0x800
 8003672:	f47f aeb9 	bne.w	80033e8 <HAL_DMA_Init+0x158>
 8003676:	e6bb      	b.n	80033f0 <HAL_DMA_Init+0x160>
 8003678:	21d6      	movs	r1, #214	; 0xd6
 800367a:	4850      	ldr	r0, [pc, #320]	; (80037bc <HAL_DMA_Init+0x52c>)
 800367c:	f7fd fc10 	bl	8000ea0 <assert_failed>
 8003680:	692b      	ldr	r3, [r5, #16]
 8003682:	f433 6380 	bics.w	r3, r3, #1024	; 0x400
 8003686:	f43f aeab 	beq.w	80033e0 <HAL_DMA_Init+0x150>
 800368a:	e7eb      	b.n	8003664 <HAL_DMA_Init+0x3d4>
 800368c:	21df      	movs	r1, #223	; 0xdf
 800368e:	484b      	ldr	r0, [pc, #300]	; (80037bc <HAL_DMA_Init+0x52c>)
 8003690:	f7fd fc06 	bl	8000ea0 <assert_failed>
 8003694:	6a6b      	ldr	r3, [r5, #36]	; 0x24
 8003696:	f033 0204 	bics.w	r2, r3, #4
 800369a:	f43f af24 	beq.w	80034e6 <HAL_DMA_Init+0x256>
 800369e:	21e0      	movs	r1, #224	; 0xe0
 80036a0:	4846      	ldr	r0, [pc, #280]	; (80037bc <HAL_DMA_Init+0x52c>)
 80036a2:	f7fd fbfd 	bl	8000ea0 <assert_failed>
 80036a6:	6a6b      	ldr	r3, [r5, #36]	; 0x24
 80036a8:	2b00      	cmp	r3, #0
 80036aa:	f43f af1f 	beq.w	80034ec <HAL_DMA_Init+0x25c>
 80036ae:	e7c6      	b.n	800363e <HAL_DMA_Init+0x3ae>
 80036b0:	2300      	movs	r3, #0
 80036b2:	606b      	str	r3, [r5, #4]
 80036b4:	600b      	str	r3, [r1, #0]
 80036b6:	6062      	str	r2, [r4, #4]
 80036b8:	2300      	movs	r3, #0
 80036ba:	2000      	movs	r0, #0
 80036bc:	e9c5 331b 	strd	r3, r3, [r5, #108]	; 0x6c
 80036c0:	676b      	str	r3, [r5, #116]	; 0x74
 80036c2:	2301      	movs	r3, #1
 80036c4:	6568      	str	r0, [r5, #84]	; 0x54
 80036c6:	f885 3035 	strb.w	r3, [r5, #53]	; 0x35
 80036ca:	bdf8      	pop	{r3, r4, r5, r6, r7, pc}
 80036cc:	2220      	movs	r2, #32
 80036ce:	2303      	movs	r3, #3
 80036d0:	2001      	movs	r0, #1
 80036d2:	656a      	str	r2, [r5, #84]	; 0x54
 80036d4:	f885 3035 	strb.w	r3, [r5, #53]	; 0x35
 80036d8:	bdf8      	pop	{r3, r4, r5, r6, r7, pc}
 80036da:	2001      	movs	r0, #1
 80036dc:	bdf8      	pop	{r3, r4, r5, r6, r7, pc}
 80036de:	21d5      	movs	r1, #213	; 0xd5
 80036e0:	4836      	ldr	r0, [pc, #216]	; (80037bc <HAL_DMA_Init+0x52c>)
 80036e2:	f7fd fbdd 	bl	8000ea0 <assert_failed>
 80036e6:	68eb      	ldr	r3, [r5, #12]
 80036e8:	f433 7300 	bics.w	r3, r3, #512	; 0x200
 80036ec:	f43f ae73 	beq.w	80033d6 <HAL_DMA_Init+0x146>
 80036f0:	e7c2      	b.n	8003678 <HAL_DMA_Init+0x3e8>
 80036f2:	21d8      	movs	r1, #216	; 0xd8
 80036f4:	4831      	ldr	r0, [pc, #196]	; (80037bc <HAL_DMA_Init+0x52c>)
 80036f6:	f7fd fbd3 	bl	8000ea0 <assert_failed>
 80036fa:	69ab      	ldr	r3, [r5, #24]
 80036fc:	f433 5200 	bics.w	r2, r3, #8192	; 0x2000
 8003700:	f47f ae7a 	bne.w	80033f8 <HAL_DMA_Init+0x168>
 8003704:	e67c      	b.n	8003400 <HAL_DMA_Init+0x170>
 8003706:	21d9      	movs	r1, #217	; 0xd9
 8003708:	482c      	ldr	r0, [pc, #176]	; (80037bc <HAL_DMA_Init+0x52c>)
 800370a:	f7fd fbc9 	bl	8000ea0 <assert_failed>
 800370e:	e677      	b.n	8003400 <HAL_DMA_Init+0x170>
 8003710:	21da      	movs	r1, #218	; 0xda
 8003712:	482a      	ldr	r0, [pc, #168]	; (80037bc <HAL_DMA_Init+0x52c>)
 8003714:	f7fd fbc4 	bl	8000ea0 <assert_failed>
 8003718:	e685      	b.n	8003426 <HAL_DMA_Init+0x196>
 800371a:	e9d5 610b 	ldrd	r6, r1, [r5, #44]	; 0x2c
 800371e:	6aaf      	ldr	r7, [r5, #40]	; 0x28
 8003720:	ea46 0001 	orr.w	r0, r6, r1
 8003724:	f047 0104 	orr.w	r1, r7, #4
 8003728:	4302      	orrs	r2, r0
 800372a:	601a      	str	r2, [r3, #0]
 800372c:	695a      	ldr	r2, [r3, #20]
 800372e:	f022 0207 	bic.w	r2, r2, #7
 8003732:	4311      	orrs	r1, r2
 8003734:	2e00      	cmp	r6, #0
 8003736:	f43f af18 	beq.w	800356a <HAL_DMA_Init+0x2da>
 800373a:	b32c      	cbz	r4, 8003788 <HAL_DMA_Init+0x4f8>
 800373c:	f5b4 5f00 	cmp.w	r4, #8192	; 0x2000
 8003740:	f000 80c4 	beq.w	80038cc <HAL_DMA_Init+0x63c>
 8003744:	2f02      	cmp	r7, #2
 8003746:	d905      	bls.n	8003754 <HAL_DMA_Init+0x4c4>
 8003748:	2f03      	cmp	r7, #3
 800374a:	f47f af0e 	bne.w	800356a <HAL_DMA_Init+0x2da>
 800374e:	01f2      	lsls	r2, r6, #7
 8003750:	f57f af0b 	bpl.w	800356a <HAL_DMA_Init+0x2da>
 8003754:	2301      	movs	r3, #1
 8003756:	2240      	movs	r2, #64	; 0x40
 8003758:	4618      	mov	r0, r3
 800375a:	656a      	str	r2, [r5, #84]	; 0x54
 800375c:	f885 3035 	strb.w	r3, [r5, #53]	; 0x35
 8003760:	bdf8      	pop	{r3, r4, r5, r6, r7, pc}
 8003762:	21e5      	movs	r1, #229	; 0xe5
 8003764:	4815      	ldr	r0, [pc, #84]	; (80037bc <HAL_DMA_Init+0x52c>)
 8003766:	f7fd fb9b 	bl	8000ea0 <assert_failed>
 800376a:	e76c      	b.n	8003646 <HAL_DMA_Init+0x3b6>
 800376c:	21db      	movs	r1, #219	; 0xdb
 800376e:	4813      	ldr	r0, [pc, #76]	; (80037bc <HAL_DMA_Init+0x52c>)
 8003770:	f7fd fb96 	bl	8000ea0 <assert_failed>
 8003774:	e65c      	b.n	8003430 <HAL_DMA_Init+0x1a0>
 8003776:	21e6      	movs	r1, #230	; 0xe6
 8003778:	4810      	ldr	r0, [pc, #64]	; (80037bc <HAL_DMA_Init+0x52c>)
 800377a:	f7fd fb91 	bl	8000ea0 <assert_failed>
 800377e:	e767      	b.n	8003650 <HAL_DMA_Init+0x3c0>
 8003780:	e9d5 311b 	ldrd	r3, r1, [r5, #108]	; 0x6c
 8003784:	6f6a      	ldr	r2, [r5, #116]	; 0x74
 8003786:	e751      	b.n	800362c <HAL_DMA_Init+0x39c>
 8003788:	2f01      	cmp	r7, #1
 800378a:	f000 809a 	beq.w	80038c2 <HAL_DMA_Init+0x632>
 800378e:	d3de      	bcc.n	800374e <HAL_DMA_Init+0x4be>
 8003790:	2f02      	cmp	r7, #2
 8003792:	f47f aeea 	bne.w	800356a <HAL_DMA_Init+0x2da>
 8003796:	e7da      	b.n	800374e <HAL_DMA_Init+0x4be>
 8003798:	fe10803f 	.word	0xfe10803f
 800379c:	58025408 	.word	0x58025408
 80037a0:	5802541c 	.word	0x5802541c
 80037a4:	58025430 	.word	0x58025430
 80037a8:	cccccccd 	.word	0xcccccccd
 80037ac:	16009600 	.word	0x16009600
 80037b0:	58025880 	.word	0x58025880
 80037b4:	1600963f 	.word	0x1600963f
 80037b8:	58025940 	.word	0x58025940
 80037bc:	0800d03c 	.word	0x0800d03c
 80037c0:	4b53      	ldr	r3, [pc, #332]	; (8003910 <HAL_DMA_Init+0x680>)
 80037c2:	4954      	ldr	r1, [pc, #336]	; (8003914 <HAL_DMA_Init+0x684>)
 80037c4:	4854      	ldr	r0, [pc, #336]	; (8003918 <HAL_DMA_Init+0x688>)
 80037c6:	428a      	cmp	r2, r1
 80037c8:	bf18      	it	ne
 80037ca:	429a      	cmpne	r2, r3
 80037cc:	f101 0128 	add.w	r1, r1, #40	; 0x28
 80037d0:	4c52      	ldr	r4, [pc, #328]	; (800391c <HAL_DMA_Init+0x68c>)
 80037d2:	bf0c      	ite	eq
 80037d4:	2301      	moveq	r3, #1
 80037d6:	2300      	movne	r3, #0
 80037d8:	4282      	cmp	r2, r0
 80037da:	bf08      	it	eq
 80037dc:	f043 0301 	orreq.w	r3, r3, #1
 80037e0:	303c      	adds	r0, #60	; 0x3c
 80037e2:	428a      	cmp	r2, r1
 80037e4:	bf08      	it	eq
 80037e6:	f043 0301 	orreq.w	r3, r3, #1
 80037ea:	313c      	adds	r1, #60	; 0x3c
 80037ec:	42a2      	cmp	r2, r4
 80037ee:	bf08      	it	eq
 80037f0:	f043 0301 	orreq.w	r3, r3, #1
 80037f4:	4282      	cmp	r2, r0
 80037f6:	bf08      	it	eq
 80037f8:	f043 0301 	orreq.w	r3, r3, #1
 80037fc:	428a      	cmp	r2, r1
 80037fe:	bf08      	it	eq
 8003800:	f043 0301 	orreq.w	r3, r3, #1
 8003804:	b913      	cbnz	r3, 800380c <HAL_DMA_Init+0x57c>
 8003806:	4b46      	ldr	r3, [pc, #280]	; (8003920 <HAL_DMA_Init+0x690>)
 8003808:	429a      	cmp	r2, r3
 800380a:	d174      	bne.n	80038f6 <HAL_DMA_Init+0x666>
 800380c:	686b      	ldr	r3, [r5, #4]
 800380e:	2b11      	cmp	r3, #17
 8003810:	d905      	bls.n	800381e <HAL_DMA_Init+0x58e>
 8003812:	f240 1149 	movw	r1, #329	; 0x149
 8003816:	4843      	ldr	r0, [pc, #268]	; (8003924 <HAL_DMA_Init+0x694>)
 8003818:	f7fd fb42 	bl	8000ea0 <assert_failed>
 800381c:	682a      	ldr	r2, [r5, #0]
 800381e:	2002      	movs	r0, #2
 8003820:	68ab      	ldr	r3, [r5, #8]
 8003822:	4941      	ldr	r1, [pc, #260]	; (8003928 <HAL_DMA_Init+0x698>)
 8003824:	2400      	movs	r4, #0
 8003826:	f885 0035 	strb.w	r0, [r5, #53]	; 0x35
 800382a:	2b40      	cmp	r3, #64	; 0x40
 800382c:	6810      	ldr	r0, [r2, #0]
 800382e:	f885 4034 	strb.w	r4, [r5, #52]	; 0x34
 8003832:	ea01 0100 	and.w	r1, r1, r0
 8003836:	d05c      	beq.n	80038f2 <HAL_DMA_Init+0x662>
 8003838:	2b80      	cmp	r3, #128	; 0x80
 800383a:	bf14      	ite	ne
 800383c:	4627      	movne	r7, r4
 800383e:	f44f 4780 	moveq.w	r7, #16384	; 0x4000
 8003842:	692b      	ldr	r3, [r5, #16]
 8003844:	4628      	mov	r0, r5
 8003846:	68ee      	ldr	r6, [r5, #12]
 8003848:	08db      	lsrs	r3, r3, #3
 800384a:	696c      	ldr	r4, [r5, #20]
 800384c:	f8df c0f8 	ldr.w	ip, [pc, #248]	; 8003948 <HAL_DMA_Init+0x6b8>
 8003850:	ea43 03d6 	orr.w	r3, r3, r6, lsr #3
 8003854:	69ae      	ldr	r6, [r5, #24]
 8003856:	ea43 03d4 	orr.w	r3, r3, r4, lsr #3
 800385a:	69ec      	ldr	r4, [r5, #28]
 800385c:	ea43 03d6 	orr.w	r3, r3, r6, lsr #3
 8003860:	4e32      	ldr	r6, [pc, #200]	; (800392c <HAL_DMA_Init+0x69c>)
 8003862:	ea43 03d4 	orr.w	r3, r3, r4, lsr #3
 8003866:	4416      	add	r6, r2
 8003868:	6a2c      	ldr	r4, [r5, #32]
 800386a:	ea43 1314 	orr.w	r3, r3, r4, lsr #4
 800386e:	fbac 4606 	umull	r4, r6, ip, r6
 8003872:	430b      	orrs	r3, r1
 8003874:	0931      	lsrs	r1, r6, #4
 8003876:	433b      	orrs	r3, r7
 8003878:	0089      	lsls	r1, r1, #2
 800387a:	6013      	str	r3, [r2, #0]
 800387c:	65e9      	str	r1, [r5, #92]	; 0x5c
 800387e:	f7ff fc8b 	bl	8003198 <DMA_CalcBaseAndBitshift>
 8003882:	6dea      	ldr	r2, [r5, #92]	; 0x5c
 8003884:	2301      	movs	r3, #1
 8003886:	f002 021f 	and.w	r2, r2, #31
 800388a:	4093      	lsls	r3, r2
 800388c:	6043      	str	r3, [r0, #4]
 800388e:	e676      	b.n	800357e <HAL_DMA_Init+0x2ee>
 8003890:	f1a2 0010 	sub.w	r0, r2, #16
 8003894:	4a26      	ldr	r2, [pc, #152]	; (8003930 <HAL_DMA_Init+0x6a0>)
 8003896:	4c27      	ldr	r4, [pc, #156]	; (8003934 <HAL_DMA_Init+0x6a4>)
 8003898:	440a      	add	r2, r1
 800389a:	fba4 4000 	umull	r4, r0, r4, r0
 800389e:	2aa8      	cmp	r2, #168	; 0xa8
 80038a0:	ea4f 1010 	mov.w	r0, r0, lsr #4
 80038a4:	d800      	bhi.n	80038a8 <HAL_DMA_Init+0x618>
 80038a6:	3008      	adds	r0, #8
 80038a8:	4923      	ldr	r1, [pc, #140]	; (8003938 <HAL_DMA_Init+0x6a8>)
 80038aa:	f000 041f 	and.w	r4, r0, #31
 80038ae:	2201      	movs	r2, #1
 80038b0:	4401      	add	r1, r0
 80038b2:	4822      	ldr	r0, [pc, #136]	; (800393c <HAL_DMA_Init+0x6ac>)
 80038b4:	40a2      	lsls	r2, r4
 80038b6:	0089      	lsls	r1, r1, #2
 80038b8:	4604      	mov	r4, r0
 80038ba:	66aa      	str	r2, [r5, #104]	; 0x68
 80038bc:	e9c5 1018 	strd	r1, r0, [r5, #96]	; 0x60
 80038c0:	e69a      	b.n	80035f8 <HAL_DMA_Init+0x368>
 80038c2:	f1b6 7fc0 	cmp.w	r6, #25165824	; 0x1800000
 80038c6:	f47f ae50 	bne.w	800356a <HAL_DMA_Init+0x2da>
 80038ca:	e743      	b.n	8003754 <HAL_DMA_Init+0x4c4>
 80038cc:	2f03      	cmp	r7, #3
 80038ce:	f63f ae4c 	bhi.w	800356a <HAL_DMA_Init+0x2da>
 80038d2:	a201      	add	r2, pc, #4	; (adr r2, 80038d8 <HAL_DMA_Init+0x648>)
 80038d4:	f852 f027 	ldr.w	pc, [r2, r7, lsl #2]
 80038d8:	08003755 	.word	0x08003755
 80038dc:	0800374f 	.word	0x0800374f
 80038e0:	08003755 	.word	0x08003755
 80038e4:	080038c3 	.word	0x080038c3
 80038e8:	4b15      	ldr	r3, [pc, #84]	; (8003940 <HAL_DMA_Init+0x6b0>)
 80038ea:	4916      	ldr	r1, [pc, #88]	; (8003944 <HAL_DMA_Init+0x6b4>)
 80038ec:	4433      	add	r3, r6
 80038ee:	009b      	lsls	r3, r3, #2
 80038f0:	e697      	b.n	8003622 <HAL_DMA_Init+0x392>
 80038f2:	2710      	movs	r7, #16
 80038f4:	e7a5      	b.n	8003842 <HAL_DMA_Init+0x5b2>
 80038f6:	2240      	movs	r2, #64	; 0x40
 80038f8:	2303      	movs	r3, #3
 80038fa:	2001      	movs	r0, #1
 80038fc:	656a      	str	r2, [r5, #84]	; 0x54
 80038fe:	f885 3035 	strb.w	r3, [r5, #53]	; 0x35
 8003902:	bdf8      	pop	{r3, r4, r5, r6, r7, pc}
 8003904:	21d4      	movs	r1, #212	; 0xd4
 8003906:	4807      	ldr	r0, [pc, #28]	; (8003924 <HAL_DMA_Init+0x694>)
 8003908:	f7fd faca 	bl	8000ea0 <assert_failed>
 800390c:	e557      	b.n	80033be <HAL_DMA_Init+0x12e>
 800390e:	bf00      	nop
 8003910:	58025408 	.word	0x58025408
 8003914:	5802541c 	.word	0x5802541c
 8003918:	58025430 	.word	0x58025430
 800391c:	58025458 	.word	0x58025458
 8003920:	58025494 	.word	0x58025494
 8003924:	0800d03c 	.word	0x0800d03c
 8003928:	fffe000f 	.word	0xfffe000f
 800392c:	a7fdabf8 	.word	0xa7fdabf8
 8003930:	bffdfbf0 	.word	0xbffdfbf0
 8003934:	aaaaaaab 	.word	0xaaaaaaab
 8003938:	10008200 	.word	0x10008200
 800393c:	40020880 	.word	0x40020880
 8003940:	1000823f 	.word	0x1000823f
 8003944:	40020940 	.word	0x40020940
 8003948:	cccccccd 	.word	0xcccccccd

0800394c <HAL_DMA_IRQHandler>:
 800394c:	e92d 4ff0 	stmdb	sp!, {r4, r5, r6, r7, r8, r9, sl, fp, lr}
 8003950:	49a4      	ldr	r1, [pc, #656]	; (8003be4 <HAL_DMA_IRQHandler+0x298>)
 8003952:	b085      	sub	sp, #20
 8003954:	4ea4      	ldr	r6, [pc, #656]	; (8003be8 <HAL_DMA_IRQHandler+0x29c>)
 8003956:	2400      	movs	r4, #0
 8003958:	6803      	ldr	r3, [r0, #0]
 800395a:	4aa4      	ldr	r2, [pc, #656]	; (8003bec <HAL_DMA_IRQHandler+0x2a0>)
 800395c:	f8d0 8058 	ldr.w	r8, [r0, #88]	; 0x58
 8003960:	6809      	ldr	r1, [r1, #0]
 8003962:	4293      	cmp	r3, r2
 8003964:	bf18      	it	ne
 8003966:	42b3      	cmpne	r3, r6
 8003968:	9403      	str	r4, [sp, #12]
 800396a:	9101      	str	r1, [sp, #4]
 800396c:	bf08      	it	eq
 800396e:	2601      	moveq	r6, #1
 8003970:	f8d8 5000 	ldr.w	r5, [r8]
 8003974:	bf18      	it	ne
 8003976:	2600      	movne	r6, #0
 8003978:	f8d8 1000 	ldr.w	r1, [r8]
 800397c:	d046      	beq.n	8003a0c <HAL_DMA_IRQHandler+0xc0>
 800397e:	3218      	adds	r2, #24
 8003980:	4f9b      	ldr	r7, [pc, #620]	; (8003bf0 <HAL_DMA_IRQHandler+0x2a4>)
 8003982:	4c9c      	ldr	r4, [pc, #624]	; (8003bf4 <HAL_DMA_IRQHandler+0x2a8>)
 8003984:	42bb      	cmp	r3, r7
 8003986:	bf18      	it	ne
 8003988:	4293      	cmpne	r3, r2
 800398a:	f107 0730 	add.w	r7, r7, #48	; 0x30
 800398e:	bf0c      	ite	eq
 8003990:	2201      	moveq	r2, #1
 8003992:	2200      	movne	r2, #0
 8003994:	42a3      	cmp	r3, r4
 8003996:	bf08      	it	eq
 8003998:	f042 0201 	orreq.w	r2, r2, #1
 800399c:	3430      	adds	r4, #48	; 0x30
 800399e:	42bb      	cmp	r3, r7
 80039a0:	bf08      	it	eq
 80039a2:	f042 0201 	orreq.w	r2, r2, #1
 80039a6:	3730      	adds	r7, #48	; 0x30
 80039a8:	42a3      	cmp	r3, r4
 80039aa:	bf08      	it	eq
 80039ac:	f042 0201 	orreq.w	r2, r2, #1
 80039b0:	f504 745c 	add.w	r4, r4, #880	; 0x370
 80039b4:	42bb      	cmp	r3, r7
 80039b6:	bf08      	it	eq
 80039b8:	f042 0201 	orreq.w	r2, r2, #1
 80039bc:	f507 775c 	add.w	r7, r7, #880	; 0x370
 80039c0:	42a3      	cmp	r3, r4
 80039c2:	bf08      	it	eq
 80039c4:	f042 0201 	orreq.w	r2, r2, #1
 80039c8:	3430      	adds	r4, #48	; 0x30
 80039ca:	42bb      	cmp	r3, r7
 80039cc:	bf08      	it	eq
 80039ce:	f042 0201 	orreq.w	r2, r2, #1
 80039d2:	3730      	adds	r7, #48	; 0x30
 80039d4:	42a3      	cmp	r3, r4
 80039d6:	bf08      	it	eq
 80039d8:	f042 0201 	orreq.w	r2, r2, #1
 80039dc:	3430      	adds	r4, #48	; 0x30
 80039de:	42bb      	cmp	r3, r7
 80039e0:	bf08      	it	eq
 80039e2:	f042 0201 	orreq.w	r2, r2, #1
 80039e6:	3730      	adds	r7, #48	; 0x30
 80039e8:	42a3      	cmp	r3, r4
 80039ea:	bf08      	it	eq
 80039ec:	f042 0201 	orreq.w	r2, r2, #1
 80039f0:	3430      	adds	r4, #48	; 0x30
 80039f2:	42bb      	cmp	r3, r7
 80039f4:	bf08      	it	eq
 80039f6:	f042 0201 	orreq.w	r2, r2, #1
 80039fa:	42a3      	cmp	r3, r4
 80039fc:	bf08      	it	eq
 80039fe:	f042 0201 	orreq.w	r2, r2, #1
 8003a02:	b91a      	cbnz	r2, 8003a0c <HAL_DMA_IRQHandler+0xc0>
 8003a04:	4a7c      	ldr	r2, [pc, #496]	; (8003bf8 <HAL_DMA_IRQHandler+0x2ac>)
 8003a06:	4293      	cmp	r3, r2
 8003a08:	f040 81ef 	bne.w	8003dea <HAL_DMA_IRQHandler+0x49e>
 8003a0c:	6dc1      	ldr	r1, [r0, #92]	; 0x5c
 8003a0e:	2208      	movs	r2, #8
 8003a10:	f001 071f 	and.w	r7, r1, #31
 8003a14:	40ba      	lsls	r2, r7
 8003a16:	422a      	tst	r2, r5
 8003a18:	f040 81d8 	bne.w	8003dcc <HAL_DMA_IRQHandler+0x480>
 8003a1c:	4604      	mov	r4, r0
 8003a1e:	f04f 0c04 	mov.w	ip, #4
 8003a22:	2010      	movs	r0, #16
 8003a24:	fa25 f207 	lsr.w	r2, r5, r7
 8003a28:	fa0c fc07 	lsl.w	ip, ip, r7
 8003a2c:	40b8      	lsls	r0, r7
 8003a2e:	07d2      	lsls	r2, r2, #31
 8003a30:	ea05 090c 	and.w	r9, r5, ip
 8003a34:	ea05 0e00 	and.w	lr, r5, r0
 8003a38:	d560      	bpl.n	8003afc <HAL_DMA_IRQHandler+0x1b0>
 8003a3a:	4a70      	ldr	r2, [pc, #448]	; (8003bfc <HAL_DMA_IRQHandler+0x2b0>)
 8003a3c:	f8df b1b0 	ldr.w	fp, [pc, #432]	; 8003bf0 <HAL_DMA_IRQHandler+0x2a4>
 8003a40:	f8df a1b0 	ldr.w	sl, [pc, #432]	; 8003bf4 <HAL_DMA_IRQHandler+0x2a8>
 8003a44:	4293      	cmp	r3, r2
 8003a46:	bf18      	it	ne
 8003a48:	455b      	cmpne	r3, fp
 8003a4a:	f10b 0b30 	add.w	fp, fp, #48	; 0x30
 8003a4e:	bf0c      	ite	eq
 8003a50:	2201      	moveq	r2, #1
 8003a52:	2200      	movne	r2, #0
 8003a54:	4553      	cmp	r3, sl
 8003a56:	bf08      	it	eq
 8003a58:	f042 0201 	orreq.w	r2, r2, #1
 8003a5c:	f10a 0a30 	add.w	sl, sl, #48	; 0x30
 8003a60:	455b      	cmp	r3, fp
 8003a62:	bf08      	it	eq
 8003a64:	f042 0201 	orreq.w	r2, r2, #1
 8003a68:	f10b 0b30 	add.w	fp, fp, #48	; 0x30
 8003a6c:	4553      	cmp	r3, sl
 8003a6e:	bf08      	it	eq
 8003a70:	f042 0201 	orreq.w	r2, r2, #1
 8003a74:	f50a 7a5c 	add.w	sl, sl, #880	; 0x370
 8003a78:	455b      	cmp	r3, fp
 8003a7a:	bf08      	it	eq
 8003a7c:	f042 0201 	orreq.w	r2, r2, #1
 8003a80:	f50b 7b5c 	add.w	fp, fp, #880	; 0x370
 8003a84:	4553      	cmp	r3, sl
 8003a86:	bf08      	it	eq
 8003a88:	f042 0201 	orreq.w	r2, r2, #1
 8003a8c:	f10a 0a30 	add.w	sl, sl, #48	; 0x30
 8003a90:	455b      	cmp	r3, fp
 8003a92:	bf08      	it	eq
 8003a94:	f042 0201 	orreq.w	r2, r2, #1
 8003a98:	f10b 0b30 	add.w	fp, fp, #48	; 0x30
 8003a9c:	4553      	cmp	r3, sl
 8003a9e:	bf08      	it	eq
 8003aa0:	f042 0201 	orreq.w	r2, r2, #1
 8003aa4:	f10a 0a30 	add.w	sl, sl, #48	; 0x30
 8003aa8:	455b      	cmp	r3, fp
 8003aaa:	bf08      	it	eq
 8003aac:	f042 0201 	orreq.w	r2, r2, #1
 8003ab0:	f10b 0b30 	add.w	fp, fp, #48	; 0x30
 8003ab4:	4553      	cmp	r3, sl
 8003ab6:	bf08      	it	eq
 8003ab8:	f042 0201 	orreq.w	r2, r2, #1
 8003abc:	f10a 0a30 	add.w	sl, sl, #48	; 0x30
 8003ac0:	455b      	cmp	r3, fp
 8003ac2:	bf08      	it	eq
 8003ac4:	f042 0201 	orreq.w	r2, r2, #1
 8003ac8:	f10b 0b30 	add.w	fp, fp, #48	; 0x30
 8003acc:	4553      	cmp	r3, sl
 8003ace:	bf08      	it	eq
 8003ad0:	f042 0201 	orreq.w	r2, r2, #1
 8003ad4:	455b      	cmp	r3, fp
 8003ad6:	bf08      	it	eq
 8003ad8:	f042 0201 	orreq.w	r2, r2, #1
 8003adc:	b912      	cbnz	r2, 8003ae4 <HAL_DMA_IRQHandler+0x198>
 8003ade:	2e00      	cmp	r6, #0
 8003ae0:	f000 8245 	beq.w	8003f6e <HAL_DMA_IRQHandler+0x622>
 8003ae4:	695a      	ldr	r2, [r3, #20]
 8003ae6:	0612      	lsls	r2, r2, #24
 8003ae8:	d508      	bpl.n	8003afc <HAL_DMA_IRQHandler+0x1b0>
 8003aea:	2201      	movs	r2, #1
 8003aec:	fa02 f707 	lsl.w	r7, r2, r7
 8003af0:	f8c8 7008 	str.w	r7, [r8, #8]
 8003af4:	6d62      	ldr	r2, [r4, #84]	; 0x54
 8003af6:	f042 0202 	orr.w	r2, r2, #2
 8003afa:	6562      	str	r2, [r4, #84]	; 0x54
 8003afc:	f1b9 0f00 	cmp.w	r9, #0
 8003b00:	d055      	beq.n	8003bae <HAL_DMA_IRQHandler+0x262>
 8003b02:	2e00      	cmp	r6, #0
 8003b04:	d14a      	bne.n	8003b9c <HAL_DMA_IRQHandler+0x250>
 8003b06:	4a3d      	ldr	r2, [pc, #244]	; (8003bfc <HAL_DMA_IRQHandler+0x2b0>)
 8003b08:	f8df 90e4 	ldr.w	r9, [pc, #228]	; 8003bf0 <HAL_DMA_IRQHandler+0x2a4>
 8003b0c:	4f39      	ldr	r7, [pc, #228]	; (8003bf4 <HAL_DMA_IRQHandler+0x2a8>)
 8003b0e:	454b      	cmp	r3, r9
 8003b10:	bf18      	it	ne
 8003b12:	4293      	cmpne	r3, r2
 8003b14:	f109 0930 	add.w	r9, r9, #48	; 0x30
 8003b18:	bf0c      	ite	eq
 8003b1a:	2201      	moveq	r2, #1
 8003b1c:	2200      	movne	r2, #0
 8003b1e:	42bb      	cmp	r3, r7
 8003b20:	bf08      	it	eq
 8003b22:	f042 0201 	orreq.w	r2, r2, #1
 8003b26:	3730      	adds	r7, #48	; 0x30
 8003b28:	454b      	cmp	r3, r9
 8003b2a:	bf08      	it	eq
 8003b2c:	f042 0201 	orreq.w	r2, r2, #1
 8003b30:	f109 0930 	add.w	r9, r9, #48	; 0x30
 8003b34:	42bb      	cmp	r3, r7
 8003b36:	bf08      	it	eq
 8003b38:	f042 0201 	orreq.w	r2, r2, #1
 8003b3c:	f507 775c 	add.w	r7, r7, #880	; 0x370
 8003b40:	454b      	cmp	r3, r9
 8003b42:	bf08      	it	eq
 8003b44:	f042 0201 	orreq.w	r2, r2, #1
 8003b48:	f509 795c 	add.w	r9, r9, #880	; 0x370
 8003b4c:	42bb      	cmp	r3, r7
 8003b4e:	bf08      	it	eq
 8003b50:	f042 0201 	orreq.w	r2, r2, #1
 8003b54:	3730      	adds	r7, #48	; 0x30
 8003b56:	454b      	cmp	r3, r9
 8003b58:	bf08      	it	eq
 8003b5a:	f042 0201 	orreq.w	r2, r2, #1
 8003b5e:	f109 0930 	add.w	r9, r9, #48	; 0x30
 8003b62:	42bb      	cmp	r3, r7
 8003b64:	bf08      	it	eq
 8003b66:	f042 0201 	orreq.w	r2, r2, #1
 8003b6a:	3730      	adds	r7, #48	; 0x30
 8003b6c:	454b      	cmp	r3, r9
 8003b6e:	bf08      	it	eq
 8003b70:	f042 0201 	orreq.w	r2, r2, #1
 8003b74:	f109 0930 	add.w	r9, r9, #48	; 0x30
 8003b78:	42bb      	cmp	r3, r7
 8003b7a:	bf08      	it	eq
 8003b7c:	f042 0201 	orreq.w	r2, r2, #1
 8003b80:	3730      	adds	r7, #48	; 0x30
 8003b82:	454b      	cmp	r3, r9
 8003b84:	bf08      	it	eq
 8003b86:	f042 0201 	orreq.w	r2, r2, #1
 8003b8a:	42bb      	cmp	r3, r7
 8003b8c:	bf08      	it	eq
 8003b8e:	f042 0201 	orreq.w	r2, r2, #1
 8003b92:	b91a      	cbnz	r2, 8003b9c <HAL_DMA_IRQHandler+0x250>
 8003b94:	4a18      	ldr	r2, [pc, #96]	; (8003bf8 <HAL_DMA_IRQHandler+0x2ac>)
 8003b96:	4293      	cmp	r3, r2
 8003b98:	f040 81b4 	bne.w	8003f04 <HAL_DMA_IRQHandler+0x5b8>
 8003b9c:	681a      	ldr	r2, [r3, #0]
 8003b9e:	0792      	lsls	r2, r2, #30
 8003ba0:	d505      	bpl.n	8003bae <HAL_DMA_IRQHandler+0x262>
 8003ba2:	f8c8 c008 	str.w	ip, [r8, #8]
 8003ba6:	6d62      	ldr	r2, [r4, #84]	; 0x54
 8003ba8:	f042 0204 	orr.w	r2, r2, #4
 8003bac:	6562      	str	r2, [r4, #84]	; 0x54
 8003bae:	f1be 0f00 	cmp.w	lr, #0
 8003bb2:	d06d      	beq.n	8003c90 <HAL_DMA_IRQHandler+0x344>
 8003bb4:	2e00      	cmp	r6, #0
 8003bb6:	d155      	bne.n	8003c64 <HAL_DMA_IRQHandler+0x318>
 8003bb8:	4a10      	ldr	r2, [pc, #64]	; (8003bfc <HAL_DMA_IRQHandler+0x2b0>)
 8003bba:	4f0d      	ldr	r7, [pc, #52]	; (8003bf0 <HAL_DMA_IRQHandler+0x2a4>)
 8003bbc:	4e0d      	ldr	r6, [pc, #52]	; (8003bf4 <HAL_DMA_IRQHandler+0x2a8>)
 8003bbe:	42bb      	cmp	r3, r7
 8003bc0:	bf18      	it	ne
 8003bc2:	4293      	cmpne	r3, r2
 8003bc4:	f107 0730 	add.w	r7, r7, #48	; 0x30
 8003bc8:	bf0c      	ite	eq
 8003bca:	2201      	moveq	r2, #1
 8003bcc:	2200      	movne	r2, #0
 8003bce:	42b3      	cmp	r3, r6
 8003bd0:	bf08      	it	eq
 8003bd2:	f042 0201 	orreq.w	r2, r2, #1
 8003bd6:	3630      	adds	r6, #48	; 0x30
 8003bd8:	42bb      	cmp	r3, r7
 8003bda:	bf08      	it	eq
 8003bdc:	f042 0201 	orreq.w	r2, r2, #1
 8003be0:	3730      	adds	r7, #48	; 0x30
 8003be2:	e00d      	b.n	8003c00 <HAL_DMA_IRQHandler+0x2b4>
 8003be4:	24000000 	.word	0x24000000
 8003be8:	40020010 	.word	0x40020010
 8003bec:	40020028 	.word	0x40020028
 8003bf0:	40020058 	.word	0x40020058
 8003bf4:	40020070 	.word	0x40020070
 8003bf8:	400204b8 	.word	0x400204b8
 8003bfc:	40020040 	.word	0x40020040
 8003c00:	42b3      	cmp	r3, r6
 8003c02:	bf08      	it	eq
 8003c04:	f042 0201 	orreq.w	r2, r2, #1
 8003c08:	f506 765c 	add.w	r6, r6, #880	; 0x370
 8003c0c:	42bb      	cmp	r3, r7
 8003c0e:	bf08      	it	eq
 8003c10:	f042 0201 	orreq.w	r2, r2, #1
 8003c14:	f507 775c 	add.w	r7, r7, #880	; 0x370
 8003c18:	42b3      	cmp	r3, r6
 8003c1a:	bf08      	it	eq
 8003c1c:	f042 0201 	orreq.w	r2, r2, #1
 8003c20:	3630      	adds	r6, #48	; 0x30
 8003c22:	42bb      	cmp	r3, r7
 8003c24:	bf08      	it	eq
 8003c26:	f042 0201 	orreq.w	r2, r2, #1
 8003c2a:	3730      	adds	r7, #48	; 0x30
 8003c2c:	42b3      	cmp	r3, r6
 8003c2e:	bf08      	it	eq
 8003c30:	f042 0201 	orreq.w	r2, r2, #1
 8003c34:	3630      	adds	r6, #48	; 0x30
 8003c36:	42bb      	cmp	r3, r7
 8003c38:	bf08      	it	eq
 8003c3a:	f042 0201 	orreq.w	r2, r2, #1
 8003c3e:	3730      	adds	r7, #48	; 0x30
 8003c40:	42b3      	cmp	r3, r6
 8003c42:	bf08      	it	eq
 8003c44:	f042 0201 	orreq.w	r2, r2, #1
 8003c48:	3630      	adds	r6, #48	; 0x30
 8003c4a:	42bb      	cmp	r3, r7
 8003c4c:	bf08      	it	eq
 8003c4e:	f042 0201 	orreq.w	r2, r2, #1
 8003c52:	42b3      	cmp	r3, r6
 8003c54:	bf08      	it	eq
 8003c56:	f042 0201 	orreq.w	r2, r2, #1
 8003c5a:	b91a      	cbnz	r2, 8003c64 <HAL_DMA_IRQHandler+0x318>
 8003c5c:	4aa0      	ldr	r2, [pc, #640]	; (8003ee0 <HAL_DMA_IRQHandler+0x594>)
 8003c5e:	4293      	cmp	r3, r2
 8003c60:	f040 813a 	bne.w	8003ed8 <HAL_DMA_IRQHandler+0x58c>
 8003c64:	681a      	ldr	r2, [r3, #0]
 8003c66:	f3c2 02c0 	ubfx	r2, r2, #3, #1
 8003c6a:	b18a      	cbz	r2, 8003c90 <HAL_DMA_IRQHandler+0x344>
 8003c6c:	f8c8 0008 	str.w	r0, [r8, #8]
 8003c70:	681a      	ldr	r2, [r3, #0]
 8003c72:	0357      	lsls	r7, r2, #13
 8003c74:	f100 80f7 	bmi.w	8003e66 <HAL_DMA_IRQHandler+0x51a>
 8003c78:	681a      	ldr	r2, [r3, #0]
 8003c7a:	05d0      	lsls	r0, r2, #23
 8003c7c:	d403      	bmi.n	8003c86 <HAL_DMA_IRQHandler+0x33a>
 8003c7e:	681a      	ldr	r2, [r3, #0]
 8003c80:	f022 0208 	bic.w	r2, r2, #8
 8003c84:	601a      	str	r2, [r3, #0]
 8003c86:	6c23      	ldr	r3, [r4, #64]	; 0x40
 8003c88:	b113      	cbz	r3, 8003c90 <HAL_DMA_IRQHandler+0x344>
 8003c8a:	4620      	mov	r0, r4
 8003c8c:	4798      	blx	r3
 8003c8e:	6de1      	ldr	r1, [r4, #92]	; 0x5c
 8003c90:	f001 011f 	and.w	r1, r1, #31
 8003c94:	2220      	movs	r2, #32
 8003c96:	408a      	lsls	r2, r1
 8003c98:	422a      	tst	r2, r5
 8003c9a:	d069      	beq.n	8003d70 <HAL_DMA_IRQHandler+0x424>
 8003c9c:	6820      	ldr	r0, [r4, #0]
 8003c9e:	4b91      	ldr	r3, [pc, #580]	; (8003ee4 <HAL_DMA_IRQHandler+0x598>)
 8003ca0:	4e91      	ldr	r6, [pc, #580]	; (8003ee8 <HAL_DMA_IRQHandler+0x59c>)
 8003ca2:	4d92      	ldr	r5, [pc, #584]	; (8003eec <HAL_DMA_IRQHandler+0x5a0>)
 8003ca4:	42b0      	cmp	r0, r6
 8003ca6:	bf18      	it	ne
 8003ca8:	4298      	cmpne	r0, r3
 8003caa:	f106 0630 	add.w	r6, r6, #48	; 0x30
 8003cae:	bf0c      	ite	eq
 8003cb0:	2301      	moveq	r3, #1
 8003cb2:	2300      	movne	r3, #0
 8003cb4:	42a8      	cmp	r0, r5
 8003cb6:	bf08      	it	eq
 8003cb8:	f043 0301 	orreq.w	r3, r3, #1
 8003cbc:	3530      	adds	r5, #48	; 0x30
 8003cbe:	42b0      	cmp	r0, r6
 8003cc0:	bf08      	it	eq
 8003cc2:	f043 0301 	orreq.w	r3, r3, #1
 8003cc6:	3630      	adds	r6, #48	; 0x30
 8003cc8:	42a8      	cmp	r0, r5
 8003cca:	bf08      	it	eq
 8003ccc:	f043 0301 	orreq.w	r3, r3, #1
 8003cd0:	3530      	adds	r5, #48	; 0x30
 8003cd2:	42b0      	cmp	r0, r6
 8003cd4:	bf08      	it	eq
 8003cd6:	f043 0301 	orreq.w	r3, r3, #1
 8003cda:	3630      	adds	r6, #48	; 0x30
 8003cdc:	42a8      	cmp	r0, r5
 8003cde:	bf08      	it	eq
 8003ce0:	f043 0301 	orreq.w	r3, r3, #1
 8003ce4:	f505 755c 	add.w	r5, r5, #880	; 0x370
 8003ce8:	42b0      	cmp	r0, r6
 8003cea:	bf08      	it	eq
 8003cec:	f043 0301 	orreq.w	r3, r3, #1
 8003cf0:	f506 765c 	add.w	r6, r6, #880	; 0x370
 8003cf4:	42a8      	cmp	r0, r5
 8003cf6:	bf08      	it	eq
 8003cf8:	f043 0301 	orreq.w	r3, r3, #1
 8003cfc:	3530      	adds	r5, #48	; 0x30
 8003cfe:	42b0      	cmp	r0, r6
 8003d00:	bf08      	it	eq
 8003d02:	f043 0301 	orreq.w	r3, r3, #1
 8003d06:	3630      	adds	r6, #48	; 0x30
 8003d08:	42a8      	cmp	r0, r5
 8003d0a:	bf08      	it	eq
 8003d0c:	f043 0301 	orreq.w	r3, r3, #1
 8003d10:	3530      	adds	r5, #48	; 0x30
 8003d12:	42b0      	cmp	r0, r6
 8003d14:	bf08      	it	eq
 8003d16:	f043 0301 	orreq.w	r3, r3, #1
 8003d1a:	3630      	adds	r6, #48	; 0x30
 8003d1c:	42a8      	cmp	r0, r5
 8003d1e:	bf08      	it	eq
 8003d20:	f043 0301 	orreq.w	r3, r3, #1
 8003d24:	3530      	adds	r5, #48	; 0x30
 8003d26:	42b0      	cmp	r0, r6
 8003d28:	bf08      	it	eq
 8003d2a:	f043 0301 	orreq.w	r3, r3, #1
 8003d2e:	42a8      	cmp	r0, r5
 8003d30:	bf08      	it	eq
 8003d32:	f043 0301 	orreq.w	r3, r3, #1
 8003d36:	b91b      	cbnz	r3, 8003d40 <HAL_DMA_IRQHandler+0x3f4>
 8003d38:	4b69      	ldr	r3, [pc, #420]	; (8003ee0 <HAL_DMA_IRQHandler+0x594>)
 8003d3a:	4298      	cmp	r0, r3
 8003d3c:	f040 8121 	bne.w	8003f82 <HAL_DMA_IRQHandler+0x636>
 8003d40:	6803      	ldr	r3, [r0, #0]
 8003d42:	f3c3 1300 	ubfx	r3, r3, #4, #1
 8003d46:	b19b      	cbz	r3, 8003d70 <HAL_DMA_IRQHandler+0x424>
 8003d48:	f8c8 2008 	str.w	r2, [r8, #8]
 8003d4c:	f894 3035 	ldrb.w	r3, [r4, #53]	; 0x35
 8003d50:	2b04      	cmp	r3, #4
 8003d52:	6803      	ldr	r3, [r0, #0]
 8003d54:	f000 8090 	beq.w	8003e78 <HAL_DMA_IRQHandler+0x52c>
 8003d58:	f413 2f80 	tst.w	r3, #262144	; 0x40000
 8003d5c:	6803      	ldr	r3, [r0, #0]
 8003d5e:	f000 80a8 	beq.w	8003eb2 <HAL_DMA_IRQHandler+0x566>
 8003d62:	0319      	lsls	r1, r3, #12
 8003d64:	f140 80b3 	bpl.w	8003ece <HAL_DMA_IRQHandler+0x582>
 8003d68:	6be3      	ldr	r3, [r4, #60]	; 0x3c
 8003d6a:	b10b      	cbz	r3, 8003d70 <HAL_DMA_IRQHandler+0x424>
 8003d6c:	4620      	mov	r0, r4
 8003d6e:	4798      	blx	r3
 8003d70:	6d63      	ldr	r3, [r4, #84]	; 0x54
 8003d72:	2b00      	cmp	r3, #0
 8003d74:	d074      	beq.n	8003e60 <HAL_DMA_IRQHandler+0x514>
 8003d76:	6d63      	ldr	r3, [r4, #84]	; 0x54
 8003d78:	07da      	lsls	r2, r3, #31
 8003d7a:	d51f      	bpl.n	8003dbc <HAL_DMA_IRQHandler+0x470>
 8003d7c:	6822      	ldr	r2, [r4, #0]
 8003d7e:	2004      	movs	r0, #4
 8003d80:	495b      	ldr	r1, [pc, #364]	; (8003ef0 <HAL_DMA_IRQHandler+0x5a4>)
 8003d82:	f884 0035 	strb.w	r0, [r4, #53]	; 0x35
 8003d86:	6813      	ldr	r3, [r2, #0]
 8003d88:	f023 0301 	bic.w	r3, r3, #1
 8003d8c:	6013      	str	r3, [r2, #0]
 8003d8e:	9b01      	ldr	r3, [sp, #4]
 8003d90:	fba1 3103 	umull	r3, r1, r1, r3
 8003d94:	0a89      	lsrs	r1, r1, #10
 8003d96:	e002      	b.n	8003d9e <HAL_DMA_IRQHandler+0x452>
 8003d98:	6813      	ldr	r3, [r2, #0]
 8003d9a:	07db      	lsls	r3, r3, #31
 8003d9c:	d504      	bpl.n	8003da8 <HAL_DMA_IRQHandler+0x45c>
 8003d9e:	9b03      	ldr	r3, [sp, #12]
 8003da0:	3301      	adds	r3, #1
 8003da2:	428b      	cmp	r3, r1
 8003da4:	9303      	str	r3, [sp, #12]
 8003da6:	d9f7      	bls.n	8003d98 <HAL_DMA_IRQHandler+0x44c>
 8003da8:	6813      	ldr	r3, [r2, #0]
 8003daa:	2200      	movs	r2, #0
 8003dac:	07df      	lsls	r7, r3, #31
 8003dae:	f884 2034 	strb.w	r2, [r4, #52]	; 0x34
 8003db2:	bf4c      	ite	mi
 8003db4:	2303      	movmi	r3, #3
 8003db6:	2301      	movpl	r3, #1
 8003db8:	f884 3035 	strb.w	r3, [r4, #53]	; 0x35
 8003dbc:	6ce3      	ldr	r3, [r4, #76]	; 0x4c
 8003dbe:	2b00      	cmp	r3, #0
 8003dc0:	d04e      	beq.n	8003e60 <HAL_DMA_IRQHandler+0x514>
 8003dc2:	4620      	mov	r0, r4
 8003dc4:	b005      	add	sp, #20
 8003dc6:	e8bd 4ff0 	ldmia.w	sp!, {r4, r5, r6, r7, r8, r9, sl, fp, lr}
 8003dca:	4718      	bx	r3
 8003dcc:	681c      	ldr	r4, [r3, #0]
 8003dce:	0764      	lsls	r4, r4, #29
 8003dd0:	f57f ae24 	bpl.w	8003a1c <HAL_DMA_IRQHandler+0xd0>
 8003dd4:	681c      	ldr	r4, [r3, #0]
 8003dd6:	f024 0404 	bic.w	r4, r4, #4
 8003dda:	601c      	str	r4, [r3, #0]
 8003ddc:	f8c8 2008 	str.w	r2, [r8, #8]
 8003de0:	6d42      	ldr	r2, [r0, #84]	; 0x54
 8003de2:	f042 0201 	orr.w	r2, r2, #1
 8003de6:	6542      	str	r2, [r0, #84]	; 0x54
 8003de8:	e618      	b.n	8003a1c <HAL_DMA_IRQHandler+0xd0>
 8003dea:	4a42      	ldr	r2, [pc, #264]	; (8003ef4 <HAL_DMA_IRQHandler+0x5a8>)
 8003dec:	4d42      	ldr	r5, [pc, #264]	; (8003ef8 <HAL_DMA_IRQHandler+0x5ac>)
 8003dee:	4c43      	ldr	r4, [pc, #268]	; (8003efc <HAL_DMA_IRQHandler+0x5b0>)
 8003df0:	42ab      	cmp	r3, r5
 8003df2:	bf18      	it	ne
 8003df4:	4293      	cmpne	r3, r2
 8003df6:	f105 0528 	add.w	r5, r5, #40	; 0x28
 8003dfa:	bf0c      	ite	eq
 8003dfc:	2201      	moveq	r2, #1
 8003dfe:	2200      	movne	r2, #0
 8003e00:	42a3      	cmp	r3, r4
 8003e02:	bf08      	it	eq
 8003e04:	f042 0201 	orreq.w	r2, r2, #1
 8003e08:	3428      	adds	r4, #40	; 0x28
 8003e0a:	42ab      	cmp	r3, r5
 8003e0c:	bf08      	it	eq
 8003e0e:	f042 0201 	orreq.w	r2, r2, #1
 8003e12:	3528      	adds	r5, #40	; 0x28
 8003e14:	42a3      	cmp	r3, r4
 8003e16:	bf08      	it	eq
 8003e18:	f042 0201 	orreq.w	r2, r2, #1
 8003e1c:	3428      	adds	r4, #40	; 0x28
 8003e1e:	42ab      	cmp	r3, r5
 8003e20:	bf08      	it	eq
 8003e22:	f042 0201 	orreq.w	r2, r2, #1
 8003e26:	42a3      	cmp	r3, r4
 8003e28:	bf08      	it	eq
 8003e2a:	f042 0201 	orreq.w	r2, r2, #1
 8003e2e:	b912      	cbnz	r2, 8003e36 <HAL_DMA_IRQHandler+0x4ea>
 8003e30:	4a33      	ldr	r2, [pc, #204]	; (8003f00 <HAL_DMA_IRQHandler+0x5b4>)
 8003e32:	4293      	cmp	r3, r2
 8003e34:	d114      	bne.n	8003e60 <HAL_DMA_IRQHandler+0x514>
 8003e36:	6dc4      	ldr	r4, [r0, #92]	; 0x5c
 8003e38:	2504      	movs	r5, #4
 8003e3a:	681a      	ldr	r2, [r3, #0]
 8003e3c:	f004 041f 	and.w	r4, r4, #31
 8003e40:	40a5      	lsls	r5, r4
 8003e42:	420d      	tst	r5, r1
 8003e44:	d068      	beq.n	8003f18 <HAL_DMA_IRQHandler+0x5cc>
 8003e46:	0756      	lsls	r6, r2, #29
 8003e48:	d566      	bpl.n	8003f18 <HAL_DMA_IRQHandler+0x5cc>
 8003e4a:	0411      	lsls	r1, r2, #16
 8003e4c:	f8c8 5004 	str.w	r5, [r8, #4]
 8003e50:	f140 80ac 	bpl.w	8003fac <HAL_DMA_IRQHandler+0x660>
 8003e54:	03d3      	lsls	r3, r2, #15
 8003e56:	f100 80af 	bmi.w	8003fb8 <HAL_DMA_IRQHandler+0x66c>
 8003e5a:	6c83      	ldr	r3, [r0, #72]	; 0x48
 8003e5c:	2b00      	cmp	r3, #0
 8003e5e:	d1b1      	bne.n	8003dc4 <HAL_DMA_IRQHandler+0x478>
 8003e60:	b005      	add	sp, #20
 8003e62:	e8bd 8ff0 	ldmia.w	sp!, {r4, r5, r6, r7, r8, r9, sl, fp, pc}
 8003e66:	681b      	ldr	r3, [r3, #0]
 8003e68:	031e      	lsls	r6, r3, #12
 8003e6a:	f57f af0c 	bpl.w	8003c86 <HAL_DMA_IRQHandler+0x33a>
 8003e6e:	6ca3      	ldr	r3, [r4, #72]	; 0x48
 8003e70:	2b00      	cmp	r3, #0
 8003e72:	f47f af0a 	bne.w	8003c8a <HAL_DMA_IRQHandler+0x33e>
 8003e76:	e70b      	b.n	8003c90 <HAL_DMA_IRQHandler+0x344>
 8003e78:	f023 0316 	bic.w	r3, r3, #22
 8003e7c:	6c22      	ldr	r2, [r4, #64]	; 0x40
 8003e7e:	6003      	str	r3, [r0, #0]
 8003e80:	6943      	ldr	r3, [r0, #20]
 8003e82:	f023 0380 	bic.w	r3, r3, #128	; 0x80
 8003e86:	6143      	str	r3, [r0, #20]
 8003e88:	2a00      	cmp	r2, #0
 8003e8a:	d041      	beq.n	8003f10 <HAL_DMA_IRQHandler+0x5c4>
 8003e8c:	6803      	ldr	r3, [r0, #0]
 8003e8e:	f023 0308 	bic.w	r3, r3, #8
 8003e92:	6003      	str	r3, [r0, #0]
 8003e94:	233f      	movs	r3, #63	; 0x3f
 8003e96:	2000      	movs	r0, #0
 8003e98:	2201      	movs	r2, #1
 8003e9a:	fa03 f101 	lsl.w	r1, r3, r1
 8003e9e:	6d23      	ldr	r3, [r4, #80]	; 0x50
 8003ea0:	f8c8 1008 	str.w	r1, [r8, #8]
 8003ea4:	f884 0034 	strb.w	r0, [r4, #52]	; 0x34
 8003ea8:	f884 2035 	strb.w	r2, [r4, #53]	; 0x35
 8003eac:	2b00      	cmp	r3, #0
 8003eae:	d188      	bne.n	8003dc2 <HAL_DMA_IRQHandler+0x476>
 8003eb0:	e7d6      	b.n	8003e60 <HAL_DMA_IRQHandler+0x514>
 8003eb2:	f413 7380 	ands.w	r3, r3, #256	; 0x100
 8003eb6:	f47f af57 	bne.w	8003d68 <HAL_DMA_IRQHandler+0x41c>
 8003eba:	6802      	ldr	r2, [r0, #0]
 8003ebc:	2101      	movs	r1, #1
 8003ebe:	f022 0210 	bic.w	r2, r2, #16
 8003ec2:	6002      	str	r2, [r0, #0]
 8003ec4:	f884 3034 	strb.w	r3, [r4, #52]	; 0x34
 8003ec8:	f884 1035 	strb.w	r1, [r4, #53]	; 0x35
 8003ecc:	e74c      	b.n	8003d68 <HAL_DMA_IRQHandler+0x41c>
 8003ece:	6c63      	ldr	r3, [r4, #68]	; 0x44
 8003ed0:	2b00      	cmp	r3, #0
 8003ed2:	f47f af4b 	bne.w	8003d6c <HAL_DMA_IRQHandler+0x420>
 8003ed6:	e74b      	b.n	8003d70 <HAL_DMA_IRQHandler+0x424>
 8003ed8:	681a      	ldr	r2, [r3, #0]
 8003eda:	f3c2 0280 	ubfx	r2, r2, #2, #1
 8003ede:	e6c4      	b.n	8003c6a <HAL_DMA_IRQHandler+0x31e>
 8003ee0:	400204b8 	.word	0x400204b8
 8003ee4:	40020010 	.word	0x40020010
 8003ee8:	40020028 	.word	0x40020028
 8003eec:	40020040 	.word	0x40020040
 8003ef0:	1b4e81b5 	.word	0x1b4e81b5
 8003ef4:	58025408 	.word	0x58025408
 8003ef8:	5802541c 	.word	0x5802541c
 8003efc:	58025430 	.word	0x58025430
 8003f00:	58025494 	.word	0x58025494
 8003f04:	681a      	ldr	r2, [r3, #0]
 8003f06:	f1be 0f00 	cmp.w	lr, #0
 8003f0a:	f43f aec1 	beq.w	8003c90 <HAL_DMA_IRQHandler+0x344>
 8003f0e:	e653      	b.n	8003bb8 <HAL_DMA_IRQHandler+0x26c>
 8003f10:	6ca3      	ldr	r3, [r4, #72]	; 0x48
 8003f12:	2b00      	cmp	r3, #0
 8003f14:	d1ba      	bne.n	8003e8c <HAL_DMA_IRQHandler+0x540>
 8003f16:	e7bd      	b.n	8003e94 <HAL_DMA_IRQHandler+0x548>
 8003f18:	2502      	movs	r5, #2
 8003f1a:	40a5      	lsls	r5, r4
 8003f1c:	420d      	tst	r5, r1
 8003f1e:	d00c      	beq.n	8003f3a <HAL_DMA_IRQHandler+0x5ee>
 8003f20:	0796      	lsls	r6, r2, #30
 8003f22:	d50a      	bpl.n	8003f3a <HAL_DMA_IRQHandler+0x5ee>
 8003f24:	0414      	lsls	r4, r2, #16
 8003f26:	f8c8 5004 	str.w	r5, [r8, #4]
 8003f2a:	d52e      	bpl.n	8003f8a <HAL_DMA_IRQHandler+0x63e>
 8003f2c:	03d1      	lsls	r1, r2, #15
 8003f2e:	d438      	bmi.n	8003fa2 <HAL_DMA_IRQHandler+0x656>
 8003f30:	6c43      	ldr	r3, [r0, #68]	; 0x44
 8003f32:	2b00      	cmp	r3, #0
 8003f34:	f47f af46 	bne.w	8003dc4 <HAL_DMA_IRQHandler+0x478>
 8003f38:	e792      	b.n	8003e60 <HAL_DMA_IRQHandler+0x514>
 8003f3a:	2508      	movs	r5, #8
 8003f3c:	40a5      	lsls	r5, r4
 8003f3e:	420d      	tst	r5, r1
 8003f40:	d08e      	beq.n	8003e60 <HAL_DMA_IRQHandler+0x514>
 8003f42:	0712      	lsls	r2, r2, #28
 8003f44:	d58c      	bpl.n	8003e60 <HAL_DMA_IRQHandler+0x514>
 8003f46:	6819      	ldr	r1, [r3, #0]
 8003f48:	2201      	movs	r2, #1
 8003f4a:	2500      	movs	r5, #0
 8003f4c:	f021 010e 	bic.w	r1, r1, #14
 8003f50:	fa02 f404 	lsl.w	r4, r2, r4
 8003f54:	6019      	str	r1, [r3, #0]
 8003f56:	6cc3      	ldr	r3, [r0, #76]	; 0x4c
 8003f58:	f8c8 4004 	str.w	r4, [r8, #4]
 8003f5c:	6542      	str	r2, [r0, #84]	; 0x54
 8003f5e:	f880 5034 	strb.w	r5, [r0, #52]	; 0x34
 8003f62:	f880 2035 	strb.w	r2, [r0, #53]	; 0x35
 8003f66:	2b00      	cmp	r3, #0
 8003f68:	f47f af2c 	bne.w	8003dc4 <HAL_DMA_IRQHandler+0x478>
 8003f6c:	e778      	b.n	8003e60 <HAL_DMA_IRQHandler+0x514>
 8003f6e:	681a      	ldr	r2, [r3, #0]
 8003f70:	f1b9 0f00 	cmp.w	r9, #0
 8003f74:	f47f adc7 	bne.w	8003b06 <HAL_DMA_IRQHandler+0x1ba>
 8003f78:	f1be 0f00 	cmp.w	lr, #0
 8003f7c:	f43f ae88 	beq.w	8003c90 <HAL_DMA_IRQHandler+0x344>
 8003f80:	e618      	b.n	8003bb4 <HAL_DMA_IRQHandler+0x268>
 8003f82:	6803      	ldr	r3, [r0, #0]
 8003f84:	f3c3 0340 	ubfx	r3, r3, #1, #1
 8003f88:	e6dd      	b.n	8003d46 <HAL_DMA_IRQHandler+0x3fa>
 8003f8a:	f012 0220 	ands.w	r2, r2, #32
 8003f8e:	d108      	bne.n	8003fa2 <HAL_DMA_IRQHandler+0x656>
 8003f90:	6819      	ldr	r1, [r3, #0]
 8003f92:	2401      	movs	r4, #1
 8003f94:	f021 010a 	bic.w	r1, r1, #10
 8003f98:	6019      	str	r1, [r3, #0]
 8003f9a:	f880 2034 	strb.w	r2, [r0, #52]	; 0x34
 8003f9e:	f880 4035 	strb.w	r4, [r0, #53]	; 0x35
 8003fa2:	6bc3      	ldr	r3, [r0, #60]	; 0x3c
 8003fa4:	2b00      	cmp	r3, #0
 8003fa6:	f47f af0d 	bne.w	8003dc4 <HAL_DMA_IRQHandler+0x478>
 8003faa:	e759      	b.n	8003e60 <HAL_DMA_IRQHandler+0x514>
 8003fac:	0697      	lsls	r7, r2, #26
 8003fae:	d403      	bmi.n	8003fb8 <HAL_DMA_IRQHandler+0x66c>
 8003fb0:	681a      	ldr	r2, [r3, #0]
 8003fb2:	f022 0204 	bic.w	r2, r2, #4
 8003fb6:	601a      	str	r2, [r3, #0]
 8003fb8:	6c03      	ldr	r3, [r0, #64]	; 0x40
 8003fba:	2b00      	cmp	r3, #0
 8003fbc:	f47f af02 	bne.w	8003dc4 <HAL_DMA_IRQHandler+0x478>
 8003fc0:	e74e      	b.n	8003e60 <HAL_DMA_IRQHandler+0x514>
 8003fc2:	bf00      	nop

08003fc4 <HAL_GPIO_Init>:
 8003fc4:	4ac0      	ldr	r2, [pc, #768]	; (80042c8 <HAL_GPIO_Init+0x304>)
 8003fc6:	4bc1      	ldr	r3, [pc, #772]	; (80042cc <HAL_GPIO_Init+0x308>)
 8003fc8:	4290      	cmp	r0, r2
 8003fca:	bf18      	it	ne
 8003fcc:	4298      	cmpne	r0, r3
 8003fce:	e92d 4ff0 	stmdb	sp!, {r4, r5, r6, r7, r8, r9, sl, fp, lr}
 8003fd2:	4607      	mov	r7, r0
 8003fd4:	b089      	sub	sp, #36	; 0x24
 8003fd6:	4689      	mov	r9, r1
 8003fd8:	bf14      	ite	ne
 8003fda:	f04f 0b01 	movne.w	fp, #1
 8003fde:	f04f 0b00 	moveq.w	fp, #0
 8003fe2:	d027      	beq.n	8004034 <HAL_GPIO_Init+0x70>
 8003fe4:	f503 6380 	add.w	r3, r3, #1024	; 0x400
 8003fe8:	4298      	cmp	r0, r3
 8003fea:	d023      	beq.n	8004034 <HAL_GPIO_Init+0x70>
 8003fec:	f503 6380 	add.w	r3, r3, #1024	; 0x400
 8003ff0:	4298      	cmp	r0, r3
 8003ff2:	d01f      	beq.n	8004034 <HAL_GPIO_Init+0x70>
 8003ff4:	f503 6380 	add.w	r3, r3, #1024	; 0x400
 8003ff8:	4298      	cmp	r0, r3
 8003ffa:	d01b      	beq.n	8004034 <HAL_GPIO_Init+0x70>
 8003ffc:	f503 6380 	add.w	r3, r3, #1024	; 0x400
 8004000:	4298      	cmp	r0, r3
 8004002:	d017      	beq.n	8004034 <HAL_GPIO_Init+0x70>
 8004004:	f503 6380 	add.w	r3, r3, #1024	; 0x400
 8004008:	4298      	cmp	r0, r3
 800400a:	d013      	beq.n	8004034 <HAL_GPIO_Init+0x70>
 800400c:	f503 6380 	add.w	r3, r3, #1024	; 0x400
 8004010:	4298      	cmp	r0, r3
 8004012:	d00f      	beq.n	8004034 <HAL_GPIO_Init+0x70>
 8004014:	f502 5200 	add.w	r2, r2, #8192	; 0x2000
 8004018:	f503 6300 	add.w	r3, r3, #2048	; 0x800
 800401c:	4290      	cmp	r0, r2
 800401e:	bf18      	it	ne
 8004020:	4298      	cmpne	r0, r3
 8004022:	d007      	beq.n	8004034 <HAL_GPIO_Init+0x70>
 8004024:	f503 6380 	add.w	r3, r3, #1024	; 0x400
 8004028:	4298      	cmp	r0, r3
 800402a:	d003      	beq.n	8004034 <HAL_GPIO_Init+0x70>
 800402c:	21bb      	movs	r1, #187	; 0xbb
 800402e:	48a8      	ldr	r0, [pc, #672]	; (80042d0 <HAL_GPIO_Init+0x30c>)
 8004030:	f7fc ff36 	bl	8000ea0 <assert_failed>
 8004034:	f8d9 2000 	ldr.w	r2, [r9]
 8004038:	b293      	uxth	r3, r2
 800403a:	2b00      	cmp	r3, #0
 800403c:	f000 813f 	beq.w	80042be <HAL_GPIO_Init+0x2fa>
 8004040:	4ba4      	ldr	r3, [pc, #656]	; (80042d4 <HAL_GPIO_Init+0x310>)
 8004042:	4013      	ands	r3, r2
 8004044:	2b00      	cmp	r3, #0
 8004046:	f040 813a 	bne.w	80042be <HAL_GPIO_Init+0x2fa>
 800404a:	f8d9 2004 	ldr.w	r2, [r9, #4]
 800404e:	4ba2      	ldr	r3, [pc, #648]	; (80042d8 <HAL_GPIO_Init+0x314>)
 8004050:	4ca2      	ldr	r4, [pc, #648]	; (80042dc <HAL_GPIO_Init+0x318>)
 8004052:	f1a2 0011 	sub.w	r0, r2, #17
 8004056:	429a      	cmp	r2, r3
 8004058:	bf18      	it	ne
 800405a:	2a03      	cmpne	r2, #3
 800405c:	f422 1100 	bic.w	r1, r2, #2097152	; 0x200000
 8004060:	bf8c      	ite	hi
 8004062:	2301      	movhi	r3, #1
 8004064:	2300      	movls	r3, #0
 8004066:	42a2      	cmp	r2, r4
 8004068:	bf0c      	ite	eq
 800406a:	2300      	moveq	r3, #0
 800406c:	f003 0301 	andne.w	r3, r3, #1
 8004070:	4a9b      	ldr	r2, [pc, #620]	; (80042e0 <HAL_GPIO_Init+0x31c>)
 8004072:	2801      	cmp	r0, #1
 8004074:	bf94      	ite	ls
 8004076:	2300      	movls	r3, #0
 8004078:	f003 0301 	andhi.w	r3, r3, #1
 800407c:	4291      	cmp	r1, r2
 800407e:	bf0c      	ite	eq
 8004080:	2300      	moveq	r3, #0
 8004082:	f003 0301 	andne.w	r3, r3, #1
 8004086:	b11b      	cbz	r3, 8004090 <HAL_GPIO_Init+0xcc>
 8004088:	4b96      	ldr	r3, [pc, #600]	; (80042e4 <HAL_GPIO_Init+0x320>)
 800408a:	4299      	cmp	r1, r3
 800408c:	f040 818a 	bne.w	80043a4 <HAL_GPIO_Init+0x3e0>
 8004090:	f8d9 3008 	ldr.w	r3, [r9, #8]
 8004094:	2b02      	cmp	r3, #2
 8004096:	f200 8167 	bhi.w	8004368 <HAL_GPIO_Init+0x3a4>
 800409a:	f8d9 1000 	ldr.w	r1, [r9]
 800409e:	2900      	cmp	r1, #0
 80040a0:	f000 810a 	beq.w	80042b8 <HAL_GPIO_Init+0x2f4>
 80040a4:	4b90      	ldr	r3, [pc, #576]	; (80042e8 <HAL_GPIO_Init+0x324>)
 80040a6:	f04f 0800 	mov.w	r8, #0
 80040aa:	4a90      	ldr	r2, [pc, #576]	; (80042ec <HAL_GPIO_Init+0x328>)
 80040ac:	4890      	ldr	r0, [pc, #576]	; (80042f0 <HAL_GPIO_Init+0x32c>)
 80040ae:	429f      	cmp	r7, r3
 80040b0:	bf18      	it	ne
 80040b2:	4297      	cmpne	r7, r2
 80040b4:	4d8f      	ldr	r5, [pc, #572]	; (80042f4 <HAL_GPIO_Init+0x330>)
 80040b6:	f5a2 52c0 	sub.w	r2, r2, #6144	; 0x1800
 80040ba:	4c8f      	ldr	r4, [pc, #572]	; (80042f8 <HAL_GPIO_Init+0x334>)
 80040bc:	bf14      	ite	ne
 80040be:	2301      	movne	r3, #1
 80040c0:	2300      	moveq	r3, #0
 80040c2:	42af      	cmp	r7, r5
 80040c4:	bf0c      	ite	eq
 80040c6:	2300      	moveq	r3, #0
 80040c8:	f003 0301 	andne.w	r3, r3, #1
 80040cc:	4287      	cmp	r7, r0
 80040ce:	bf18      	it	ne
 80040d0:	4297      	cmpne	r7, r2
 80040d2:	f500 5080 	add.w	r0, r0, #4096	; 0x1000
 80040d6:	bf14      	ite	ne
 80040d8:	2201      	movne	r2, #1
 80040da:	2200      	moveq	r2, #0
 80040dc:	9305      	str	r3, [sp, #20]
 80040de:	4b87      	ldr	r3, [pc, #540]	; (80042fc <HAL_GPIO_Init+0x338>)
 80040e0:	9201      	str	r2, [sp, #4]
 80040e2:	42a7      	cmp	r7, r4
 80040e4:	bf18      	it	ne
 80040e6:	429f      	cmpne	r7, r3
 80040e8:	4a85      	ldr	r2, [pc, #532]	; (8004300 <HAL_GPIO_Init+0x33c>)
 80040ea:	bf14      	ite	ne
 80040ec:	2301      	movne	r3, #1
 80040ee:	2300      	moveq	r3, #0
 80040f0:	4287      	cmp	r7, r0
 80040f2:	bf18      	it	ne
 80040f4:	4297      	cmpne	r7, r2
 80040f6:	9302      	str	r3, [sp, #8]
 80040f8:	bf14      	ite	ne
 80040fa:	2201      	movne	r2, #1
 80040fc:	2200      	moveq	r2, #0
 80040fe:	4b81      	ldr	r3, [pc, #516]	; (8004304 <HAL_GPIO_Init+0x340>)
 8004100:	9204      	str	r2, [sp, #16]
 8004102:	2401      	movs	r4, #1
 8004104:	fa04 f408 	lsl.w	r4, r4, r8
 8004108:	ea14 0a01 	ands.w	sl, r4, r1
 800410c:	f000 80ce 	beq.w	80042ac <HAL_GPIO_Init+0x2e8>
 8004110:	f8d9 2004 	ldr.w	r2, [r9, #4]
 8004114:	f022 0010 	bic.w	r0, r2, #16
 8004118:	2802      	cmp	r0, #2
 800411a:	d121      	bne.n	8004160 <HAL_GPIO_Init+0x19c>
 800411c:	f1bb 0f00 	cmp.w	fp, #0
 8004120:	d003      	beq.n	800412a <HAL_GPIO_Init+0x166>
 8004122:	9a01      	ldr	r2, [sp, #4]
 8004124:	2a00      	cmp	r2, #0
 8004126:	f040 80fe 	bne.w	8004326 <HAL_GPIO_Init+0x362>
 800412a:	f8d9 0010 	ldr.w	r0, [r9, #16]
 800412e:	280f      	cmp	r0, #15
 8004130:	f200 8111 	bhi.w	8004356 <HAL_GPIO_Init+0x392>
 8004134:	ea4f 05d8 	mov.w	r5, r8, lsr #3
 8004138:	f008 0107 	and.w	r1, r8, #7
 800413c:	f04f 0c0f 	mov.w	ip, #15
 8004140:	f8d9 2004 	ldr.w	r2, [r9, #4]
 8004144:	eb07 0585 	add.w	r5, r7, r5, lsl #2
 8004148:	0089      	lsls	r1, r1, #2
 800414a:	6a2e      	ldr	r6, [r5, #32]
 800414c:	fa0c fc01 	lsl.w	ip, ip, r1
 8004150:	fa00 f101 	lsl.w	r1, r0, r1
 8004154:	f022 0010 	bic.w	r0, r2, #16
 8004158:	ea26 060c 	bic.w	r6, r6, ip
 800415c:	4331      	orrs	r1, r6
 800415e:	6229      	str	r1, [r5, #32]
 8004160:	ea4f 0648 	mov.w	r6, r8, lsl #1
 8004164:	2503      	movs	r5, #3
 8004166:	f8d7 c000 	ldr.w	ip, [r7]
 800416a:	3801      	subs	r0, #1
 800416c:	ea02 0105 	and.w	r1, r2, r5
 8004170:	40b5      	lsls	r5, r6
 8004172:	2801      	cmp	r0, #1
 8004174:	ea6f 0505 	mvn.w	r5, r5
 8004178:	fa01 f106 	lsl.w	r1, r1, r6
 800417c:	ea05 0c0c 	and.w	ip, r5, ip
 8004180:	ea41 010c 	orr.w	r1, r1, ip
 8004184:	6039      	str	r1, [r7, #0]
 8004186:	d815      	bhi.n	80041b4 <HAL_GPIO_Init+0x1f0>
 8004188:	f8d9 000c 	ldr.w	r0, [r9, #12]
 800418c:	2803      	cmp	r0, #3
 800418e:	f200 80bf 	bhi.w	8004310 <HAL_GPIO_Init+0x34c>
 8004192:	f8d7 c008 	ldr.w	ip, [r7, #8]
 8004196:	40b0      	lsls	r0, r6
 8004198:	f3c2 1100 	ubfx	r1, r2, #4, #1
 800419c:	ea05 0c0c 	and.w	ip, r5, ip
 80041a0:	fa01 f108 	lsl.w	r1, r1, r8
 80041a4:	ea40 000c 	orr.w	r0, r0, ip
 80041a8:	60b8      	str	r0, [r7, #8]
 80041aa:	6878      	ldr	r0, [r7, #4]
 80041ac:	ea20 0404 	bic.w	r4, r0, r4
 80041b0:	430c      	orrs	r4, r1
 80041b2:	607c      	str	r4, [r7, #4]
 80041b4:	f8d9 1008 	ldr.w	r1, [r9, #8]
 80041b8:	68f8      	ldr	r0, [r7, #12]
 80041ba:	fa01 f606 	lsl.w	r6, r1, r6
 80041be:	00d1      	lsls	r1, r2, #3
 80041c0:	ea05 0500 	and.w	r5, r5, r0
 80041c4:	ea46 0605 	orr.w	r6, r6, r5
 80041c8:	60fe      	str	r6, [r7, #12]
 80041ca:	d56d      	bpl.n	80042a8 <HAL_GPIO_Init+0x2e4>
 80041cc:	f8d3 40f4 	ldr.w	r4, [r3, #244]	; 0xf4
 80041d0:	f028 0503 	bic.w	r5, r8, #3
 80041d4:	f008 0103 	and.w	r1, r8, #3
 80041d8:	200f      	movs	r0, #15
 80041da:	f044 0402 	orr.w	r4, r4, #2
 80041de:	f105 45b0 	add.w	r5, r5, #1476395008	; 0x58000000
 80041e2:	0089      	lsls	r1, r1, #2
 80041e4:	f8c3 40f4 	str.w	r4, [r3, #244]	; 0xf4
 80041e8:	f505 6580 	add.w	r5, r5, #1024	; 0x400
 80041ec:	f8d3 40f4 	ldr.w	r4, [r3, #244]	; 0xf4
 80041f0:	fa00 f601 	lsl.w	r6, r0, r1
 80041f4:	f004 0402 	and.w	r4, r4, #2
 80041f8:	9407      	str	r4, [sp, #28]
 80041fa:	4c33      	ldr	r4, [pc, #204]	; (80042c8 <HAL_GPIO_Init+0x304>)
 80041fc:	9807      	ldr	r0, [sp, #28]
 80041fe:	42a7      	cmp	r7, r4
 8004200:	68a8      	ldr	r0, [r5, #8]
 8004202:	ea20 0006 	bic.w	r0, r0, r6
 8004206:	d027      	beq.n	8004258 <HAL_GPIO_Init+0x294>
 8004208:	f1bb 0f00 	cmp.w	fp, #0
 800420c:	f000 80b1 	beq.w	8004372 <HAL_GPIO_Init+0x3ae>
 8004210:	4c37      	ldr	r4, [pc, #220]	; (80042f0 <HAL_GPIO_Init+0x32c>)
 8004212:	42a7      	cmp	r7, r4
 8004214:	f000 809a 	beq.w	800434c <HAL_GPIO_Init+0x388>
 8004218:	9c01      	ldr	r4, [sp, #4]
 800421a:	2c00      	cmp	r4, #0
 800421c:	f000 80b3 	beq.w	8004386 <HAL_GPIO_Init+0x3c2>
 8004220:	4c35      	ldr	r4, [pc, #212]	; (80042f8 <HAL_GPIO_Init+0x334>)
 8004222:	42a7      	cmp	r7, r4
 8004224:	f000 80b4 	beq.w	8004390 <HAL_GPIO_Init+0x3cc>
 8004228:	9c02      	ldr	r4, [sp, #8]
 800422a:	2c00      	cmp	r4, #0
 800422c:	f000 80a6 	beq.w	800437c <HAL_GPIO_Init+0x3b8>
 8004230:	4c35      	ldr	r4, [pc, #212]	; (8004308 <HAL_GPIO_Init+0x344>)
 8004232:	42a7      	cmp	r7, r4
 8004234:	f000 80b1 	beq.w	800439a <HAL_GPIO_Init+0x3d6>
 8004238:	9c04      	ldr	r4, [sp, #16]
 800423a:	2c00      	cmp	r4, #0
 800423c:	f000 80b7 	beq.w	80043ae <HAL_GPIO_Init+0x3ea>
 8004240:	4c29      	ldr	r4, [pc, #164]	; (80042e8 <HAL_GPIO_Init+0x324>)
 8004242:	42a7      	cmp	r7, r4
 8004244:	f000 80b8 	beq.w	80043b8 <HAL_GPIO_Init+0x3f4>
 8004248:	4c28      	ldr	r4, [pc, #160]	; (80042ec <HAL_GPIO_Init+0x328>)
 800424a:	42a7      	cmp	r7, r4
 800424c:	bf0c      	ite	eq
 800424e:	2409      	moveq	r4, #9
 8004250:	240a      	movne	r4, #10
 8004252:	fa04 f101 	lsl.w	r1, r4, r1
 8004256:	4308      	orrs	r0, r1
 8004258:	492c      	ldr	r1, [pc, #176]	; (800430c <HAL_GPIO_Init+0x348>)
 800425a:	03d6      	lsls	r6, r2, #15
 800425c:	60a8      	str	r0, [r5, #8]
 800425e:	ea6f 000a 	mvn.w	r0, sl
 8004262:	6809      	ldr	r1, [r1, #0]
 8004264:	4c29      	ldr	r4, [pc, #164]	; (800430c <HAL_GPIO_Init+0x348>)
 8004266:	bf54      	ite	pl
 8004268:	4001      	andpl	r1, r0
 800426a:	ea4a 0101 	orrmi.w	r1, sl, r1
 800426e:	0395      	lsls	r5, r2, #14
 8004270:	4d26      	ldr	r5, [pc, #152]	; (800430c <HAL_GPIO_Init+0x348>)
 8004272:	6021      	str	r1, [r4, #0]
 8004274:	6861      	ldr	r1, [r4, #4]
 8004276:	f04f 44b0 	mov.w	r4, #1476395008	; 0x58000000
 800427a:	bf54      	ite	pl
 800427c:	4001      	andpl	r1, r0
 800427e:	ea4a 0101 	orrmi.w	r1, sl, r1
 8004282:	6069      	str	r1, [r5, #4]
 8004284:	6821      	ldr	r1, [r4, #0]
 8004286:	02d4      	lsls	r4, r2, #11
 8004288:	f04f 44b0 	mov.w	r4, #1476395008	; 0x58000000
 800428c:	bf54      	ite	pl
 800428e:	4001      	andpl	r1, r0
 8004290:	ea4a 0101 	orrmi.w	r1, sl, r1
 8004294:	0292      	lsls	r2, r2, #10
 8004296:	6021      	str	r1, [r4, #0]
 8004298:	6861      	ldr	r1, [r4, #4]
 800429a:	bf54      	ite	pl
 800429c:	4008      	andpl	r0, r1
 800429e:	ea4a 0001 	orrmi.w	r0, sl, r1
 80042a2:	f04f 41b0 	mov.w	r1, #1476395008	; 0x58000000
 80042a6:	6048      	str	r0, [r1, #4]
 80042a8:	f8d9 1000 	ldr.w	r1, [r9]
 80042ac:	f108 0801 	add.w	r8, r8, #1
 80042b0:	fa31 f208 	lsrs.w	r2, r1, r8
 80042b4:	f47f af25 	bne.w	8004102 <HAL_GPIO_Init+0x13e>
 80042b8:	b009      	add	sp, #36	; 0x24
 80042ba:	e8bd 8ff0 	ldmia.w	sp!, {r4, r5, r6, r7, r8, r9, sl, fp, pc}
 80042be:	21bc      	movs	r1, #188	; 0xbc
 80042c0:	4803      	ldr	r0, [pc, #12]	; (80042d0 <HAL_GPIO_Init+0x30c>)
 80042c2:	f7fc fded 	bl	8000ea0 <assert_failed>
 80042c6:	e6c0      	b.n	800404a <HAL_GPIO_Init+0x86>
 80042c8:	58020000 	.word	0x58020000
 80042cc:	58020400 	.word	0x58020400
 80042d0:	0800d07c 	.word	0x0800d07c
 80042d4:	ffff0000 	.word	0xffff0000
 80042d8:	11210000 	.word	0x11210000
 80042dc:	11220000 	.word	0x11220000
 80042e0:	11110000 	.word	0x11110000
 80042e4:	11120000 	.word	0x11120000
 80042e8:	58022000 	.word	0x58022000
 80042ec:	58022400 	.word	0x58022400
 80042f0:	58020800 	.word	0x58020800
 80042f4:	58022800 	.word	0x58022800
 80042f8:	58021000 	.word	0x58021000
 80042fc:	58021400 	.word	0x58021400
 8004300:	58021c00 	.word	0x58021c00
 8004304:	58024400 	.word	0x58024400
 8004308:	58021800 	.word	0x58021800
 800430c:	58000080 	.word	0x58000080
 8004310:	482c      	ldr	r0, [pc, #176]	; (80043c4 <HAL_GPIO_Init+0x400>)
 8004312:	21e2      	movs	r1, #226	; 0xe2
 8004314:	9303      	str	r3, [sp, #12]
 8004316:	f7fc fdc3 	bl	8000ea0 <assert_failed>
 800431a:	f8d9 000c 	ldr.w	r0, [r9, #12]
 800431e:	f8d9 2004 	ldr.w	r2, [r9, #4]
 8004322:	9b03      	ldr	r3, [sp, #12]
 8004324:	e735      	b.n	8004192 <HAL_GPIO_Init+0x1ce>
 8004326:	9a02      	ldr	r2, [sp, #8]
 8004328:	2a00      	cmp	r2, #0
 800432a:	f43f aefe 	beq.w	800412a <HAL_GPIO_Init+0x166>
 800432e:	9a04      	ldr	r2, [sp, #16]
 8004330:	2a00      	cmp	r2, #0
 8004332:	f43f aefa 	beq.w	800412a <HAL_GPIO_Init+0x166>
 8004336:	9a05      	ldr	r2, [sp, #20]
 8004338:	2a00      	cmp	r2, #0
 800433a:	f43f aef6 	beq.w	800412a <HAL_GPIO_Init+0x166>
 800433e:	21cd      	movs	r1, #205	; 0xcd
 8004340:	4820      	ldr	r0, [pc, #128]	; (80043c4 <HAL_GPIO_Init+0x400>)
 8004342:	9303      	str	r3, [sp, #12]
 8004344:	f7fc fdac 	bl	8000ea0 <assert_failed>
 8004348:	9b03      	ldr	r3, [sp, #12]
 800434a:	e6ee      	b.n	800412a <HAL_GPIO_Init+0x166>
 800434c:	2402      	movs	r4, #2
 800434e:	fa04 f101 	lsl.w	r1, r4, r1
 8004352:	4308      	orrs	r0, r1
 8004354:	e780      	b.n	8004258 <HAL_GPIO_Init+0x294>
 8004356:	481b      	ldr	r0, [pc, #108]	; (80043c4 <HAL_GPIO_Init+0x400>)
 8004358:	21ce      	movs	r1, #206	; 0xce
 800435a:	9303      	str	r3, [sp, #12]
 800435c:	f7fc fda0 	bl	8000ea0 <assert_failed>
 8004360:	f8d9 0010 	ldr.w	r0, [r9, #16]
 8004364:	9b03      	ldr	r3, [sp, #12]
 8004366:	e6e5      	b.n	8004134 <HAL_GPIO_Init+0x170>
 8004368:	21be      	movs	r1, #190	; 0xbe
 800436a:	4816      	ldr	r0, [pc, #88]	; (80043c4 <HAL_GPIO_Init+0x400>)
 800436c:	f7fc fd98 	bl	8000ea0 <assert_failed>
 8004370:	e693      	b.n	800409a <HAL_GPIO_Init+0xd6>
 8004372:	2401      	movs	r4, #1
 8004374:	fa04 f101 	lsl.w	r1, r4, r1
 8004378:	4308      	orrs	r0, r1
 800437a:	e76d      	b.n	8004258 <HAL_GPIO_Init+0x294>
 800437c:	2405      	movs	r4, #5
 800437e:	fa04 f101 	lsl.w	r1, r4, r1
 8004382:	4308      	orrs	r0, r1
 8004384:	e768      	b.n	8004258 <HAL_GPIO_Init+0x294>
 8004386:	2403      	movs	r4, #3
 8004388:	fa04 f101 	lsl.w	r1, r4, r1
 800438c:	4308      	orrs	r0, r1
 800438e:	e763      	b.n	8004258 <HAL_GPIO_Init+0x294>
 8004390:	2404      	movs	r4, #4
 8004392:	fa04 f101 	lsl.w	r1, r4, r1
 8004396:	4308      	orrs	r0, r1
 8004398:	e75e      	b.n	8004258 <HAL_GPIO_Init+0x294>
 800439a:	2406      	movs	r4, #6
 800439c:	fa04 f101 	lsl.w	r1, r4, r1
 80043a0:	4308      	orrs	r0, r1
 80043a2:	e759      	b.n	8004258 <HAL_GPIO_Init+0x294>
 80043a4:	21bd      	movs	r1, #189	; 0xbd
 80043a6:	4807      	ldr	r0, [pc, #28]	; (80043c4 <HAL_GPIO_Init+0x400>)
 80043a8:	f7fc fd7a 	bl	8000ea0 <assert_failed>
 80043ac:	e670      	b.n	8004090 <HAL_GPIO_Init+0xcc>
 80043ae:	2407      	movs	r4, #7
 80043b0:	fa04 f101 	lsl.w	r1, r4, r1
 80043b4:	4308      	orrs	r0, r1
 80043b6:	e74f      	b.n	8004258 <HAL_GPIO_Init+0x294>
 80043b8:	2408      	movs	r4, #8
 80043ba:	fa04 f101 	lsl.w	r1, r4, r1
 80043be:	4308      	orrs	r0, r1
 80043c0:	e74a      	b.n	8004258 <HAL_GPIO_Init+0x294>
 80043c2:	bf00      	nop
 80043c4:	0800d07c 	.word	0x0800d07c

080043c8 <HAL_GPIO_WritePin>:
 80043c8:	b570      	push	{r4, r5, r6, lr}
 80043ca:	4606      	mov	r6, r0
 80043cc:	4615      	mov	r5, r2
 80043ce:	460c      	mov	r4, r1
 80043d0:	b161      	cbz	r1, 80043ec <HAL_GPIO_WritePin+0x24>
 80043d2:	2d01      	cmp	r5, #1
 80043d4:	d803      	bhi.n	80043de <HAL_GPIO_WritePin+0x16>
 80043d6:	b905      	cbnz	r5, 80043da <HAL_GPIO_WritePin+0x12>
 80043d8:	0424      	lsls	r4, r4, #16
 80043da:	61b4      	str	r4, [r6, #24]
 80043dc:	bd70      	pop	{r4, r5, r6, pc}
 80043de:	f44f 71d7 	mov.w	r1, #430	; 0x1ae
 80043e2:	4805      	ldr	r0, [pc, #20]	; (80043f8 <HAL_GPIO_WritePin+0x30>)
 80043e4:	f7fc fd5c 	bl	8000ea0 <assert_failed>
 80043e8:	61b4      	str	r4, [r6, #24]
 80043ea:	bd70      	pop	{r4, r5, r6, pc}
 80043ec:	f240 11ad 	movw	r1, #429	; 0x1ad
 80043f0:	4801      	ldr	r0, [pc, #4]	; (80043f8 <HAL_GPIO_WritePin+0x30>)
 80043f2:	f7fc fd55 	bl	8000ea0 <assert_failed>
 80043f6:	e7ec      	b.n	80043d2 <HAL_GPIO_WritePin+0xa>
 80043f8:	0800d07c 	.word	0x0800d07c

080043fc <HAL_GPIO_EXTI_IRQHandler>:
 80043fc:	4a04      	ldr	r2, [pc, #16]	; (8004410 <HAL_GPIO_EXTI_IRQHandler+0x14>)
 80043fe:	6891      	ldr	r1, [r2, #8]
 8004400:	4201      	tst	r1, r0
 8004402:	d100      	bne.n	8004406 <HAL_GPIO_EXTI_IRQHandler+0xa>
 8004404:	4770      	bx	lr
 8004406:	b508      	push	{r3, lr}
 8004408:	6090      	str	r0, [r2, #8]
 800440a:	f005 fd7f 	bl	8009f0c <HAL_GPIO_EXTI_Callback>
 800440e:	bd08      	pop	{r3, pc}
 8004410:	58000080 	.word	0x58000080

08004414 <HAL_HRTIM_Init>:
 8004414:	2800      	cmp	r0, #0
 8004416:	f000 8081 	beq.w	800451c <HAL_HRTIM_Init+0x108>
 800441a:	4b52      	ldr	r3, [pc, #328]	; (8004564 <HAL_HRTIM_Init+0x150>)
 800441c:	6802      	ldr	r2, [r0, #0]
 800441e:	429a      	cmp	r2, r3
 8004420:	b510      	push	{r4, lr}
 8004422:	4604      	mov	r4, r0
 8004424:	b082      	sub	sp, #8
 8004426:	d004      	beq.n	8004432 <HAL_HRTIM_Init+0x1e>
 8004428:	f240 2112 	movw	r1, #530	; 0x212
 800442c:	484e      	ldr	r0, [pc, #312]	; (8004568 <HAL_HRTIM_Init+0x154>)
 800442e:	f7fc fd37 	bl	8000ea0 <assert_failed>
 8004432:	6862      	ldr	r2, [r4, #4]
 8004434:	4b4d      	ldr	r3, [pc, #308]	; (800456c <HAL_HRTIM_Init+0x158>)
 8004436:	4013      	ands	r3, r2
 8004438:	2b00      	cmp	r3, #0
 800443a:	d169      	bne.n	8004510 <HAL_HRTIM_Init+0xfc>
 800443c:	68a2      	ldr	r2, [r4, #8]
 800443e:	2300      	movs	r3, #0
 8004440:	2102      	movs	r1, #2
 8004442:	07d2      	lsls	r2, r2, #31
 8004444:	f884 10c1 	strb.w	r1, [r4, #193]	; 0xc1
 8004448:	e9c4 3331 	strd	r3, r3, [r4, #196]	; 0xc4
 800444c:	e9c4 3333 	strd	r3, r3, [r4, #204]	; 0xcc
 8004450:	e9c4 3335 	strd	r3, r3, [r4, #212]	; 0xd4
 8004454:	d519      	bpl.n	800448a <HAL_HRTIM_Init+0x76>
 8004456:	6923      	ldr	r3, [r4, #16]
 8004458:	f433 4340 	bics.w	r3, r3, #49152	; 0xc000
 800445c:	d17c      	bne.n	8004558 <HAL_HRTIM_Init+0x144>
 800445e:	6963      	ldr	r3, [r4, #20]
 8004460:	f433 5200 	bics.w	r2, r3, #8192	; 0x2000
 8004464:	d002      	beq.n	800446c <HAL_HRTIM_Init+0x58>
 8004466:	f5b3 5f40 	cmp.w	r3, #12288	; 0x3000
 800446a:	d159      	bne.n	8004520 <HAL_HRTIM_Init+0x10c>
 800446c:	6821      	ldr	r1, [r4, #0]
 800446e:	4a3d      	ldr	r2, [pc, #244]	; (8004564 <HAL_HRTIM_Init+0x150>)
 8004470:	4291      	cmp	r1, r2
 8004472:	d063      	beq.n	800453c <HAL_HRTIM_Init+0x128>
 8004474:	680a      	ldr	r2, [r1, #0]
 8004476:	f403 5340 	and.w	r3, r3, #12288	; 0x3000
 800447a:	6920      	ldr	r0, [r4, #16]
 800447c:	f422 4270 	bic.w	r2, r2, #61440	; 0xf000
 8004480:	f400 4040 	and.w	r0, r0, #49152	; 0xc000
 8004484:	4302      	orrs	r2, r0
 8004486:	4313      	orrs	r3, r2
 8004488:	600b      	str	r3, [r1, #0]
 800448a:	4620      	mov	r0, r4
 800448c:	f7fc fbc8 	bl	8000c20 <HAL_HRTIM_MspInit>
 8004490:	68a3      	ldr	r3, [r4, #8]
 8004492:	079b      	lsls	r3, r3, #30
 8004494:	d50e      	bpl.n	80044b4 <HAL_HRTIM_Init+0xa0>
 8004496:	68e3      	ldr	r3, [r4, #12]
 8004498:	f433 7200 	bics.w	r2, r3, #512	; 0x200
 800449c:	d002      	beq.n	80044a4 <HAL_HRTIM_Init+0x90>
 800449e:	f5b3 7f40 	cmp.w	r3, #768	; 0x300
 80044a2:	d144      	bne.n	800452e <HAL_HRTIM_Init+0x11a>
 80044a4:	6821      	ldr	r1, [r4, #0]
 80044a6:	f403 7340 	and.w	r3, r3, #768	; 0x300
 80044aa:	680a      	ldr	r2, [r1, #0]
 80044ac:	f422 7240 	bic.w	r2, r2, #768	; 0x300
 80044b0:	4313      	orrs	r3, r2
 80044b2:	600b      	str	r3, [r1, #0]
 80044b4:	2300      	movs	r3, #0
 80044b6:	2201      	movs	r2, #1
 80044b8:	4618      	mov	r0, r3
 80044ba:	f884 20c1 	strb.w	r2, [r4, #193]	; 0xc1
 80044be:	f884 30c0 	strb.w	r3, [r4, #192]	; 0xc0
 80044c2:	62a3      	str	r3, [r4, #40]	; 0x28
 80044c4:	e9c4 3306 	strd	r3, r3, [r4, #24]
 80044c8:	e9c4 3308 	strd	r3, r3, [r4, #32]
 80044cc:	e9c4 330c 	strd	r3, r3, [r4, #48]	; 0x30
 80044d0:	e9c4 330e 	strd	r3, r3, [r4, #56]	; 0x38
 80044d4:	e9c4 3310 	strd	r3, r3, [r4, #64]	; 0x40
 80044d8:	e9c4 3313 	strd	r3, r3, [r4, #76]	; 0x4c
 80044dc:	e9c4 3315 	strd	r3, r3, [r4, #84]	; 0x54
 80044e0:	e9c4 3317 	strd	r3, r3, [r4, #92]	; 0x5c
 80044e4:	e9c4 331a 	strd	r3, r3, [r4, #104]	; 0x68
 80044e8:	e9c4 331c 	strd	r3, r3, [r4, #112]	; 0x70
 80044ec:	e9c4 331e 	strd	r3, r3, [r4, #120]	; 0x78
 80044f0:	e9c4 3321 	strd	r3, r3, [r4, #132]	; 0x84
 80044f4:	e9c4 3323 	strd	r3, r3, [r4, #140]	; 0x8c
 80044f8:	e9c4 3325 	strd	r3, r3, [r4, #148]	; 0x94
 80044fc:	e9c4 3328 	strd	r3, r3, [r4, #160]	; 0xa0
 8004500:	e9c4 332a 	strd	r3, r3, [r4, #168]	; 0xa8
 8004504:	e9c4 332c 	strd	r3, r3, [r4, #176]	; 0xb0
 8004508:	f8c4 30bc 	str.w	r3, [r4, #188]	; 0xbc
 800450c:	b002      	add	sp, #8
 800450e:	bd10      	pop	{r4, pc}
 8004510:	f240 2113 	movw	r1, #531	; 0x213
 8004514:	4814      	ldr	r0, [pc, #80]	; (8004568 <HAL_HRTIM_Init+0x154>)
 8004516:	f7fc fcc3 	bl	8000ea0 <assert_failed>
 800451a:	e78f      	b.n	800443c <HAL_HRTIM_Init+0x28>
 800451c:	2001      	movs	r0, #1
 800451e:	4770      	bx	lr
 8004520:	f240 2149 	movw	r1, #585	; 0x249
 8004524:	4810      	ldr	r0, [pc, #64]	; (8004568 <HAL_HRTIM_Init+0x154>)
 8004526:	f7fc fcbb 	bl	8000ea0 <assert_failed>
 800452a:	6963      	ldr	r3, [r4, #20]
 800452c:	e79e      	b.n	800446c <HAL_HRTIM_Init+0x58>
 800452e:	f240 216d 	movw	r1, #621	; 0x26d
 8004532:	480d      	ldr	r0, [pc, #52]	; (8004568 <HAL_HRTIM_Init+0x154>)
 8004534:	f7fc fcb4 	bl	8000ea0 <assert_failed>
 8004538:	68e3      	ldr	r3, [r4, #12]
 800453a:	e7b3      	b.n	80044a4 <HAL_HRTIM_Init+0x90>
 800453c:	4a0c      	ldr	r2, [pc, #48]	; (8004570 <HAL_HRTIM_Init+0x15c>)
 800453e:	f8d2 00f0 	ldr.w	r0, [r2, #240]	; 0xf0
 8004542:	f040 5000 	orr.w	r0, r0, #536870912	; 0x20000000
 8004546:	f8c2 00f0 	str.w	r0, [r2, #240]	; 0xf0
 800454a:	f8d2 20f0 	ldr.w	r2, [r2, #240]	; 0xf0
 800454e:	f002 5200 	and.w	r2, r2, #536870912	; 0x20000000
 8004552:	9201      	str	r2, [sp, #4]
 8004554:	9a01      	ldr	r2, [sp, #4]
 8004556:	e78d      	b.n	8004474 <HAL_HRTIM_Init+0x60>
 8004558:	f44f 7112 	mov.w	r1, #584	; 0x248
 800455c:	4802      	ldr	r0, [pc, #8]	; (8004568 <HAL_HRTIM_Init+0x154>)
 800455e:	f7fc fc9f 	bl	8000ea0 <assert_failed>
 8004562:	e77c      	b.n	800445e <HAL_HRTIM_Init+0x4a>
 8004564:	40017400 	.word	0x40017400
 8004568:	0800d0b8 	.word	0x0800d0b8
 800456c:	fffcffc0 	.word	0xfffcffc0
 8004570:	58024400 	.word	0x58024400

08004574 <HAL_HRTIM_TimeBaseConfig>:
 8004574:	2905      	cmp	r1, #5
 8004576:	b5f8      	push	{r3, r4, r5, r6, r7, lr}
 8004578:	460e      	mov	r6, r1
 800457a:	4605      	mov	r5, r0
 800457c:	4614      	mov	r4, r2
 800457e:	d904      	bls.n	800458a <HAL_HRTIM_TimeBaseConfig+0x16>
 8004580:	f240 21ea 	movw	r1, #746	; 0x2ea
 8004584:	4824      	ldr	r0, [pc, #144]	; (8004618 <HAL_HRTIM_TimeBaseConfig+0xa4>)
 8004586:	f7fc fc8b 	bl	8000ea0 <assert_failed>
 800458a:	68a3      	ldr	r3, [r4, #8]
 800458c:	2b07      	cmp	r3, #7
 800458e:	d831      	bhi.n	80045f4 <HAL_HRTIM_TimeBaseConfig+0x80>
 8004590:	68e3      	ldr	r3, [r4, #12]
 8004592:	f033 0208 	bics.w	r2, r3, #8
 8004596:	d001      	beq.n	800459c <HAL_HRTIM_TimeBaseConfig+0x28>
 8004598:	2b10      	cmp	r3, #16
 800459a:	d125      	bne.n	80045e8 <HAL_HRTIM_TimeBaseConfig+0x74>
 800459c:	f895 00c1 	ldrb.w	r0, [r5, #193]	; 0xc1
 80045a0:	b2c0      	uxtb	r0, r0
 80045a2:	2802      	cmp	r0, #2
 80045a4:	d01f      	beq.n	80045e6 <HAL_HRTIM_TimeBaseConfig+0x72>
 80045a6:	2302      	movs	r3, #2
 80045a8:	2e05      	cmp	r6, #5
 80045aa:	f8d4 c008 	ldr.w	ip, [r4, #8]
 80045ae:	6829      	ldr	r1, [r5, #0]
 80045b0:	f885 30c1 	strb.w	r3, [r5, #193]	; 0xc1
 80045b4:	68e7      	ldr	r7, [r4, #12]
 80045b6:	e9d4 2000 	ldrd	r2, r0, [r4]
 80045ba:	d021      	beq.n	8004600 <HAL_HRTIM_TimeBaseConfig+0x8c>
 80045bc:	eb01 11c6 	add.w	r1, r1, r6, lsl #7
 80045c0:	f8d1 3080 	ldr.w	r3, [r1, #128]	; 0x80
 80045c4:	f023 0307 	bic.w	r3, r3, #7
 80045c8:	ea43 030c 	orr.w	r3, r3, ip
 80045cc:	f023 0318 	bic.w	r3, r3, #24
 80045d0:	433b      	orrs	r3, r7
 80045d2:	f8c1 3080 	str.w	r3, [r1, #128]	; 0x80
 80045d6:	f8c1 2094 	str.w	r2, [r1, #148]	; 0x94
 80045da:	f8c1 0098 	str.w	r0, [r1, #152]	; 0x98
 80045de:	2301      	movs	r3, #1
 80045e0:	2000      	movs	r0, #0
 80045e2:	f885 30c1 	strb.w	r3, [r5, #193]	; 0xc1
 80045e6:	bdf8      	pop	{r3, r4, r5, r6, r7, pc}
 80045e8:	f44f 713b 	mov.w	r1, #748	; 0x2ec
 80045ec:	480a      	ldr	r0, [pc, #40]	; (8004618 <HAL_HRTIM_TimeBaseConfig+0xa4>)
 80045ee:	f7fc fc57 	bl	8000ea0 <assert_failed>
 80045f2:	e7d3      	b.n	800459c <HAL_HRTIM_TimeBaseConfig+0x28>
 80045f4:	f240 21eb 	movw	r1, #747	; 0x2eb
 80045f8:	4807      	ldr	r0, [pc, #28]	; (8004618 <HAL_HRTIM_TimeBaseConfig+0xa4>)
 80045fa:	f7fc fc51 	bl	8000ea0 <assert_failed>
 80045fe:	e7c7      	b.n	8004590 <HAL_HRTIM_TimeBaseConfig+0x1c>
 8004600:	680b      	ldr	r3, [r1, #0]
 8004602:	f023 0307 	bic.w	r3, r3, #7
 8004606:	ea43 030c 	orr.w	r3, r3, ip
 800460a:	f023 0318 	bic.w	r3, r3, #24
 800460e:	433b      	orrs	r3, r7
 8004610:	600b      	str	r3, [r1, #0]
 8004612:	614a      	str	r2, [r1, #20]
 8004614:	6188      	str	r0, [r1, #24]
 8004616:	e7e2      	b.n	80045de <HAL_HRTIM_TimeBaseConfig+0x6a>
 8004618:	0800d0b8 	.word	0x0800d0b8

0800461c <HAL_HRTIM_SimplePWMChannelConfig>:
 800461c:	e92d 41f0 	stmdb	sp!, {r4, r5, r6, r7, r8, lr}
 8004620:	4604      	mov	r4, r0
 8004622:	4615      	mov	r5, r2
 8004624:	461e      	mov	r6, r3
 8004626:	460f      	mov	r7, r1
 8004628:	2900      	cmp	r1, #0
 800462a:	d172      	bne.n	8004712 <HAL_HRTIM_SimplePWMChannelConfig+0xf6>
 800462c:	1e53      	subs	r3, r2, #1
 800462e:	2b01      	cmp	r3, #1
 8004630:	d904      	bls.n	800463c <HAL_HRTIM_SimplePWMChannelConfig+0x20>
 8004632:	f240 711e 	movw	r1, #1822	; 0x71e
 8004636:	4880      	ldr	r0, [pc, #512]	; (8004838 <HAL_HRTIM_SimplePWMChannelConfig+0x21c>)
 8004638:	f7fc fc32 	bl	8000ea0 <assert_failed>
 800463c:	6873      	ldr	r3, [r6, #4]
 800463e:	f033 0302 	bics.w	r3, r3, #2
 8004642:	f040 80a0 	bne.w	8004786 <HAL_HRTIM_SimplePWMChannelConfig+0x16a>
 8004646:	6833      	ldr	r3, [r6, #0]
 8004648:	f5b3 3f80 	cmp.w	r3, #65536	; 0x10000
 800464c:	f080 8095 	bcs.w	800477a <HAL_HRTIM_SimplePWMChannelConfig+0x15e>
 8004650:	68b3      	ldr	r3, [r6, #8]
 8004652:	f033 0308 	bics.w	r3, r3, #8
 8004656:	f040 808a 	bne.w	800476e <HAL_HRTIM_SimplePWMChannelConfig+0x152>
 800465a:	f894 00c1 	ldrb.w	r0, [r4, #193]	; 0xc1
 800465e:	b2c0      	uxtb	r0, r0
 8004660:	2802      	cmp	r0, #2
 8004662:	d054      	beq.n	800470e <HAL_HRTIM_SimplePWMChannelConfig+0xf2>
 8004664:	f894 30c0 	ldrb.w	r3, [r4, #192]	; 0xc0
 8004668:	2b01      	cmp	r3, #1
 800466a:	f000 80c0 	beq.w	80047ee <HAL_HRTIM_SimplePWMChannelConfig+0x1d2>
 800466e:	2201      	movs	r2, #1
 8004670:	2302      	movs	r3, #2
 8004672:	2d10      	cmp	r5, #16
 8004674:	f884 20c0 	strb.w	r2, [r4, #192]	; 0xc0
 8004678:	f884 30c1 	strb.w	r3, [r4, #193]	; 0xc1
 800467c:	f000 808d 	beq.w	800479a <HAL_HRTIM_SimplePWMChannelConfig+0x17e>
 8004680:	d953      	bls.n	800472a <HAL_HRTIM_SimplePWMChannelConfig+0x10e>
 8004682:	2d80      	cmp	r5, #128	; 0x80
 8004684:	d008      	beq.n	8004698 <HAL_HRTIM_SimplePWMChannelConfig+0x7c>
 8004686:	f240 8084 	bls.w	8004792 <HAL_HRTIM_SimplePWMChannelConfig+0x176>
 800468a:	f5b5 7f80 	cmp.w	r5, #256	; 0x100
 800468e:	f000 8084 	beq.w	800479a <HAL_HRTIM_SimplePWMChannelConfig+0x17e>
 8004692:	f5b5 7f00 	cmp.w	r5, #512	; 0x200
 8004696:	d14f      	bne.n	8004738 <HAL_HRTIM_SimplePWMChannelConfig+0x11c>
 8004698:	6823      	ldr	r3, [r4, #0]
 800469a:	f04f 0810 	mov.w	r8, #16
 800469e:	6832      	ldr	r2, [r6, #0]
 80046a0:	eb03 13c7 	add.w	r3, r3, r7, lsl #7
 80046a4:	f8c3 20a4 	str.w	r2, [r3, #164]	; 0xa4
 80046a8:	f894 30c1 	ldrb.w	r3, [r4, #193]	; 0xc1
 80046ac:	2b07      	cmp	r3, #7
 80046ae:	d04d      	beq.n	800474c <HAL_HRTIM_SimplePWMChannelConfig+0x130>
 80046b0:	01ff      	lsls	r7, r7, #7
 80046b2:	6822      	ldr	r2, [r4, #0]
 80046b4:	6873      	ldr	r3, [r6, #4]
 80046b6:	2d10      	cmp	r5, #16
 80046b8:	eb02 0c07 	add.w	ip, r2, r7
 80046bc:	68b1      	ldr	r1, [r6, #8]
 80046be:	f003 0302 	and.w	r3, r3, #2
 80046c2:	f8dc 60e4 	ldr.w	r6, [ip, #228]	; 0xe4
 80046c6:	f001 0108 	and.w	r1, r1, #8
 80046ca:	f8dc 00b8 	ldr.w	r0, [ip, #184]	; 0xb8
 80046ce:	f000 8084 	beq.w	80047da <HAL_HRTIM_SimplePWMChannelConfig+0x1be>
 80046d2:	d96b      	bls.n	80047ac <HAL_HRTIM_SimplePWMChannelConfig+0x190>
 80046d4:	2d80      	cmp	r5, #128	; 0x80
 80046d6:	d070      	beq.n	80047ba <HAL_HRTIM_SimplePWMChannelConfig+0x19e>
 80046d8:	f200 808c 	bhi.w	80047f4 <HAL_HRTIM_SimplePWMChannelConfig+0x1d8>
 80046dc:	2d20      	cmp	r5, #32
 80046de:	d06c      	beq.n	80047ba <HAL_HRTIM_SimplePWMChannelConfig+0x19e>
 80046e0:	2d40      	cmp	r5, #64	; 0x40
 80046e2:	d07a      	beq.n	80047da <HAL_HRTIM_SimplePWMChannelConfig+0x1be>
 80046e4:	f06f 00fe 	mvn.w	r0, #254	; 0xfe
 80046e8:	4030      	ands	r0, r6
 80046ea:	430b      	orrs	r3, r1
 80046ec:	4417      	add	r7, r2
 80046ee:	2200      	movs	r2, #0
 80046f0:	4303      	orrs	r3, r0
 80046f2:	2101      	movs	r1, #1
 80046f4:	4610      	mov	r0, r2
 80046f6:	f8c7 30e4 	str.w	r3, [r7, #228]	; 0xe4
 80046fa:	f8d7 3080 	ldr.w	r3, [r7, #128]	; 0x80
 80046fe:	f043 6300 	orr.w	r3, r3, #134217728	; 0x8000000
 8004702:	f8c7 3080 	str.w	r3, [r7, #128]	; 0x80
 8004706:	f884 10c1 	strb.w	r1, [r4, #193]	; 0xc1
 800470a:	f884 20c0 	strb.w	r2, [r4, #192]	; 0xc0
 800470e:	e8bd 81f0 	ldmia.w	sp!, {r4, r5, r6, r7, r8, pc}
 8004712:	2901      	cmp	r1, #1
 8004714:	d11d      	bne.n	8004752 <HAL_HRTIM_SimplePWMChannelConfig+0x136>
 8004716:	2a04      	cmp	r2, #4
 8004718:	d090      	beq.n	800463c <HAL_HRTIM_SimplePWMChannelConfig+0x20>
 800471a:	2a08      	cmp	r2, #8
 800471c:	d08e      	beq.n	800463c <HAL_HRTIM_SimplePWMChannelConfig+0x20>
 800471e:	f240 711e 	movw	r1, #1822	; 0x71e
 8004722:	4845      	ldr	r0, [pc, #276]	; (8004838 <HAL_HRTIM_SimplePWMChannelConfig+0x21c>)
 8004724:	f7fc fbbc 	bl	8000ea0 <assert_failed>
 8004728:	e788      	b.n	800463c <HAL_HRTIM_SimplePWMChannelConfig+0x20>
 800472a:	429d      	cmp	r5, r3
 800472c:	d0b4      	beq.n	8004698 <HAL_HRTIM_SimplePWMChannelConfig+0x7c>
 800472e:	d94f      	bls.n	80047d0 <HAL_HRTIM_SimplePWMChannelConfig+0x1b4>
 8004730:	2d04      	cmp	r5, #4
 8004732:	d032      	beq.n	800479a <HAL_HRTIM_SimplePWMChannelConfig+0x17e>
 8004734:	2d08      	cmp	r5, #8
 8004736:	d0af      	beq.n	8004698 <HAL_HRTIM_SimplePWMChannelConfig+0x7c>
 8004738:	2300      	movs	r3, #0
 800473a:	2207      	movs	r2, #7
 800473c:	f884 30c0 	strb.w	r3, [r4, #192]	; 0xc0
 8004740:	f884 20c1 	strb.w	r2, [r4, #193]	; 0xc1
 8004744:	f894 30c1 	ldrb.w	r3, [r4, #193]	; 0xc1
 8004748:	2b07      	cmp	r3, #7
 800474a:	d1b1      	bne.n	80046b0 <HAL_HRTIM_SimplePWMChannelConfig+0x94>
 800474c:	2001      	movs	r0, #1
 800474e:	e8bd 81f0 	ldmia.w	sp!, {r4, r5, r6, r7, r8, pc}
 8004752:	2902      	cmp	r1, #2
 8004754:	d156      	bne.n	8004804 <HAL_HRTIM_SimplePWMChannelConfig+0x1e8>
 8004756:	2a10      	cmp	r2, #16
 8004758:	f43f af70 	beq.w	800463c <HAL_HRTIM_SimplePWMChannelConfig+0x20>
 800475c:	2a20      	cmp	r2, #32
 800475e:	f43f af6d 	beq.w	800463c <HAL_HRTIM_SimplePWMChannelConfig+0x20>
 8004762:	f240 711e 	movw	r1, #1822	; 0x71e
 8004766:	4834      	ldr	r0, [pc, #208]	; (8004838 <HAL_HRTIM_SimplePWMChannelConfig+0x21c>)
 8004768:	f7fc fb9a 	bl	8000ea0 <assert_failed>
 800476c:	e766      	b.n	800463c <HAL_HRTIM_SimplePWMChannelConfig+0x20>
 800476e:	f240 7121 	movw	r1, #1825	; 0x721
 8004772:	4831      	ldr	r0, [pc, #196]	; (8004838 <HAL_HRTIM_SimplePWMChannelConfig+0x21c>)
 8004774:	f7fc fb94 	bl	8000ea0 <assert_failed>
 8004778:	e76f      	b.n	800465a <HAL_HRTIM_SimplePWMChannelConfig+0x3e>
 800477a:	f44f 61e4 	mov.w	r1, #1824	; 0x720
 800477e:	482e      	ldr	r0, [pc, #184]	; (8004838 <HAL_HRTIM_SimplePWMChannelConfig+0x21c>)
 8004780:	f7fc fb8e 	bl	8000ea0 <assert_failed>
 8004784:	e764      	b.n	8004650 <HAL_HRTIM_SimplePWMChannelConfig+0x34>
 8004786:	f240 711f 	movw	r1, #1823	; 0x71f
 800478a:	482b      	ldr	r0, [pc, #172]	; (8004838 <HAL_HRTIM_SimplePWMChannelConfig+0x21c>)
 800478c:	f7fc fb88 	bl	8000ea0 <assert_failed>
 8004790:	e759      	b.n	8004646 <HAL_HRTIM_SimplePWMChannelConfig+0x2a>
 8004792:	2d20      	cmp	r5, #32
 8004794:	d080      	beq.n	8004698 <HAL_HRTIM_SimplePWMChannelConfig+0x7c>
 8004796:	2d40      	cmp	r5, #64	; 0x40
 8004798:	d1ce      	bne.n	8004738 <HAL_HRTIM_SimplePWMChannelConfig+0x11c>
 800479a:	6823      	ldr	r3, [r4, #0]
 800479c:	f04f 0808 	mov.w	r8, #8
 80047a0:	6832      	ldr	r2, [r6, #0]
 80047a2:	eb03 13c7 	add.w	r3, r3, r7, lsl #7
 80047a6:	f8c3 209c 	str.w	r2, [r3, #156]	; 0x9c
 80047aa:	e77d      	b.n	80046a8 <HAL_HRTIM_SimplePWMChannelConfig+0x8c>
 80047ac:	2d02      	cmp	r5, #2
 80047ae:	d004      	beq.n	80047ba <HAL_HRTIM_SimplePWMChannelConfig+0x19e>
 80047b0:	d911      	bls.n	80047d6 <HAL_HRTIM_SimplePWMChannelConfig+0x1ba>
 80047b2:	2d04      	cmp	r5, #4
 80047b4:	d011      	beq.n	80047da <HAL_HRTIM_SimplePWMChannelConfig+0x1be>
 80047b6:	2d08      	cmp	r5, #8
 80047b8:	d194      	bne.n	80046e4 <HAL_HRTIM_SimplePWMChannelConfig+0xc8>
 80047ba:	19d0      	adds	r0, r2, r7
 80047bc:	2504      	movs	r5, #4
 80047be:	041b      	lsls	r3, r3, #16
 80047c0:	f8c0 80c4 	str.w	r8, [r0, #196]	; 0xc4
 80047c4:	0409      	lsls	r1, r1, #16
 80047c6:	f8c0 50c8 	str.w	r5, [r0, #200]	; 0xc8
 80047ca:	f46f 007e 	mvn.w	r0, #16646144	; 0xfe0000
 80047ce:	e78b      	b.n	80046e8 <HAL_HRTIM_SimplePWMChannelConfig+0xcc>
 80047d0:	4295      	cmp	r5, r2
 80047d2:	d1b1      	bne.n	8004738 <HAL_HRTIM_SimplePWMChannelConfig+0x11c>
 80047d4:	e7e1      	b.n	800479a <HAL_HRTIM_SimplePWMChannelConfig+0x17e>
 80047d6:	2d01      	cmp	r5, #1
 80047d8:	d184      	bne.n	80046e4 <HAL_HRTIM_SimplePWMChannelConfig+0xc8>
 80047da:	19d5      	adds	r5, r2, r7
 80047dc:	f04f 0c04 	mov.w	ip, #4
 80047e0:	f06f 00fe 	mvn.w	r0, #254	; 0xfe
 80047e4:	f8c5 80bc 	str.w	r8, [r5, #188]	; 0xbc
 80047e8:	f8c5 c0c0 	str.w	ip, [r5, #192]	; 0xc0
 80047ec:	e77c      	b.n	80046e8 <HAL_HRTIM_SimplePWMChannelConfig+0xcc>
 80047ee:	2002      	movs	r0, #2
 80047f0:	e8bd 81f0 	ldmia.w	sp!, {r4, r5, r6, r7, r8, pc}
 80047f4:	f5b5 7f80 	cmp.w	r5, #256	; 0x100
 80047f8:	d0ef      	beq.n	80047da <HAL_HRTIM_SimplePWMChannelConfig+0x1be>
 80047fa:	f5b5 7f00 	cmp.w	r5, #512	; 0x200
 80047fe:	f47f af71 	bne.w	80046e4 <HAL_HRTIM_SimplePWMChannelConfig+0xc8>
 8004802:	e7da      	b.n	80047ba <HAL_HRTIM_SimplePWMChannelConfig+0x19e>
 8004804:	2903      	cmp	r1, #3
 8004806:	d106      	bne.n	8004816 <HAL_HRTIM_SimplePWMChannelConfig+0x1fa>
 8004808:	2a40      	cmp	r2, #64	; 0x40
 800480a:	f43f af17 	beq.w	800463c <HAL_HRTIM_SimplePWMChannelConfig+0x20>
 800480e:	2a80      	cmp	r2, #128	; 0x80
 8004810:	f47f af0f 	bne.w	8004632 <HAL_HRTIM_SimplePWMChannelConfig+0x16>
 8004814:	e712      	b.n	800463c <HAL_HRTIM_SimplePWMChannelConfig+0x20>
 8004816:	2904      	cmp	r1, #4
 8004818:	f47f af0b 	bne.w	8004632 <HAL_HRTIM_SimplePWMChannelConfig+0x16>
 800481c:	f5b2 7f80 	cmp.w	r2, #256	; 0x100
 8004820:	f43f af0c 	beq.w	800463c <HAL_HRTIM_SimplePWMChannelConfig+0x20>
 8004824:	f5b2 7f00 	cmp.w	r2, #512	; 0x200
 8004828:	f43f af08 	beq.w	800463c <HAL_HRTIM_SimplePWMChannelConfig+0x20>
 800482c:	f240 711e 	movw	r1, #1822	; 0x71e
 8004830:	4801      	ldr	r0, [pc, #4]	; (8004838 <HAL_HRTIM_SimplePWMChannelConfig+0x21c>)
 8004832:	f7fc fb35 	bl	8000ea0 <assert_failed>
 8004836:	e701      	b.n	800463c <HAL_HRTIM_SimplePWMChannelConfig+0x20>
 8004838:	0800d0b8 	.word	0x0800d0b8

0800483c <HAL_HRTIM_SimplePWMStart>:
 800483c:	b5f8      	push	{r3, r4, r5, r6, r7, lr}
 800483e:	4604      	mov	r4, r0
 8004840:	4615      	mov	r5, r2
 8004842:	460e      	mov	r6, r1
 8004844:	bb11      	cbnz	r1, 800488c <HAL_HRTIM_SimplePWMStart+0x50>
 8004846:	1e53      	subs	r3, r2, #1
 8004848:	2b01      	cmp	r3, #1
 800484a:	d904      	bls.n	8004856 <HAL_HRTIM_SimplePWMStart+0x1a>
 800484c:	f240 718d 	movw	r1, #1933	; 0x78d
 8004850:	4826      	ldr	r0, [pc, #152]	; (80048ec <HAL_HRTIM_SimplePWMStart+0xb0>)
 8004852:	f7fc fb25 	bl	8000ea0 <assert_failed>
 8004856:	f894 30c0 	ldrb.w	r3, [r4, #192]	; 0xc0
 800485a:	2b01      	cmp	r3, #1
 800485c:	d02e      	beq.n	80048bc <HAL_HRTIM_SimplePWMStart+0x80>
 800485e:	6823      	ldr	r3, [r4, #0]
 8004860:	2202      	movs	r2, #2
 8004862:	4923      	ldr	r1, [pc, #140]	; (80048f0 <HAL_HRTIM_SimplePWMStart+0xb4>)
 8004864:	f884 20c1 	strb.w	r2, [r4, #193]	; 0xc1
 8004868:	f8d3 2394 	ldr.w	r2, [r3, #916]	; 0x394
 800486c:	f851 7026 	ldr.w	r7, [r1, r6, lsl #2]
 8004870:	2100      	movs	r1, #0
 8004872:	4315      	orrs	r5, r2
 8004874:	2601      	movs	r6, #1
 8004876:	4608      	mov	r0, r1
 8004878:	f8c3 5394 	str.w	r5, [r3, #916]	; 0x394
 800487c:	681a      	ldr	r2, [r3, #0]
 800487e:	433a      	orrs	r2, r7
 8004880:	601a      	str	r2, [r3, #0]
 8004882:	f884 60c1 	strb.w	r6, [r4, #193]	; 0xc1
 8004886:	f884 10c0 	strb.w	r1, [r4, #192]	; 0xc0
 800488a:	bdf8      	pop	{r3, r4, r5, r6, r7, pc}
 800488c:	2901      	cmp	r1, #1
 800488e:	d109      	bne.n	80048a4 <HAL_HRTIM_SimplePWMStart+0x68>
 8004890:	2a04      	cmp	r2, #4
 8004892:	d0e0      	beq.n	8004856 <HAL_HRTIM_SimplePWMStart+0x1a>
 8004894:	2a08      	cmp	r2, #8
 8004896:	d0de      	beq.n	8004856 <HAL_HRTIM_SimplePWMStart+0x1a>
 8004898:	f240 718d 	movw	r1, #1933	; 0x78d
 800489c:	4813      	ldr	r0, [pc, #76]	; (80048ec <HAL_HRTIM_SimplePWMStart+0xb0>)
 800489e:	f7fc faff 	bl	8000ea0 <assert_failed>
 80048a2:	e7d8      	b.n	8004856 <HAL_HRTIM_SimplePWMStart+0x1a>
 80048a4:	2902      	cmp	r1, #2
 80048a6:	d10b      	bne.n	80048c0 <HAL_HRTIM_SimplePWMStart+0x84>
 80048a8:	2a10      	cmp	r2, #16
 80048aa:	d0d4      	beq.n	8004856 <HAL_HRTIM_SimplePWMStart+0x1a>
 80048ac:	2a20      	cmp	r2, #32
 80048ae:	d0d2      	beq.n	8004856 <HAL_HRTIM_SimplePWMStart+0x1a>
 80048b0:	f240 718d 	movw	r1, #1933	; 0x78d
 80048b4:	480d      	ldr	r0, [pc, #52]	; (80048ec <HAL_HRTIM_SimplePWMStart+0xb0>)
 80048b6:	f7fc faf3 	bl	8000ea0 <assert_failed>
 80048ba:	e7cc      	b.n	8004856 <HAL_HRTIM_SimplePWMStart+0x1a>
 80048bc:	2002      	movs	r0, #2
 80048be:	bdf8      	pop	{r3, r4, r5, r6, r7, pc}
 80048c0:	2903      	cmp	r1, #3
 80048c2:	d104      	bne.n	80048ce <HAL_HRTIM_SimplePWMStart+0x92>
 80048c4:	2a40      	cmp	r2, #64	; 0x40
 80048c6:	d0c6      	beq.n	8004856 <HAL_HRTIM_SimplePWMStart+0x1a>
 80048c8:	2a80      	cmp	r2, #128	; 0x80
 80048ca:	d1bf      	bne.n	800484c <HAL_HRTIM_SimplePWMStart+0x10>
 80048cc:	e7c3      	b.n	8004856 <HAL_HRTIM_SimplePWMStart+0x1a>
 80048ce:	2904      	cmp	r1, #4
 80048d0:	d1bc      	bne.n	800484c <HAL_HRTIM_SimplePWMStart+0x10>
 80048d2:	f5b2 7f80 	cmp.w	r2, #256	; 0x100
 80048d6:	d0be      	beq.n	8004856 <HAL_HRTIM_SimplePWMStart+0x1a>
 80048d8:	f5b2 7f00 	cmp.w	r2, #512	; 0x200
 80048dc:	d0bb      	beq.n	8004856 <HAL_HRTIM_SimplePWMStart+0x1a>
 80048de:	f240 718d 	movw	r1, #1933	; 0x78d
 80048e2:	4802      	ldr	r0, [pc, #8]	; (80048ec <HAL_HRTIM_SimplePWMStart+0xb0>)
 80048e4:	f7fc fadc 	bl	8000ea0 <assert_failed>
 80048e8:	e7b5      	b.n	8004856 <HAL_HRTIM_SimplePWMStart+0x1a>
 80048ea:	bf00      	nop
 80048ec:	0800d0b8 	.word	0x0800d0b8
 80048f0:	0800d0f4 	.word	0x0800d0f4

080048f4 <HAL_HRTIM_ADCTriggerConfig>:
 80048f4:	2908      	cmp	r1, #8
 80048f6:	b570      	push	{r4, r5, r6, lr}
 80048f8:	460d      	mov	r5, r1
 80048fa:	4604      	mov	r4, r0
 80048fc:	4616      	mov	r6, r2
 80048fe:	d928      	bls.n	8004952 <HAL_HRTIM_ADCTriggerConfig+0x5e>
 8004900:	f640 7162 	movw	r1, #3938	; 0xf62
 8004904:	483c      	ldr	r0, [pc, #240]	; (80049f8 <HAL_HRTIM_ADCTriggerConfig+0x104>)
 8004906:	f7fc facb 	bl	8000ea0 <assert_failed>
 800490a:	6833      	ldr	r3, [r6, #0]
 800490c:	f423 3280 	bic.w	r2, r3, #65536	; 0x10000
 8004910:	f5b2 2f80 	cmp.w	r2, #262144	; 0x40000
 8004914:	d002      	beq.n	800491c <HAL_HRTIM_ADCTriggerConfig+0x28>
 8004916:	f433 3340 	bics.w	r3, r3, #196608	; 0x30000
 800491a:	d164      	bne.n	80049e6 <HAL_HRTIM_ADCTriggerConfig+0xf2>
 800491c:	f894 00c1 	ldrb.w	r0, [r4, #193]	; 0xc1
 8004920:	b2c0      	uxtb	r0, r0
 8004922:	2802      	cmp	r0, #2
 8004924:	d032      	beq.n	800498c <HAL_HRTIM_ADCTriggerConfig+0x98>
 8004926:	f894 30c0 	ldrb.w	r3, [r4, #192]	; 0xc0
 800492a:	2b01      	cmp	r3, #1
 800492c:	d061      	beq.n	80049f2 <HAL_HRTIM_ADCTriggerConfig+0xfe>
 800492e:	2301      	movs	r3, #1
 8004930:	2102      	movs	r1, #2
 8004932:	6822      	ldr	r2, [r4, #0]
 8004934:	3d01      	subs	r5, #1
 8004936:	f884 10c1 	strb.w	r1, [r4, #193]	; 0xc1
 800493a:	f884 30c0 	strb.w	r3, [r4, #192]	; 0xc0
 800493e:	f8d2 3380 	ldr.w	r3, [r2, #896]	; 0x380
 8004942:	2d07      	cmp	r5, #7
 8004944:	d848      	bhi.n	80049d8 <HAL_HRTIM_ADCTriggerConfig+0xe4>
 8004946:	e8df f005 	tbb	[pc, r5]
 800494a:	3122      	.short	0x3122
 800494c:	47473c47 	.word	0x47473c47
 8004950:	0a47      	.short	0x0a47
 8004952:	f44f 738b 	mov.w	r3, #278	; 0x116
 8004956:	40cb      	lsrs	r3, r1
 8004958:	07db      	lsls	r3, r3, #31
 800495a:	d4d6      	bmi.n	800490a <HAL_HRTIM_ADCTriggerConfig+0x16>
 800495c:	e7d0      	b.n	8004900 <HAL_HRTIM_ADCTriggerConfig+0xc>
 800495e:	6831      	ldr	r1, [r6, #0]
 8004960:	f023 6360 	bic.w	r3, r3, #234881024	; 0xe000000
 8004964:	6870      	ldr	r0, [r6, #4]
 8004966:	0249      	lsls	r1, r1, #9
 8004968:	f8c2 03c8 	str.w	r0, [r2, #968]	; 0x3c8
 800496c:	f001 6160 	and.w	r1, r1, #234881024	; 0xe000000
 8004970:	430b      	orrs	r3, r1
 8004972:	f894 10c1 	ldrb.w	r1, [r4, #193]	; 0xc1
 8004976:	2907      	cmp	r1, #7
 8004978:	d016      	beq.n	80049a8 <HAL_HRTIM_ADCTriggerConfig+0xb4>
 800497a:	2100      	movs	r1, #0
 800497c:	2501      	movs	r5, #1
 800497e:	f8c2 3380 	str.w	r3, [r2, #896]	; 0x380
 8004982:	4608      	mov	r0, r1
 8004984:	f884 50c1 	strb.w	r5, [r4, #193]	; 0xc1
 8004988:	f884 10c0 	strb.w	r1, [r4, #192]	; 0xc0
 800498c:	bd70      	pop	{r4, r5, r6, pc}
 800498e:	6831      	ldr	r1, [r6, #0]
 8004990:	f423 23e0 	bic.w	r3, r3, #458752	; 0x70000
 8004994:	6870      	ldr	r0, [r6, #4]
 8004996:	f401 21e0 	and.w	r1, r1, #458752	; 0x70000
 800499a:	f8c2 03bc 	str.w	r0, [r2, #956]	; 0x3bc
 800499e:	430b      	orrs	r3, r1
 80049a0:	f894 10c1 	ldrb.w	r1, [r4, #193]	; 0xc1
 80049a4:	2907      	cmp	r1, #7
 80049a6:	d1e8      	bne.n	800497a <HAL_HRTIM_ADCTriggerConfig+0x86>
 80049a8:	2001      	movs	r0, #1
 80049aa:	bd70      	pop	{r4, r5, r6, pc}
 80049ac:	6831      	ldr	r1, [r6, #0]
 80049ae:	f423 1360 	bic.w	r3, r3, #3670016	; 0x380000
 80049b2:	6870      	ldr	r0, [r6, #4]
 80049b4:	00c9      	lsls	r1, r1, #3
 80049b6:	f8c2 03c0 	str.w	r0, [r2, #960]	; 0x3c0
 80049ba:	f401 1160 	and.w	r1, r1, #3670016	; 0x380000
 80049be:	430b      	orrs	r3, r1
 80049c0:	e7d7      	b.n	8004972 <HAL_HRTIM_ADCTriggerConfig+0x7e>
 80049c2:	6831      	ldr	r1, [r6, #0]
 80049c4:	f023 73e0 	bic.w	r3, r3, #29360128	; 0x1c00000
 80049c8:	6870      	ldr	r0, [r6, #4]
 80049ca:	0189      	lsls	r1, r1, #6
 80049cc:	f8c2 03c4 	str.w	r0, [r2, #964]	; 0x3c4
 80049d0:	f001 71e0 	and.w	r1, r1, #29360128	; 0x1c00000
 80049d4:	430b      	orrs	r3, r1
 80049d6:	e7cc      	b.n	8004972 <HAL_HRTIM_ADCTriggerConfig+0x7e>
 80049d8:	2007      	movs	r0, #7
 80049da:	2100      	movs	r1, #0
 80049dc:	f884 00c1 	strb.w	r0, [r4, #193]	; 0xc1
 80049e0:	f884 10c0 	strb.w	r1, [r4, #192]	; 0xc0
 80049e4:	e7c5      	b.n	8004972 <HAL_HRTIM_ADCTriggerConfig+0x7e>
 80049e6:	f640 7163 	movw	r1, #3939	; 0xf63
 80049ea:	4803      	ldr	r0, [pc, #12]	; (80049f8 <HAL_HRTIM_ADCTriggerConfig+0x104>)
 80049ec:	f7fc fa58 	bl	8000ea0 <assert_failed>
 80049f0:	e794      	b.n	800491c <HAL_HRTIM_ADCTriggerConfig+0x28>
 80049f2:	2002      	movs	r0, #2
 80049f4:	bd70      	pop	{r4, r5, r6, pc}
 80049f6:	bf00      	nop
 80049f8:	0800d0b8 	.word	0x0800d0b8

080049fc <HAL_PWREx_ConfigSupply>:
 80049fc:	b538      	push	{r3, r4, r5, lr}
 80049fe:	1e43      	subs	r3, r0, #1
 8004a00:	4605      	mov	r5, r0
 8004a02:	2b01      	cmp	r3, #1
 8004a04:	d903      	bls.n	8004a0e <HAL_PWREx_ConfigSupply+0x12>
 8004a06:	21ef      	movs	r1, #239	; 0xef
 8004a08:	4812      	ldr	r0, [pc, #72]	; (8004a54 <HAL_PWREx_ConfigSupply+0x58>)
 8004a0a:	f7fc fa49 	bl	8000ea0 <assert_failed>
 8004a0e:	4b12      	ldr	r3, [pc, #72]	; (8004a58 <HAL_PWREx_ConfigSupply+0x5c>)
 8004a10:	68da      	ldr	r2, [r3, #12]
 8004a12:	0752      	lsls	r2, r2, #29
 8004a14:	d406      	bmi.n	8004a24 <HAL_PWREx_ConfigSupply+0x28>
 8004a16:	68db      	ldr	r3, [r3, #12]
 8004a18:	f003 0307 	and.w	r3, r3, #7
 8004a1c:	42ab      	cmp	r3, r5
 8004a1e:	d001      	beq.n	8004a24 <HAL_PWREx_ConfigSupply+0x28>
 8004a20:	2001      	movs	r0, #1
 8004a22:	bd38      	pop	{r3, r4, r5, pc}
 8004a24:	4b0c      	ldr	r3, [pc, #48]	; (8004a58 <HAL_PWREx_ConfigSupply+0x5c>)
 8004a26:	68d8      	ldr	r0, [r3, #12]
 8004a28:	461c      	mov	r4, r3
 8004a2a:	f020 0007 	bic.w	r0, r0, #7
 8004a2e:	4328      	orrs	r0, r5
 8004a30:	60d8      	str	r0, [r3, #12]
 8004a32:	f7fc fd39 	bl	80014a8 <HAL_GetTick>
 8004a36:	4605      	mov	r5, r0
 8004a38:	e005      	b.n	8004a46 <HAL_PWREx_ConfigSupply+0x4a>
 8004a3a:	f7fc fd35 	bl	80014a8 <HAL_GetTick>
 8004a3e:	1b40      	subs	r0, r0, r5
 8004a40:	f5b0 7f7a 	cmp.w	r0, #1000	; 0x3e8
 8004a44:	d804      	bhi.n	8004a50 <HAL_PWREx_ConfigSupply+0x54>
 8004a46:	6863      	ldr	r3, [r4, #4]
 8004a48:	049b      	lsls	r3, r3, #18
 8004a4a:	d5f6      	bpl.n	8004a3a <HAL_PWREx_ConfigSupply+0x3e>
 8004a4c:	2000      	movs	r0, #0
 8004a4e:	bd38      	pop	{r3, r4, r5, pc}
 8004a50:	2003      	movs	r0, #3
 8004a52:	bd38      	pop	{r3, r4, r5, pc}
 8004a54:	0800d10c 	.word	0x0800d10c
 8004a58:	58024800 	.word	0x58024800

08004a5c <HAL_RCC_OscConfig>:
 8004a5c:	2800      	cmp	r0, #0
 8004a5e:	f000 8251 	beq.w	8004f04 <HAL_RCC_OscConfig+0x4a8>
 8004a62:	b5f8      	push	{r3, r4, r5, r6, r7, lr}
 8004a64:	6803      	ldr	r3, [r0, #0]
 8004a66:	4604      	mov	r4, r0
 8004a68:	2b00      	cmp	r3, #0
 8004a6a:	f000 80b9 	beq.w	8004be0 <HAL_RCC_OscConfig+0x184>
 8004a6e:	0698      	lsls	r0, r3, #26
 8004a70:	f000 822a 	beq.w	8004ec8 <HAL_RCC_OscConfig+0x46c>
 8004a74:	07d9      	lsls	r1, r3, #31
 8004a76:	d533      	bpl.n	8004ae0 <HAL_RCC_OscConfig+0x84>
 8004a78:	6863      	ldr	r3, [r4, #4]
 8004a7a:	f433 3280 	bics.w	r2, r3, #65536	; 0x10000
 8004a7e:	d003      	beq.n	8004a88 <HAL_RCC_OscConfig+0x2c>
 8004a80:	f5b3 2fa0 	cmp.w	r3, #327680	; 0x50000
 8004a84:	f040 81e9 	bne.w	8004e5a <HAL_RCC_OscConfig+0x3fe>
 8004a88:	4aa3      	ldr	r2, [pc, #652]	; (8004d18 <HAL_RCC_OscConfig+0x2bc>)
 8004a8a:	6913      	ldr	r3, [r2, #16]
 8004a8c:	6a92      	ldr	r2, [r2, #40]	; 0x28
 8004a8e:	f003 0338 	and.w	r3, r3, #56	; 0x38
 8004a92:	2b10      	cmp	r3, #16
 8004a94:	d01b      	beq.n	8004ace <HAL_RCC_OscConfig+0x72>
 8004a96:	2b18      	cmp	r3, #24
 8004a98:	d015      	beq.n	8004ac6 <HAL_RCC_OscConfig+0x6a>
 8004a9a:	6863      	ldr	r3, [r4, #4]
 8004a9c:	f5b3 3f80 	cmp.w	r3, #65536	; 0x10000
 8004aa0:	f000 81e8 	beq.w	8004e74 <HAL_RCC_OscConfig+0x418>
 8004aa4:	2b00      	cmp	r3, #0
 8004aa6:	f000 8216 	beq.w	8004ed6 <HAL_RCC_OscConfig+0x47a>
 8004aaa:	f5b3 2fa0 	cmp.w	r3, #327680	; 0x50000
 8004aae:	4b9a      	ldr	r3, [pc, #616]	; (8004d18 <HAL_RCC_OscConfig+0x2bc>)
 8004ab0:	681a      	ldr	r2, [r3, #0]
 8004ab2:	f000 82bf 	beq.w	8005034 <HAL_RCC_OscConfig+0x5d8>
 8004ab6:	f422 3280 	bic.w	r2, r2, #65536	; 0x10000
 8004aba:	601a      	str	r2, [r3, #0]
 8004abc:	681a      	ldr	r2, [r3, #0]
 8004abe:	f422 2280 	bic.w	r2, r2, #262144	; 0x40000
 8004ac2:	601a      	str	r2, [r3, #0]
 8004ac4:	e1db      	b.n	8004e7e <HAL_RCC_OscConfig+0x422>
 8004ac6:	f002 0203 	and.w	r2, r2, #3
 8004aca:	2a02      	cmp	r2, #2
 8004acc:	d1e5      	bne.n	8004a9a <HAL_RCC_OscConfig+0x3e>
 8004ace:	4b92      	ldr	r3, [pc, #584]	; (8004d18 <HAL_RCC_OscConfig+0x2bc>)
 8004ad0:	681b      	ldr	r3, [r3, #0]
 8004ad2:	039a      	lsls	r2, r3, #14
 8004ad4:	d503      	bpl.n	8004ade <HAL_RCC_OscConfig+0x82>
 8004ad6:	6863      	ldr	r3, [r4, #4]
 8004ad8:	2b00      	cmp	r3, #0
 8004ada:	f000 81f1 	beq.w	8004ec0 <HAL_RCC_OscConfig+0x464>
 8004ade:	6823      	ldr	r3, [r4, #0]
 8004ae0:	079d      	lsls	r5, r3, #30
 8004ae2:	d541      	bpl.n	8004b68 <HAL_RCC_OscConfig+0x10c>
 8004ae4:	68e2      	ldr	r2, [r4, #12]
 8004ae6:	2a19      	cmp	r2, #25
 8004ae8:	f200 8279 	bhi.w	8004fde <HAL_RCC_OscConfig+0x582>
 8004aec:	4b8b      	ldr	r3, [pc, #556]	; (8004d1c <HAL_RCC_OscConfig+0x2c0>)
 8004aee:	40d3      	lsrs	r3, r2
 8004af0:	07d8      	lsls	r0, r3, #31
 8004af2:	f140 8274 	bpl.w	8004fde <HAL_RCC_OscConfig+0x582>
 8004af6:	6923      	ldr	r3, [r4, #16]
 8004af8:	2b7f      	cmp	r3, #127	; 0x7f
 8004afa:	d904      	bls.n	8004b06 <HAL_RCC_OscConfig+0xaa>
 8004afc:	f44f 71d5 	mov.w	r1, #426	; 0x1aa
 8004b00:	4887      	ldr	r0, [pc, #540]	; (8004d20 <HAL_RCC_OscConfig+0x2c4>)
 8004b02:	f7fc f9cd 	bl	8000ea0 <assert_failed>
 8004b06:	4a84      	ldr	r2, [pc, #528]	; (8004d18 <HAL_RCC_OscConfig+0x2bc>)
 8004b08:	6913      	ldr	r3, [r2, #16]
 8004b0a:	6a92      	ldr	r2, [r2, #40]	; 0x28
 8004b0c:	f013 0338 	ands.w	r3, r3, #56	; 0x38
 8004b10:	f000 816f 	beq.w	8004df2 <HAL_RCC_OscConfig+0x396>
 8004b14:	2b18      	cmp	r3, #24
 8004b16:	f000 8169 	beq.w	8004dec <HAL_RCC_OscConfig+0x390>
 8004b1a:	68e2      	ldr	r2, [r4, #12]
 8004b1c:	2a00      	cmp	r2, #0
 8004b1e:	f000 8219 	beq.w	8004f54 <HAL_RCC_OscConfig+0x4f8>
 8004b22:	497d      	ldr	r1, [pc, #500]	; (8004d18 <HAL_RCC_OscConfig+0x2bc>)
 8004b24:	680b      	ldr	r3, [r1, #0]
 8004b26:	460d      	mov	r5, r1
 8004b28:	f023 0319 	bic.w	r3, r3, #25
 8004b2c:	4313      	orrs	r3, r2
 8004b2e:	600b      	str	r3, [r1, #0]
 8004b30:	f7fc fcba 	bl	80014a8 <HAL_GetTick>
 8004b34:	4606      	mov	r6, r0
 8004b36:	e005      	b.n	8004b44 <HAL_RCC_OscConfig+0xe8>
 8004b38:	f7fc fcb6 	bl	80014a8 <HAL_GetTick>
 8004b3c:	1b80      	subs	r0, r0, r6
 8004b3e:	2802      	cmp	r0, #2
 8004b40:	f200 81c0 	bhi.w	8004ec4 <HAL_RCC_OscConfig+0x468>
 8004b44:	682b      	ldr	r3, [r5, #0]
 8004b46:	075f      	lsls	r7, r3, #29
 8004b48:	d5f6      	bpl.n	8004b38 <HAL_RCC_OscConfig+0xdc>
 8004b4a:	f7fc fcc5 	bl	80014d8 <HAL_GetREVID>
 8004b4e:	f241 0303 	movw	r3, #4099	; 0x1003
 8004b52:	6922      	ldr	r2, [r4, #16]
 8004b54:	4298      	cmp	r0, r3
 8004b56:	686b      	ldr	r3, [r5, #4]
 8004b58:	f240 8250 	bls.w	8004ffc <HAL_RCC_OscConfig+0x5a0>
 8004b5c:	f023 43fe 	bic.w	r3, r3, #2130706432	; 0x7f000000
 8004b60:	ea43 6302 	orr.w	r3, r3, r2, lsl #24
 8004b64:	606b      	str	r3, [r5, #4]
 8004b66:	6823      	ldr	r3, [r4, #0]
 8004b68:	06d9      	lsls	r1, r3, #27
 8004b6a:	d539      	bpl.n	8004be0 <HAL_RCC_OscConfig+0x184>
 8004b6c:	69e3      	ldr	r3, [r4, #28]
 8004b6e:	f033 0380 	bics.w	r3, r3, #128	; 0x80
 8004b72:	f040 8219 	bne.w	8004fa8 <HAL_RCC_OscConfig+0x54c>
 8004b76:	6a23      	ldr	r3, [r4, #32]
 8004b78:	2b1f      	cmp	r3, #31
 8004b7a:	f200 820f 	bhi.w	8004f9c <HAL_RCC_OscConfig+0x540>
 8004b7e:	4a66      	ldr	r2, [pc, #408]	; (8004d18 <HAL_RCC_OscConfig+0x2bc>)
 8004b80:	6913      	ldr	r3, [r2, #16]
 8004b82:	6a92      	ldr	r2, [r2, #40]	; 0x28
 8004b84:	f003 0338 	and.w	r3, r3, #56	; 0x38
 8004b88:	2b08      	cmp	r3, #8
 8004b8a:	f000 8192 	beq.w	8004eb2 <HAL_RCC_OscConfig+0x456>
 8004b8e:	2b18      	cmp	r3, #24
 8004b90:	f000 818a 	beq.w	8004ea8 <HAL_RCC_OscConfig+0x44c>
 8004b94:	69e3      	ldr	r3, [r4, #28]
 8004b96:	2b00      	cmp	r3, #0
 8004b98:	f000 820c 	beq.w	8004fb4 <HAL_RCC_OscConfig+0x558>
 8004b9c:	4b5e      	ldr	r3, [pc, #376]	; (8004d18 <HAL_RCC_OscConfig+0x2bc>)
 8004b9e:	681a      	ldr	r2, [r3, #0]
 8004ba0:	461d      	mov	r5, r3
 8004ba2:	f042 0280 	orr.w	r2, r2, #128	; 0x80
 8004ba6:	601a      	str	r2, [r3, #0]
 8004ba8:	f7fc fc7e 	bl	80014a8 <HAL_GetTick>
 8004bac:	4606      	mov	r6, r0
 8004bae:	e005      	b.n	8004bbc <HAL_RCC_OscConfig+0x160>
 8004bb0:	f7fc fc7a 	bl	80014a8 <HAL_GetTick>
 8004bb4:	1b80      	subs	r0, r0, r6
 8004bb6:	2802      	cmp	r0, #2
 8004bb8:	f200 8184 	bhi.w	8004ec4 <HAL_RCC_OscConfig+0x468>
 8004bbc:	682b      	ldr	r3, [r5, #0]
 8004bbe:	05db      	lsls	r3, r3, #23
 8004bc0:	d5f6      	bpl.n	8004bb0 <HAL_RCC_OscConfig+0x154>
 8004bc2:	f7fc fc89 	bl	80014d8 <HAL_GetREVID>
 8004bc6:	f241 0303 	movw	r3, #4099	; 0x1003
 8004bca:	4298      	cmp	r0, r3
 8004bcc:	f200 826d 	bhi.w	80050aa <HAL_RCC_OscConfig+0x64e>
 8004bd0:	686b      	ldr	r3, [r5, #4]
 8004bd2:	6a22      	ldr	r2, [r4, #32]
 8004bd4:	f023 43f8 	bic.w	r3, r3, #2080374784	; 0x7c000000
 8004bd8:	ea43 6382 	orr.w	r3, r3, r2, lsl #26
 8004bdc:	606b      	str	r3, [r5, #4]
 8004bde:	6823      	ldr	r3, [r4, #0]
 8004be0:	071d      	lsls	r5, r3, #28
 8004be2:	d51a      	bpl.n	8004c1a <HAL_RCC_OscConfig+0x1be>
 8004be4:	6963      	ldr	r3, [r4, #20]
 8004be6:	2b01      	cmp	r3, #1
 8004be8:	f200 813d 	bhi.w	8004e66 <HAL_RCC_OscConfig+0x40a>
 8004bec:	2b00      	cmp	r3, #0
 8004bee:	f000 818b 	beq.w	8004f08 <HAL_RCC_OscConfig+0x4ac>
 8004bf2:	4b49      	ldr	r3, [pc, #292]	; (8004d18 <HAL_RCC_OscConfig+0x2bc>)
 8004bf4:	6f5a      	ldr	r2, [r3, #116]	; 0x74
 8004bf6:	461d      	mov	r5, r3
 8004bf8:	f042 0201 	orr.w	r2, r2, #1
 8004bfc:	675a      	str	r2, [r3, #116]	; 0x74
 8004bfe:	f7fc fc53 	bl	80014a8 <HAL_GetTick>
 8004c02:	4606      	mov	r6, r0
 8004c04:	e005      	b.n	8004c12 <HAL_RCC_OscConfig+0x1b6>
 8004c06:	f7fc fc4f 	bl	80014a8 <HAL_GetTick>
 8004c0a:	1b80      	subs	r0, r0, r6
 8004c0c:	2802      	cmp	r0, #2
 8004c0e:	f200 8159 	bhi.w	8004ec4 <HAL_RCC_OscConfig+0x468>
 8004c12:	6f6b      	ldr	r3, [r5, #116]	; 0x74
 8004c14:	0798      	lsls	r0, r3, #30
 8004c16:	d5f6      	bpl.n	8004c06 <HAL_RCC_OscConfig+0x1aa>
 8004c18:	6823      	ldr	r3, [r4, #0]
 8004c1a:	069a      	lsls	r2, r3, #26
 8004c1c:	f100 8104 	bmi.w	8004e28 <HAL_RCC_OscConfig+0x3cc>
 8004c20:	0759      	lsls	r1, r3, #29
 8004c22:	d53b      	bpl.n	8004c9c <HAL_RCC_OscConfig+0x240>
 8004c24:	68a3      	ldr	r3, [r4, #8]
 8004c26:	2b01      	cmp	r3, #1
 8004c28:	d902      	bls.n	8004c30 <HAL_RCC_OscConfig+0x1d4>
 8004c2a:	2b05      	cmp	r3, #5
 8004c2c:	f040 81f4 	bne.w	8005018 <HAL_RCC_OscConfig+0x5bc>
 8004c30:	4b3c      	ldr	r3, [pc, #240]	; (8004d24 <HAL_RCC_OscConfig+0x2c8>)
 8004c32:	681a      	ldr	r2, [r3, #0]
 8004c34:	461d      	mov	r5, r3
 8004c36:	f442 7280 	orr.w	r2, r2, #256	; 0x100
 8004c3a:	601a      	str	r2, [r3, #0]
 8004c3c:	f7fc fc34 	bl	80014a8 <HAL_GetTick>
 8004c40:	4606      	mov	r6, r0
 8004c42:	e005      	b.n	8004c50 <HAL_RCC_OscConfig+0x1f4>
 8004c44:	f7fc fc30 	bl	80014a8 <HAL_GetTick>
 8004c48:	1b80      	subs	r0, r0, r6
 8004c4a:	2864      	cmp	r0, #100	; 0x64
 8004c4c:	f200 813a 	bhi.w	8004ec4 <HAL_RCC_OscConfig+0x468>
 8004c50:	682b      	ldr	r3, [r5, #0]
 8004c52:	05da      	lsls	r2, r3, #23
 8004c54:	d5f6      	bpl.n	8004c44 <HAL_RCC_OscConfig+0x1e8>
 8004c56:	68a3      	ldr	r3, [r4, #8]
 8004c58:	2b01      	cmp	r3, #1
 8004c5a:	f000 8220 	beq.w	800509e <HAL_RCC_OscConfig+0x642>
 8004c5e:	2b00      	cmp	r3, #0
 8004c60:	f000 81f0 	beq.w	8005044 <HAL_RCC_OscConfig+0x5e8>
 8004c64:	2b05      	cmp	r3, #5
 8004c66:	4b2c      	ldr	r3, [pc, #176]	; (8004d18 <HAL_RCC_OscConfig+0x2bc>)
 8004c68:	6f1a      	ldr	r2, [r3, #112]	; 0x70
 8004c6a:	f000 8251 	beq.w	8005110 <HAL_RCC_OscConfig+0x6b4>
 8004c6e:	f022 0201 	bic.w	r2, r2, #1
 8004c72:	671a      	str	r2, [r3, #112]	; 0x70
 8004c74:	6f1a      	ldr	r2, [r3, #112]	; 0x70
 8004c76:	f022 0204 	bic.w	r2, r2, #4
 8004c7a:	671a      	str	r2, [r3, #112]	; 0x70
 8004c7c:	f7fc fc14 	bl	80014a8 <HAL_GetTick>
 8004c80:	4d25      	ldr	r5, [pc, #148]	; (8004d18 <HAL_RCC_OscConfig+0x2bc>)
 8004c82:	4607      	mov	r7, r0
 8004c84:	f241 3688 	movw	r6, #5000	; 0x1388
 8004c88:	e005      	b.n	8004c96 <HAL_RCC_OscConfig+0x23a>
 8004c8a:	f7fc fc0d 	bl	80014a8 <HAL_GetTick>
 8004c8e:	1bc0      	subs	r0, r0, r7
 8004c90:	42b0      	cmp	r0, r6
 8004c92:	f200 8117 	bhi.w	8004ec4 <HAL_RCC_OscConfig+0x468>
 8004c96:	6f2b      	ldr	r3, [r5, #112]	; 0x70
 8004c98:	079b      	lsls	r3, r3, #30
 8004c9a:	d5f6      	bpl.n	8004c8a <HAL_RCC_OscConfig+0x22e>
 8004c9c:	6a63      	ldr	r3, [r4, #36]	; 0x24
 8004c9e:	2b02      	cmp	r3, #2
 8004ca0:	f200 81b3 	bhi.w	800500a <HAL_RCC_OscConfig+0x5ae>
 8004ca4:	2b00      	cmp	r3, #0
 8004ca6:	f000 809f 	beq.w	8004de8 <HAL_RCC_OscConfig+0x38c>
 8004caa:	491b      	ldr	r1, [pc, #108]	; (8004d18 <HAL_RCC_OscConfig+0x2bc>)
 8004cac:	690a      	ldr	r2, [r1, #16]
 8004cae:	f002 0238 	and.w	r2, r2, #56	; 0x38
 8004cb2:	2a18      	cmp	r2, #24
 8004cb4:	f000 8104 	beq.w	8004ec0 <HAL_RCC_OscConfig+0x464>
 8004cb8:	2b02      	cmp	r3, #2
 8004cba:	f040 81dd 	bne.w	8005078 <HAL_RCC_OscConfig+0x61c>
 8004cbe:	6aa3      	ldr	r3, [r4, #40]	; 0x28
 8004cc0:	2b03      	cmp	r3, #3
 8004cc2:	f200 821f 	bhi.w	8005104 <HAL_RCC_OscConfig+0x6a8>
 8004cc6:	6ae3      	ldr	r3, [r4, #44]	; 0x2c
 8004cc8:	3b01      	subs	r3, #1
 8004cca:	2b3e      	cmp	r3, #62	; 0x3e
 8004ccc:	f200 81fc 	bhi.w	80050c8 <HAL_RCC_OscConfig+0x66c>
 8004cd0:	6b23      	ldr	r3, [r4, #48]	; 0x30
 8004cd2:	3b04      	subs	r3, #4
 8004cd4:	f5b3 7ffe 	cmp.w	r3, #508	; 0x1fc
 8004cd8:	f200 81f0 	bhi.w	80050bc <HAL_RCC_OscConfig+0x660>
 8004cdc:	6b63      	ldr	r3, [r4, #52]	; 0x34
 8004cde:	3b01      	subs	r3, #1
 8004ce0:	2b7f      	cmp	r3, #127	; 0x7f
 8004ce2:	f200 8209 	bhi.w	80050f8 <HAL_RCC_OscConfig+0x69c>
 8004ce6:	6ba3      	ldr	r3, [r4, #56]	; 0x38
 8004ce8:	3b01      	subs	r3, #1
 8004cea:	2b7f      	cmp	r3, #127	; 0x7f
 8004cec:	f200 81fe 	bhi.w	80050ec <HAL_RCC_OscConfig+0x690>
 8004cf0:	6be3      	ldr	r3, [r4, #60]	; 0x3c
 8004cf2:	3b01      	subs	r3, #1
 8004cf4:	2b7f      	cmp	r3, #127	; 0x7f
 8004cf6:	f200 81f3 	bhi.w	80050e0 <HAL_RCC_OscConfig+0x684>
 8004cfa:	6ca3      	ldr	r3, [r4, #72]	; 0x48
 8004cfc:	f5b3 5f00 	cmp.w	r3, #8192	; 0x2000
 8004d00:	f080 81e8 	bcs.w	80050d4 <HAL_RCC_OscConfig+0x678>
 8004d04:	4b04      	ldr	r3, [pc, #16]	; (8004d18 <HAL_RCC_OscConfig+0x2bc>)
 8004d06:	681a      	ldr	r2, [r3, #0]
 8004d08:	461d      	mov	r5, r3
 8004d0a:	f022 7280 	bic.w	r2, r2, #16777216	; 0x1000000
 8004d0e:	601a      	str	r2, [r3, #0]
 8004d10:	f7fc fbca 	bl	80014a8 <HAL_GetTick>
 8004d14:	4606      	mov	r6, r0
 8004d16:	e00d      	b.n	8004d34 <HAL_RCC_OscConfig+0x2d8>
 8004d18:	58024400 	.word	0x58024400
 8004d1c:	02020203 	.word	0x02020203
 8004d20:	0800d148 	.word	0x0800d148
 8004d24:	58024800 	.word	0x58024800
 8004d28:	f7fc fbbe 	bl	80014a8 <HAL_GetTick>
 8004d2c:	1b80      	subs	r0, r0, r6
 8004d2e:	2802      	cmp	r0, #2
 8004d30:	f200 80c8 	bhi.w	8004ec4 <HAL_RCC_OscConfig+0x468>
 8004d34:	682b      	ldr	r3, [r5, #0]
 8004d36:	0199      	lsls	r1, r3, #6
 8004d38:	d4f6      	bmi.n	8004d28 <HAL_RCC_OscConfig+0x2cc>
 8004d3a:	6aaa      	ldr	r2, [r5, #40]	; 0x28
 8004d3c:	4bab      	ldr	r3, [pc, #684]	; (8004fec <HAL_RCC_OscConfig+0x590>)
 8004d3e:	6aa0      	ldr	r0, [r4, #40]	; 0x28
 8004d40:	4013      	ands	r3, r2
 8004d42:	6ae2      	ldr	r2, [r4, #44]	; 0x2c
 8004d44:	49aa      	ldr	r1, [pc, #680]	; (8004ff0 <HAL_RCC_OscConfig+0x594>)
 8004d46:	4303      	orrs	r3, r0
 8004d48:	4eaa      	ldr	r6, [pc, #680]	; (8004ff4 <HAL_RCC_OscConfig+0x598>)
 8004d4a:	ea43 1302 	orr.w	r3, r3, r2, lsl #4
 8004d4e:	62ab      	str	r3, [r5, #40]	; 0x28
 8004d50:	6b27      	ldr	r7, [r4, #48]	; 0x30
 8004d52:	e9d4 320d 	ldrd	r3, r2, [r4, #52]	; 0x34
 8004d56:	3f01      	subs	r7, #1
 8004d58:	1e50      	subs	r0, r2, #1
 8004d5a:	3b01      	subs	r3, #1
 8004d5c:	6be2      	ldr	r2, [r4, #60]	; 0x3c
 8004d5e:	f3c7 0708 	ubfx	r7, r7, #0, #9
 8004d62:	025b      	lsls	r3, r3, #9
 8004d64:	0400      	lsls	r0, r0, #16
 8004d66:	3a01      	subs	r2, #1
 8004d68:	b29b      	uxth	r3, r3
 8004d6a:	f400 00fe 	and.w	r0, r0, #8323072	; 0x7f0000
 8004d6e:	0612      	lsls	r2, r2, #24
 8004d70:	4303      	orrs	r3, r0
 8004d72:	f002 42fe 	and.w	r2, r2, #2130706432	; 0x7f000000
 8004d76:	433b      	orrs	r3, r7
 8004d78:	4313      	orrs	r3, r2
 8004d7a:	632b      	str	r3, [r5, #48]	; 0x30
 8004d7c:	6aeb      	ldr	r3, [r5, #44]	; 0x2c
 8004d7e:	f023 0301 	bic.w	r3, r3, #1
 8004d82:	62eb      	str	r3, [r5, #44]	; 0x2c
 8004d84:	6b6a      	ldr	r2, [r5, #52]	; 0x34
 8004d86:	6ca3      	ldr	r3, [r4, #72]	; 0x48
 8004d88:	4011      	ands	r1, r2
 8004d8a:	ea41 01c3 	orr.w	r1, r1, r3, lsl #3
 8004d8e:	6369      	str	r1, [r5, #52]	; 0x34
 8004d90:	6aeb      	ldr	r3, [r5, #44]	; 0x2c
 8004d92:	6c22      	ldr	r2, [r4, #64]	; 0x40
 8004d94:	f023 030c 	bic.w	r3, r3, #12
 8004d98:	4313      	orrs	r3, r2
 8004d9a:	62eb      	str	r3, [r5, #44]	; 0x2c
 8004d9c:	6aeb      	ldr	r3, [r5, #44]	; 0x2c
 8004d9e:	6c62      	ldr	r2, [r4, #68]	; 0x44
 8004da0:	f023 0302 	bic.w	r3, r3, #2
 8004da4:	4313      	orrs	r3, r2
 8004da6:	62eb      	str	r3, [r5, #44]	; 0x2c
 8004da8:	6aeb      	ldr	r3, [r5, #44]	; 0x2c
 8004daa:	f443 3380 	orr.w	r3, r3, #65536	; 0x10000
 8004dae:	62eb      	str	r3, [r5, #44]	; 0x2c
 8004db0:	6aeb      	ldr	r3, [r5, #44]	; 0x2c
 8004db2:	f443 3300 	orr.w	r3, r3, #131072	; 0x20000
 8004db6:	62eb      	str	r3, [r5, #44]	; 0x2c
 8004db8:	6aeb      	ldr	r3, [r5, #44]	; 0x2c
 8004dba:	f443 2380 	orr.w	r3, r3, #262144	; 0x40000
 8004dbe:	62eb      	str	r3, [r5, #44]	; 0x2c
 8004dc0:	6aeb      	ldr	r3, [r5, #44]	; 0x2c
 8004dc2:	f043 0301 	orr.w	r3, r3, #1
 8004dc6:	62eb      	str	r3, [r5, #44]	; 0x2c
 8004dc8:	682b      	ldr	r3, [r5, #0]
 8004dca:	f043 7380 	orr.w	r3, r3, #16777216	; 0x1000000
 8004dce:	602b      	str	r3, [r5, #0]
 8004dd0:	f7fc fb6a 	bl	80014a8 <HAL_GetTick>
 8004dd4:	4604      	mov	r4, r0
 8004dd6:	e004      	b.n	8004de2 <HAL_RCC_OscConfig+0x386>
 8004dd8:	f7fc fb66 	bl	80014a8 <HAL_GetTick>
 8004ddc:	1b00      	subs	r0, r0, r4
 8004dde:	2802      	cmp	r0, #2
 8004de0:	d870      	bhi.n	8004ec4 <HAL_RCC_OscConfig+0x468>
 8004de2:	6833      	ldr	r3, [r6, #0]
 8004de4:	019a      	lsls	r2, r3, #6
 8004de6:	d5f7      	bpl.n	8004dd8 <HAL_RCC_OscConfig+0x37c>
 8004de8:	2000      	movs	r0, #0
 8004dea:	bdf8      	pop	{r3, r4, r5, r6, r7, pc}
 8004dec:	0791      	lsls	r1, r2, #30
 8004dee:	f47f ae94 	bne.w	8004b1a <HAL_RCC_OscConfig+0xbe>
 8004df2:	4b80      	ldr	r3, [pc, #512]	; (8004ff4 <HAL_RCC_OscConfig+0x598>)
 8004df4:	68e1      	ldr	r1, [r4, #12]
 8004df6:	681b      	ldr	r3, [r3, #0]
 8004df8:	075a      	lsls	r2, r3, #29
 8004dfa:	d501      	bpl.n	8004e00 <HAL_RCC_OscConfig+0x3a4>
 8004dfc:	2900      	cmp	r1, #0
 8004dfe:	d05f      	beq.n	8004ec0 <HAL_RCC_OscConfig+0x464>
 8004e00:	4a7c      	ldr	r2, [pc, #496]	; (8004ff4 <HAL_RCC_OscConfig+0x598>)
 8004e02:	6813      	ldr	r3, [r2, #0]
 8004e04:	4615      	mov	r5, r2
 8004e06:	f023 0319 	bic.w	r3, r3, #25
 8004e0a:	430b      	orrs	r3, r1
 8004e0c:	6013      	str	r3, [r2, #0]
 8004e0e:	f7fc fb4b 	bl	80014a8 <HAL_GetTick>
 8004e12:	4606      	mov	r6, r0
 8004e14:	e004      	b.n	8004e20 <HAL_RCC_OscConfig+0x3c4>
 8004e16:	f7fc fb47 	bl	80014a8 <HAL_GetTick>
 8004e1a:	1b80      	subs	r0, r0, r6
 8004e1c:	2802      	cmp	r0, #2
 8004e1e:	d851      	bhi.n	8004ec4 <HAL_RCC_OscConfig+0x468>
 8004e20:	682b      	ldr	r3, [r5, #0]
 8004e22:	075b      	lsls	r3, r3, #29
 8004e24:	d5f7      	bpl.n	8004e16 <HAL_RCC_OscConfig+0x3ba>
 8004e26:	e690      	b.n	8004b4a <HAL_RCC_OscConfig+0xee>
 8004e28:	69a3      	ldr	r3, [r4, #24]
 8004e2a:	2b01      	cmp	r3, #1
 8004e2c:	d835      	bhi.n	8004e9a <HAL_RCC_OscConfig+0x43e>
 8004e2e:	2b00      	cmp	r3, #0
 8004e30:	d07d      	beq.n	8004f2e <HAL_RCC_OscConfig+0x4d2>
 8004e32:	4b70      	ldr	r3, [pc, #448]	; (8004ff4 <HAL_RCC_OscConfig+0x598>)
 8004e34:	681a      	ldr	r2, [r3, #0]
 8004e36:	461d      	mov	r5, r3
 8004e38:	f442 5280 	orr.w	r2, r2, #4096	; 0x1000
 8004e3c:	601a      	str	r2, [r3, #0]
 8004e3e:	f7fc fb33 	bl	80014a8 <HAL_GetTick>
 8004e42:	4606      	mov	r6, r0
 8004e44:	e004      	b.n	8004e50 <HAL_RCC_OscConfig+0x3f4>
 8004e46:	f7fc fb2f 	bl	80014a8 <HAL_GetTick>
 8004e4a:	1b80      	subs	r0, r0, r6
 8004e4c:	2802      	cmp	r0, #2
 8004e4e:	d839      	bhi.n	8004ec4 <HAL_RCC_OscConfig+0x468>
 8004e50:	682b      	ldr	r3, [r5, #0]
 8004e52:	049f      	lsls	r7, r3, #18
 8004e54:	d5f7      	bpl.n	8004e46 <HAL_RCC_OscConfig+0x3ea>
 8004e56:	6823      	ldr	r3, [r4, #0]
 8004e58:	e6e2      	b.n	8004c20 <HAL_RCC_OscConfig+0x1c4>
 8004e5a:	f240 1175 	movw	r1, #373	; 0x175
 8004e5e:	4866      	ldr	r0, [pc, #408]	; (8004ff8 <HAL_RCC_OscConfig+0x59c>)
 8004e60:	f7fc f81e 	bl	8000ea0 <assert_failed>
 8004e64:	e610      	b.n	8004a88 <HAL_RCC_OscConfig+0x2c>
 8004e66:	f44f 710f 	mov.w	r1, #572	; 0x23c
 8004e6a:	4863      	ldr	r0, [pc, #396]	; (8004ff8 <HAL_RCC_OscConfig+0x59c>)
 8004e6c:	f7fc f818 	bl	8000ea0 <assert_failed>
 8004e70:	6963      	ldr	r3, [r4, #20]
 8004e72:	e6bb      	b.n	8004bec <HAL_RCC_OscConfig+0x190>
 8004e74:	4a5f      	ldr	r2, [pc, #380]	; (8004ff4 <HAL_RCC_OscConfig+0x598>)
 8004e76:	6813      	ldr	r3, [r2, #0]
 8004e78:	f443 3380 	orr.w	r3, r3, #65536	; 0x10000
 8004e7c:	6013      	str	r3, [r2, #0]
 8004e7e:	f7fc fb13 	bl	80014a8 <HAL_GetTick>
 8004e82:	4d5c      	ldr	r5, [pc, #368]	; (8004ff4 <HAL_RCC_OscConfig+0x598>)
 8004e84:	4606      	mov	r6, r0
 8004e86:	e004      	b.n	8004e92 <HAL_RCC_OscConfig+0x436>
 8004e88:	f7fc fb0e 	bl	80014a8 <HAL_GetTick>
 8004e8c:	1b80      	subs	r0, r0, r6
 8004e8e:	2864      	cmp	r0, #100	; 0x64
 8004e90:	d818      	bhi.n	8004ec4 <HAL_RCC_OscConfig+0x468>
 8004e92:	682b      	ldr	r3, [r5, #0]
 8004e94:	039b      	lsls	r3, r3, #14
 8004e96:	d5f7      	bpl.n	8004e88 <HAL_RCC_OscConfig+0x42c>
 8004e98:	e621      	b.n	8004ade <HAL_RCC_OscConfig+0x82>
 8004e9a:	f240 2167 	movw	r1, #615	; 0x267
 8004e9e:	4856      	ldr	r0, [pc, #344]	; (8004ff8 <HAL_RCC_OscConfig+0x59c>)
 8004ea0:	f7fb fffe 	bl	8000ea0 <assert_failed>
 8004ea4:	69a3      	ldr	r3, [r4, #24]
 8004ea6:	e7c2      	b.n	8004e2e <HAL_RCC_OscConfig+0x3d2>
 8004ea8:	f002 0203 	and.w	r2, r2, #3
 8004eac:	2a01      	cmp	r2, #1
 8004eae:	f47f ae71 	bne.w	8004b94 <HAL_RCC_OscConfig+0x138>
 8004eb2:	4b50      	ldr	r3, [pc, #320]	; (8004ff4 <HAL_RCC_OscConfig+0x598>)
 8004eb4:	681b      	ldr	r3, [r3, #0]
 8004eb6:	05da      	lsls	r2, r3, #23
 8004eb8:	d560      	bpl.n	8004f7c <HAL_RCC_OscConfig+0x520>
 8004eba:	69e3      	ldr	r3, [r4, #28]
 8004ebc:	2b80      	cmp	r3, #128	; 0x80
 8004ebe:	d05d      	beq.n	8004f7c <HAL_RCC_OscConfig+0x520>
 8004ec0:	2001      	movs	r0, #1
 8004ec2:	bdf8      	pop	{r3, r4, r5, r6, r7, pc}
 8004ec4:	2003      	movs	r0, #3
 8004ec6:	bdf8      	pop	{r3, r4, r5, r6, r7, pc}
 8004ec8:	f44f 71b8 	mov.w	r1, #368	; 0x170
 8004ecc:	484a      	ldr	r0, [pc, #296]	; (8004ff8 <HAL_RCC_OscConfig+0x59c>)
 8004ece:	f7fb ffe7 	bl	8000ea0 <assert_failed>
 8004ed2:	6823      	ldr	r3, [r4, #0]
 8004ed4:	e5ce      	b.n	8004a74 <HAL_RCC_OscConfig+0x18>
 8004ed6:	4b47      	ldr	r3, [pc, #284]	; (8004ff4 <HAL_RCC_OscConfig+0x598>)
 8004ed8:	681a      	ldr	r2, [r3, #0]
 8004eda:	461d      	mov	r5, r3
 8004edc:	f422 3280 	bic.w	r2, r2, #65536	; 0x10000
 8004ee0:	601a      	str	r2, [r3, #0]
 8004ee2:	681a      	ldr	r2, [r3, #0]
 8004ee4:	f422 2280 	bic.w	r2, r2, #262144	; 0x40000
 8004ee8:	601a      	str	r2, [r3, #0]
 8004eea:	f7fc fadd 	bl	80014a8 <HAL_GetTick>
 8004eee:	4606      	mov	r6, r0
 8004ef0:	e004      	b.n	8004efc <HAL_RCC_OscConfig+0x4a0>
 8004ef2:	f7fc fad9 	bl	80014a8 <HAL_GetTick>
 8004ef6:	1b80      	subs	r0, r0, r6
 8004ef8:	2864      	cmp	r0, #100	; 0x64
 8004efa:	d8e3      	bhi.n	8004ec4 <HAL_RCC_OscConfig+0x468>
 8004efc:	682b      	ldr	r3, [r5, #0]
 8004efe:	039f      	lsls	r7, r3, #14
 8004f00:	d4f7      	bmi.n	8004ef2 <HAL_RCC_OscConfig+0x496>
 8004f02:	e5ec      	b.n	8004ade <HAL_RCC_OscConfig+0x82>
 8004f04:	2001      	movs	r0, #1
 8004f06:	4770      	bx	lr
 8004f08:	4b3a      	ldr	r3, [pc, #232]	; (8004ff4 <HAL_RCC_OscConfig+0x598>)
 8004f0a:	6f5a      	ldr	r2, [r3, #116]	; 0x74
 8004f0c:	461d      	mov	r5, r3
 8004f0e:	f022 0201 	bic.w	r2, r2, #1
 8004f12:	675a      	str	r2, [r3, #116]	; 0x74
 8004f14:	f7fc fac8 	bl	80014a8 <HAL_GetTick>
 8004f18:	4606      	mov	r6, r0
 8004f1a:	e004      	b.n	8004f26 <HAL_RCC_OscConfig+0x4ca>
 8004f1c:	f7fc fac4 	bl	80014a8 <HAL_GetTick>
 8004f20:	1b80      	subs	r0, r0, r6
 8004f22:	2802      	cmp	r0, #2
 8004f24:	d8ce      	bhi.n	8004ec4 <HAL_RCC_OscConfig+0x468>
 8004f26:	6f6b      	ldr	r3, [r5, #116]	; 0x74
 8004f28:	0799      	lsls	r1, r3, #30
 8004f2a:	d4f7      	bmi.n	8004f1c <HAL_RCC_OscConfig+0x4c0>
 8004f2c:	e674      	b.n	8004c18 <HAL_RCC_OscConfig+0x1bc>
 8004f2e:	4b31      	ldr	r3, [pc, #196]	; (8004ff4 <HAL_RCC_OscConfig+0x598>)
 8004f30:	681a      	ldr	r2, [r3, #0]
 8004f32:	461d      	mov	r5, r3
 8004f34:	f422 5280 	bic.w	r2, r2, #4096	; 0x1000
 8004f38:	601a      	str	r2, [r3, #0]
 8004f3a:	f7fc fab5 	bl	80014a8 <HAL_GetTick>
 8004f3e:	4606      	mov	r6, r0
 8004f40:	e004      	b.n	8004f4c <HAL_RCC_OscConfig+0x4f0>
 8004f42:	f7fc fab1 	bl	80014a8 <HAL_GetTick>
 8004f46:	1b80      	subs	r0, r0, r6
 8004f48:	2802      	cmp	r0, #2
 8004f4a:	d8bb      	bhi.n	8004ec4 <HAL_RCC_OscConfig+0x468>
 8004f4c:	682b      	ldr	r3, [r5, #0]
 8004f4e:	0498      	lsls	r0, r3, #18
 8004f50:	d4f7      	bmi.n	8004f42 <HAL_RCC_OscConfig+0x4e6>
 8004f52:	e780      	b.n	8004e56 <HAL_RCC_OscConfig+0x3fa>
 8004f54:	4b27      	ldr	r3, [pc, #156]	; (8004ff4 <HAL_RCC_OscConfig+0x598>)
 8004f56:	681a      	ldr	r2, [r3, #0]
 8004f58:	461d      	mov	r5, r3
 8004f5a:	f022 0201 	bic.w	r2, r2, #1
 8004f5e:	601a      	str	r2, [r3, #0]
 8004f60:	f7fc faa2 	bl	80014a8 <HAL_GetTick>
 8004f64:	4606      	mov	r6, r0
 8004f66:	e004      	b.n	8004f72 <HAL_RCC_OscConfig+0x516>
 8004f68:	f7fc fa9e 	bl	80014a8 <HAL_GetTick>
 8004f6c:	1b80      	subs	r0, r0, r6
 8004f6e:	2802      	cmp	r0, #2
 8004f70:	d8a8      	bhi.n	8004ec4 <HAL_RCC_OscConfig+0x468>
 8004f72:	682b      	ldr	r3, [r5, #0]
 8004f74:	0758      	lsls	r0, r3, #29
 8004f76:	d4f7      	bmi.n	8004f68 <HAL_RCC_OscConfig+0x50c>
 8004f78:	6823      	ldr	r3, [r4, #0]
 8004f7a:	e5f5      	b.n	8004b68 <HAL_RCC_OscConfig+0x10c>
 8004f7c:	f7fc faac 	bl	80014d8 <HAL_GetREVID>
 8004f80:	f241 0303 	movw	r3, #4099	; 0x1003
 8004f84:	4a1b      	ldr	r2, [pc, #108]	; (8004ff4 <HAL_RCC_OscConfig+0x598>)
 8004f86:	4298      	cmp	r0, r3
 8004f88:	6a21      	ldr	r1, [r4, #32]
 8004f8a:	d84b      	bhi.n	8005024 <HAL_RCC_OscConfig+0x5c8>
 8004f8c:	6853      	ldr	r3, [r2, #4]
 8004f8e:	f023 43f8 	bic.w	r3, r3, #2080374784	; 0x7c000000
 8004f92:	ea43 6381 	orr.w	r3, r3, r1, lsl #26
 8004f96:	6053      	str	r3, [r2, #4]
 8004f98:	6823      	ldr	r3, [r4, #0]
 8004f9a:	e621      	b.n	8004be0 <HAL_RCC_OscConfig+0x184>
 8004f9c:	f240 11fb 	movw	r1, #507	; 0x1fb
 8004fa0:	4815      	ldr	r0, [pc, #84]	; (8004ff8 <HAL_RCC_OscConfig+0x59c>)
 8004fa2:	f7fb ff7d 	bl	8000ea0 <assert_failed>
 8004fa6:	e5ea      	b.n	8004b7e <HAL_RCC_OscConfig+0x122>
 8004fa8:	f44f 71fd 	mov.w	r1, #506	; 0x1fa
 8004fac:	4812      	ldr	r0, [pc, #72]	; (8004ff8 <HAL_RCC_OscConfig+0x59c>)
 8004fae:	f7fb ff77 	bl	8000ea0 <assert_failed>
 8004fb2:	e5e0      	b.n	8004b76 <HAL_RCC_OscConfig+0x11a>
 8004fb4:	4b0f      	ldr	r3, [pc, #60]	; (8004ff4 <HAL_RCC_OscConfig+0x598>)
 8004fb6:	681a      	ldr	r2, [r3, #0]
 8004fb8:	461d      	mov	r5, r3
 8004fba:	f022 0280 	bic.w	r2, r2, #128	; 0x80
 8004fbe:	601a      	str	r2, [r3, #0]
 8004fc0:	f7fc fa72 	bl	80014a8 <HAL_GetTick>
 8004fc4:	4606      	mov	r6, r0
 8004fc6:	e005      	b.n	8004fd4 <HAL_RCC_OscConfig+0x578>
 8004fc8:	f7fc fa6e 	bl	80014a8 <HAL_GetTick>
 8004fcc:	1b80      	subs	r0, r0, r6
 8004fce:	2802      	cmp	r0, #2
 8004fd0:	f63f af78 	bhi.w	8004ec4 <HAL_RCC_OscConfig+0x468>
 8004fd4:	682b      	ldr	r3, [r5, #0]
 8004fd6:	05df      	lsls	r7, r3, #23
 8004fd8:	d4f6      	bmi.n	8004fc8 <HAL_RCC_OscConfig+0x56c>
 8004fda:	6823      	ldr	r3, [r4, #0]
 8004fdc:	e600      	b.n	8004be0 <HAL_RCC_OscConfig+0x184>
 8004fde:	f240 11a9 	movw	r1, #425	; 0x1a9
 8004fe2:	4805      	ldr	r0, [pc, #20]	; (8004ff8 <HAL_RCC_OscConfig+0x59c>)
 8004fe4:	f7fb ff5c 	bl	8000ea0 <assert_failed>
 8004fe8:	e585      	b.n	8004af6 <HAL_RCC_OscConfig+0x9a>
 8004fea:	bf00      	nop
 8004fec:	fffffc0c 	.word	0xfffffc0c
 8004ff0:	ffff0007 	.word	0xffff0007
 8004ff4:	58024400 	.word	0x58024400
 8004ff8:	0800d148 	.word	0x0800d148
 8004ffc:	f423 337c 	bic.w	r3, r3, #258048	; 0x3f000
 8005000:	ea43 3302 	orr.w	r3, r3, r2, lsl #12
 8005004:	606b      	str	r3, [r5, #4]
 8005006:	6823      	ldr	r3, [r4, #0]
 8005008:	e5ae      	b.n	8004b68 <HAL_RCC_OscConfig+0x10c>
 800500a:	f240 21c3 	movw	r1, #707	; 0x2c3
 800500e:	4844      	ldr	r0, [pc, #272]	; (8005120 <HAL_RCC_OscConfig+0x6c4>)
 8005010:	f7fb ff46 	bl	8000ea0 <assert_failed>
 8005014:	6a63      	ldr	r3, [r4, #36]	; 0x24
 8005016:	e645      	b.n	8004ca4 <HAL_RCC_OscConfig+0x248>
 8005018:	f240 2191 	movw	r1, #657	; 0x291
 800501c:	4840      	ldr	r0, [pc, #256]	; (8005120 <HAL_RCC_OscConfig+0x6c4>)
 800501e:	f7fb ff3f 	bl	8000ea0 <assert_failed>
 8005022:	e605      	b.n	8004c30 <HAL_RCC_OscConfig+0x1d4>
 8005024:	68d3      	ldr	r3, [r2, #12]
 8005026:	f023 537c 	bic.w	r3, r3, #1056964608	; 0x3f000000
 800502a:	ea43 6301 	orr.w	r3, r3, r1, lsl #24
 800502e:	60d3      	str	r3, [r2, #12]
 8005030:	6823      	ldr	r3, [r4, #0]
 8005032:	e5d5      	b.n	8004be0 <HAL_RCC_OscConfig+0x184>
 8005034:	f442 2280 	orr.w	r2, r2, #262144	; 0x40000
 8005038:	601a      	str	r2, [r3, #0]
 800503a:	681a      	ldr	r2, [r3, #0]
 800503c:	f442 3280 	orr.w	r2, r2, #65536	; 0x10000
 8005040:	601a      	str	r2, [r3, #0]
 8005042:	e71c      	b.n	8004e7e <HAL_RCC_OscConfig+0x422>
 8005044:	4b37      	ldr	r3, [pc, #220]	; (8005124 <HAL_RCC_OscConfig+0x6c8>)
 8005046:	f241 3788 	movw	r7, #5000	; 0x1388
 800504a:	6f1a      	ldr	r2, [r3, #112]	; 0x70
 800504c:	461d      	mov	r5, r3
 800504e:	f022 0201 	bic.w	r2, r2, #1
 8005052:	671a      	str	r2, [r3, #112]	; 0x70
 8005054:	6f1a      	ldr	r2, [r3, #112]	; 0x70
 8005056:	f022 0204 	bic.w	r2, r2, #4
 800505a:	671a      	str	r2, [r3, #112]	; 0x70
 800505c:	f7fc fa24 	bl	80014a8 <HAL_GetTick>
 8005060:	4606      	mov	r6, r0
 8005062:	e005      	b.n	8005070 <HAL_RCC_OscConfig+0x614>
 8005064:	f7fc fa20 	bl	80014a8 <HAL_GetTick>
 8005068:	1b80      	subs	r0, r0, r6
 800506a:	42b8      	cmp	r0, r7
 800506c:	f63f af2a 	bhi.w	8004ec4 <HAL_RCC_OscConfig+0x468>
 8005070:	6f2b      	ldr	r3, [r5, #112]	; 0x70
 8005072:	0798      	lsls	r0, r3, #30
 8005074:	d4f6      	bmi.n	8005064 <HAL_RCC_OscConfig+0x608>
 8005076:	e611      	b.n	8004c9c <HAL_RCC_OscConfig+0x240>
 8005078:	680b      	ldr	r3, [r1, #0]
 800507a:	460c      	mov	r4, r1
 800507c:	f023 7380 	bic.w	r3, r3, #16777216	; 0x1000000
 8005080:	600b      	str	r3, [r1, #0]
 8005082:	f7fc fa11 	bl	80014a8 <HAL_GetTick>
 8005086:	4605      	mov	r5, r0
 8005088:	e005      	b.n	8005096 <HAL_RCC_OscConfig+0x63a>
 800508a:	f7fc fa0d 	bl	80014a8 <HAL_GetTick>
 800508e:	1b40      	subs	r0, r0, r5
 8005090:	2802      	cmp	r0, #2
 8005092:	f63f af17 	bhi.w	8004ec4 <HAL_RCC_OscConfig+0x468>
 8005096:	6823      	ldr	r3, [r4, #0]
 8005098:	019b      	lsls	r3, r3, #6
 800509a:	d4f6      	bmi.n	800508a <HAL_RCC_OscConfig+0x62e>
 800509c:	e6a4      	b.n	8004de8 <HAL_RCC_OscConfig+0x38c>
 800509e:	4a21      	ldr	r2, [pc, #132]	; (8005124 <HAL_RCC_OscConfig+0x6c8>)
 80050a0:	6f13      	ldr	r3, [r2, #112]	; 0x70
 80050a2:	f043 0301 	orr.w	r3, r3, #1
 80050a6:	6713      	str	r3, [r2, #112]	; 0x70
 80050a8:	e5e8      	b.n	8004c7c <HAL_RCC_OscConfig+0x220>
 80050aa:	68eb      	ldr	r3, [r5, #12]
 80050ac:	6a22      	ldr	r2, [r4, #32]
 80050ae:	f023 537c 	bic.w	r3, r3, #1056964608	; 0x3f000000
 80050b2:	ea43 6302 	orr.w	r3, r3, r2, lsl #24
 80050b6:	60eb      	str	r3, [r5, #12]
 80050b8:	6823      	ldr	r3, [r4, #0]
 80050ba:	e591      	b.n	8004be0 <HAL_RCC_OscConfig+0x184>
 80050bc:	f240 21ce 	movw	r1, #718	; 0x2ce
 80050c0:	4817      	ldr	r0, [pc, #92]	; (8005120 <HAL_RCC_OscConfig+0x6c4>)
 80050c2:	f7fb feed 	bl	8000ea0 <assert_failed>
 80050c6:	e609      	b.n	8004cdc <HAL_RCC_OscConfig+0x280>
 80050c8:	f240 21cd 	movw	r1, #717	; 0x2cd
 80050cc:	4814      	ldr	r0, [pc, #80]	; (8005120 <HAL_RCC_OscConfig+0x6c4>)
 80050ce:	f7fb fee7 	bl	8000ea0 <assert_failed>
 80050d2:	e5fd      	b.n	8004cd0 <HAL_RCC_OscConfig+0x274>
 80050d4:	f240 21d2 	movw	r1, #722	; 0x2d2
 80050d8:	4811      	ldr	r0, [pc, #68]	; (8005120 <HAL_RCC_OscConfig+0x6c4>)
 80050da:	f7fb fee1 	bl	8000ea0 <assert_failed>
 80050de:	e611      	b.n	8004d04 <HAL_RCC_OscConfig+0x2a8>
 80050e0:	f240 21d1 	movw	r1, #721	; 0x2d1
 80050e4:	480e      	ldr	r0, [pc, #56]	; (8005120 <HAL_RCC_OscConfig+0x6c4>)
 80050e6:	f7fb fedb 	bl	8000ea0 <assert_failed>
 80050ea:	e606      	b.n	8004cfa <HAL_RCC_OscConfig+0x29e>
 80050ec:	f44f 7134 	mov.w	r1, #720	; 0x2d0
 80050f0:	480b      	ldr	r0, [pc, #44]	; (8005120 <HAL_RCC_OscConfig+0x6c4>)
 80050f2:	f7fb fed5 	bl	8000ea0 <assert_failed>
 80050f6:	e5fb      	b.n	8004cf0 <HAL_RCC_OscConfig+0x294>
 80050f8:	f240 21cf 	movw	r1, #719	; 0x2cf
 80050fc:	4808      	ldr	r0, [pc, #32]	; (8005120 <HAL_RCC_OscConfig+0x6c4>)
 80050fe:	f7fb fecf 	bl	8000ea0 <assert_failed>
 8005102:	e5f0      	b.n	8004ce6 <HAL_RCC_OscConfig+0x28a>
 8005104:	f44f 7133 	mov.w	r1, #716	; 0x2cc
 8005108:	4805      	ldr	r0, [pc, #20]	; (8005120 <HAL_RCC_OscConfig+0x6c4>)
 800510a:	f7fb fec9 	bl	8000ea0 <assert_failed>
 800510e:	e5da      	b.n	8004cc6 <HAL_RCC_OscConfig+0x26a>
 8005110:	f042 0204 	orr.w	r2, r2, #4
 8005114:	671a      	str	r2, [r3, #112]	; 0x70
 8005116:	6f1a      	ldr	r2, [r3, #112]	; 0x70
 8005118:	f042 0201 	orr.w	r2, r2, #1
 800511c:	671a      	str	r2, [r3, #112]	; 0x70
 800511e:	e5ad      	b.n	8004c7c <HAL_RCC_OscConfig+0x220>
 8005120:	0800d148 	.word	0x0800d148
 8005124:	58024400 	.word	0x58024400

08005128 <HAL_RCC_GetSysClockFreq>:
 8005128:	4a3e      	ldr	r2, [pc, #248]	; (8005224 <HAL_RCC_GetSysClockFreq+0xfc>)
 800512a:	6913      	ldr	r3, [r2, #16]
 800512c:	f003 0338 	and.w	r3, r3, #56	; 0x38
 8005130:	2b10      	cmp	r3, #16
 8005132:	d04f      	beq.n	80051d4 <HAL_RCC_GetSysClockFreq+0xac>
 8005134:	2b18      	cmp	r3, #24
 8005136:	d00b      	beq.n	8005150 <HAL_RCC_GetSysClockFreq+0x28>
 8005138:	b10b      	cbz	r3, 800513e <HAL_RCC_GetSysClockFreq+0x16>
 800513a:	483b      	ldr	r0, [pc, #236]	; (8005228 <HAL_RCC_GetSysClockFreq+0x100>)
 800513c:	4770      	bx	lr
 800513e:	6813      	ldr	r3, [r2, #0]
 8005140:	0699      	lsls	r1, r3, #26
 8005142:	d549      	bpl.n	80051d8 <HAL_RCC_GetSysClockFreq+0xb0>
 8005144:	6813      	ldr	r3, [r2, #0]
 8005146:	4839      	ldr	r0, [pc, #228]	; (800522c <HAL_RCC_GetSysClockFreq+0x104>)
 8005148:	f3c3 03c1 	ubfx	r3, r3, #3, #2
 800514c:	40d8      	lsrs	r0, r3
 800514e:	4770      	bx	lr
 8005150:	6a91      	ldr	r1, [r2, #40]	; 0x28
 8005152:	6a90      	ldr	r0, [r2, #40]	; 0x28
 8005154:	6ad3      	ldr	r3, [r2, #44]	; 0x2c
 8005156:	f3c0 1005 	ubfx	r0, r0, #4, #6
 800515a:	b410      	push	{r4}
 800515c:	6b54      	ldr	r4, [r2, #52]	; 0x34
 800515e:	b3b0      	cbz	r0, 80051ce <HAL_RCC_GetSysClockFreq+0xa6>
 8005160:	f3c4 04cc 	ubfx	r4, r4, #3, #13
 8005164:	f003 0301 	and.w	r3, r3, #1
 8005168:	f001 0103 	and.w	r1, r1, #3
 800516c:	ee07 0a90 	vmov	s15, r0
 8005170:	fb03 f304 	mul.w	r3, r3, r4
 8005174:	2901      	cmp	r1, #1
 8005176:	eef8 7ae7 	vcvt.f32.s32	s15, s15
 800517a:	ee07 3a10 	vmov	s14, r3
 800517e:	eeba 7ae9 	vcvt.f32.s32	s14, s14, #13
 8005182:	d002      	beq.n	800518a <HAL_RCC_GetSysClockFreq+0x62>
 8005184:	d32d      	bcc.n	80051e2 <HAL_RCC_GetSysClockFreq+0xba>
 8005186:	2902      	cmp	r1, #2
 8005188:	d028      	beq.n	80051dc <HAL_RCC_GetSysClockFreq+0xb4>
 800518a:	eddf 5a29 	vldr	s11, [pc, #164]	; 8005230 <HAL_RCC_GetSysClockFreq+0x108>
 800518e:	eec5 6aa7 	vdiv.f32	s13, s11, s15
 8005192:	6b13      	ldr	r3, [r2, #48]	; 0x30
 8005194:	f3c3 0308 	ubfx	r3, r3, #0, #9
 8005198:	ee07 3a90 	vmov	s15, r3
 800519c:	eeb7 6a00 	vmov.f32	s12, #112	; 0x3f800000  1.0
 80051a0:	eef8 7ae7 	vcvt.f32.s32	s15, s15
 80051a4:	ee37 7a87 	vadd.f32	s14, s15, s14
 80051a8:	ee37 7a06 	vadd.f32	s14, s14, s12
 80051ac:	ee27 7a26 	vmul.f32	s14, s14, s13
 80051b0:	4b1c      	ldr	r3, [pc, #112]	; (8005224 <HAL_RCC_GetSysClockFreq+0xfc>)
 80051b2:	6b1b      	ldr	r3, [r3, #48]	; 0x30
 80051b4:	f3c3 2346 	ubfx	r3, r3, #9, #7
 80051b8:	3301      	adds	r3, #1
 80051ba:	ee07 3a90 	vmov	s15, r3
 80051be:	eef8 6ae7 	vcvt.f32.s32	s13, s15
 80051c2:	eec7 7a26 	vdiv.f32	s15, s14, s13
 80051c6:	eefc 7ae7 	vcvt.u32.f32	s15, s15
 80051ca:	ee17 0a90 	vmov	r0, s15
 80051ce:	f85d 4b04 	ldr.w	r4, [sp], #4
 80051d2:	4770      	bx	lr
 80051d4:	4817      	ldr	r0, [pc, #92]	; (8005234 <HAL_RCC_GetSysClockFreq+0x10c>)
 80051d6:	4770      	bx	lr
 80051d8:	4814      	ldr	r0, [pc, #80]	; (800522c <HAL_RCC_GetSysClockFreq+0x104>)
 80051da:	4770      	bx	lr
 80051dc:	eddf 5a16 	vldr	s11, [pc, #88]	; 8005238 <HAL_RCC_GetSysClockFreq+0x110>
 80051e0:	e7d5      	b.n	800518e <HAL_RCC_GetSysClockFreq+0x66>
 80051e2:	6813      	ldr	r3, [r2, #0]
 80051e4:	069b      	lsls	r3, r3, #26
 80051e6:	d51a      	bpl.n	800521e <HAL_RCC_GetSysClockFreq+0xf6>
 80051e8:	6810      	ldr	r0, [r2, #0]
 80051ea:	eeb7 5a00 	vmov.f32	s10, #112	; 0x3f800000  1.0
 80051ee:	490f      	ldr	r1, [pc, #60]	; (800522c <HAL_RCC_GetSysClockFreq+0x104>)
 80051f0:	f3c0 00c1 	ubfx	r0, r0, #3, #2
 80051f4:	6b13      	ldr	r3, [r2, #48]	; 0x30
 80051f6:	40c1      	lsrs	r1, r0
 80051f8:	f3c3 0308 	ubfx	r3, r3, #0, #9
 80051fc:	ee06 1a90 	vmov	s13, r1
 8005200:	eef8 5ae6 	vcvt.f32.s32	s11, s13
 8005204:	ee06 3a90 	vmov	s13, r3
 8005208:	eeb8 6ae6 	vcvt.f32.s32	s12, s13
 800520c:	eec5 6aa7 	vdiv.f32	s13, s11, s15
 8005210:	ee36 7a07 	vadd.f32	s14, s12, s14
 8005214:	ee37 7a05 	vadd.f32	s14, s14, s10
 8005218:	ee26 7a87 	vmul.f32	s14, s13, s14
 800521c:	e7c8      	b.n	80051b0 <HAL_RCC_GetSysClockFreq+0x88>
 800521e:	eddf 5a07 	vldr	s11, [pc, #28]	; 800523c <HAL_RCC_GetSysClockFreq+0x114>
 8005222:	e7b4      	b.n	800518e <HAL_RCC_GetSysClockFreq+0x66>
 8005224:	58024400 	.word	0x58024400
 8005228:	003d0900 	.word	0x003d0900
 800522c:	03d09000 	.word	0x03d09000
 8005230:	4a742400 	.word	0x4a742400
 8005234:	007a1200 	.word	0x007a1200
 8005238:	4af42400 	.word	0x4af42400
 800523c:	4c742400 	.word	0x4c742400

08005240 <HAL_RCC_ClockConfig>:
 8005240:	2800      	cmp	r0, #0
 8005242:	f000 81b0 	beq.w	80055a6 <HAL_RCC_ClockConfig+0x366>
 8005246:	6803      	ldr	r3, [r0, #0]
 8005248:	3b01      	subs	r3, #1
 800524a:	2b3e      	cmp	r3, #62	; 0x3e
 800524c:	e92d 41f0 	stmdb	sp!, {r4, r5, r6, r7, r8, lr}
 8005250:	4604      	mov	r4, r0
 8005252:	460d      	mov	r5, r1
 8005254:	f200 8193 	bhi.w	800557e <HAL_RCC_ClockConfig+0x33e>
 8005258:	2d0f      	cmp	r5, #15
 800525a:	f200 8180 	bhi.w	800555e <HAL_RCC_ClockConfig+0x31e>
 800525e:	4a5c      	ldr	r2, [pc, #368]	; (80053d0 <HAL_RCC_ClockConfig+0x190>)
 8005260:	6813      	ldr	r3, [r2, #0]
 8005262:	f003 030f 	and.w	r3, r3, #15
 8005266:	42ab      	cmp	r3, r5
 8005268:	f0c0 819f 	bcc.w	80055aa <HAL_RCC_ClockConfig+0x36a>
 800526c:	6823      	ldr	r3, [r4, #0]
 800526e:	075e      	lsls	r6, r3, #29
 8005270:	d511      	bpl.n	8005296 <HAL_RCC_ClockConfig+0x56>
 8005272:	4a58      	ldr	r2, [pc, #352]	; (80053d4 <HAL_RCC_ClockConfig+0x194>)
 8005274:	6921      	ldr	r1, [r4, #16]
 8005276:	6992      	ldr	r2, [r2, #24]
 8005278:	f002 0270 	and.w	r2, r2, #112	; 0x70
 800527c:	4291      	cmp	r1, r2
 800527e:	d90a      	bls.n	8005296 <HAL_RCC_ClockConfig+0x56>
 8005280:	f021 0230 	bic.w	r2, r1, #48	; 0x30
 8005284:	2a40      	cmp	r2, #64	; 0x40
 8005286:	f040 81b4 	bne.w	80055f2 <HAL_RCC_ClockConfig+0x3b2>
 800528a:	4852      	ldr	r0, [pc, #328]	; (80053d4 <HAL_RCC_ClockConfig+0x194>)
 800528c:	6982      	ldr	r2, [r0, #24]
 800528e:	f022 0270 	bic.w	r2, r2, #112	; 0x70
 8005292:	4311      	orrs	r1, r2
 8005294:	6181      	str	r1, [r0, #24]
 8005296:	0718      	lsls	r0, r3, #28
 8005298:	d511      	bpl.n	80052be <HAL_RCC_ClockConfig+0x7e>
 800529a:	4a4e      	ldr	r2, [pc, #312]	; (80053d4 <HAL_RCC_ClockConfig+0x194>)
 800529c:	6961      	ldr	r1, [r4, #20]
 800529e:	69d2      	ldr	r2, [r2, #28]
 80052a0:	f002 0270 	and.w	r2, r2, #112	; 0x70
 80052a4:	4291      	cmp	r1, r2
 80052a6:	d90a      	bls.n	80052be <HAL_RCC_ClockConfig+0x7e>
 80052a8:	f021 0230 	bic.w	r2, r1, #48	; 0x30
 80052ac:	2a40      	cmp	r2, #64	; 0x40
 80052ae:	f040 81a8 	bne.w	8005602 <HAL_RCC_ClockConfig+0x3c2>
 80052b2:	4848      	ldr	r0, [pc, #288]	; (80053d4 <HAL_RCC_ClockConfig+0x194>)
 80052b4:	69c2      	ldr	r2, [r0, #28]
 80052b6:	f022 0270 	bic.w	r2, r2, #112	; 0x70
 80052ba:	4311      	orrs	r1, r2
 80052bc:	61c1      	str	r1, [r0, #28]
 80052be:	06d9      	lsls	r1, r3, #27
 80052c0:	d512      	bpl.n	80052e8 <HAL_RCC_ClockConfig+0xa8>
 80052c2:	4a44      	ldr	r2, [pc, #272]	; (80053d4 <HAL_RCC_ClockConfig+0x194>)
 80052c4:	69a1      	ldr	r1, [r4, #24]
 80052c6:	69d2      	ldr	r2, [r2, #28]
 80052c8:	f402 62e0 	and.w	r2, r2, #1792	; 0x700
 80052cc:	4291      	cmp	r1, r2
 80052ce:	d90b      	bls.n	80052e8 <HAL_RCC_ClockConfig+0xa8>
 80052d0:	f421 7240 	bic.w	r2, r1, #768	; 0x300
 80052d4:	f5b2 6f80 	cmp.w	r2, #1024	; 0x400
 80052d8:	f040 819b 	bne.w	8005612 <HAL_RCC_ClockConfig+0x3d2>
 80052dc:	483d      	ldr	r0, [pc, #244]	; (80053d4 <HAL_RCC_ClockConfig+0x194>)
 80052de:	69c2      	ldr	r2, [r0, #28]
 80052e0:	f422 62e0 	bic.w	r2, r2, #1792	; 0x700
 80052e4:	4311      	orrs	r1, r2
 80052e6:	61c1      	str	r1, [r0, #28]
 80052e8:	069a      	lsls	r2, r3, #26
 80052ea:	d511      	bpl.n	8005310 <HAL_RCC_ClockConfig+0xd0>
 80052ec:	4a39      	ldr	r2, [pc, #228]	; (80053d4 <HAL_RCC_ClockConfig+0x194>)
 80052ee:	69e1      	ldr	r1, [r4, #28]
 80052f0:	6a12      	ldr	r2, [r2, #32]
 80052f2:	f002 0270 	and.w	r2, r2, #112	; 0x70
 80052f6:	4291      	cmp	r1, r2
 80052f8:	d90a      	bls.n	8005310 <HAL_RCC_ClockConfig+0xd0>
 80052fa:	f021 0230 	bic.w	r2, r1, #48	; 0x30
 80052fe:	2a40      	cmp	r2, #64	; 0x40
 8005300:	f040 816f 	bne.w	80055e2 <HAL_RCC_ClockConfig+0x3a2>
 8005304:	4833      	ldr	r0, [pc, #204]	; (80053d4 <HAL_RCC_ClockConfig+0x194>)
 8005306:	6a02      	ldr	r2, [r0, #32]
 8005308:	f022 0270 	bic.w	r2, r2, #112	; 0x70
 800530c:	4311      	orrs	r1, r2
 800530e:	6201      	str	r1, [r0, #32]
 8005310:	079f      	lsls	r7, r3, #30
 8005312:	d511      	bpl.n	8005338 <HAL_RCC_ClockConfig+0xf8>
 8005314:	4a2f      	ldr	r2, [pc, #188]	; (80053d4 <HAL_RCC_ClockConfig+0x194>)
 8005316:	68e1      	ldr	r1, [r4, #12]
 8005318:	6992      	ldr	r2, [r2, #24]
 800531a:	f002 020f 	and.w	r2, r2, #15
 800531e:	4291      	cmp	r1, r2
 8005320:	d90a      	bls.n	8005338 <HAL_RCC_ClockConfig+0xf8>
 8005322:	f1a1 0208 	sub.w	r2, r1, #8
 8005326:	2a07      	cmp	r2, #7
 8005328:	f200 817b 	bhi.w	8005622 <HAL_RCC_ClockConfig+0x3e2>
 800532c:	4829      	ldr	r0, [pc, #164]	; (80053d4 <HAL_RCC_ClockConfig+0x194>)
 800532e:	6982      	ldr	r2, [r0, #24]
 8005330:	f022 020f 	bic.w	r2, r2, #15
 8005334:	4311      	orrs	r1, r2
 8005336:	6181      	str	r1, [r0, #24]
 8005338:	07de      	lsls	r6, r3, #31
 800533a:	d55b      	bpl.n	80053f4 <HAL_RCC_ClockConfig+0x1b4>
 800533c:	68a2      	ldr	r2, [r4, #8]
 800533e:	f432 6300 	bics.w	r3, r2, #2048	; 0x800
 8005342:	f422 7000 	bic.w	r0, r2, #512	; 0x200
 8005346:	f422 6180 	bic.w	r1, r2, #1024	; 0x400
 800534a:	bf14      	ite	ne
 800534c:	2301      	movne	r3, #1
 800534e:	2300      	moveq	r3, #0
 8005350:	f5b0 6f10 	cmp.w	r0, #2304	; 0x900
 8005354:	bf0c      	ite	eq
 8005356:	2300      	moveq	r3, #0
 8005358:	f003 0301 	andne.w	r3, r3, #1
 800535c:	f5b2 6f70 	cmp.w	r2, #3840	; 0xf00
 8005360:	bf0c      	ite	eq
 8005362:	2300      	moveq	r3, #0
 8005364:	f003 0301 	andne.w	r3, r3, #1
 8005368:	f5b1 6f20 	cmp.w	r1, #2560	; 0xa00
 800536c:	bf0c      	ite	eq
 800536e:	2300      	moveq	r3, #0
 8005370:	f003 0301 	andne.w	r3, r3, #1
 8005374:	b12b      	cbz	r3, 8005382 <HAL_RCC_ClockConfig+0x142>
 8005376:	f422 7280 	bic.w	r2, r2, #256	; 0x100
 800537a:	f5b2 6f40 	cmp.w	r2, #3072	; 0xc00
 800537e:	f040 8126 	bne.w	80055ce <HAL_RCC_ClockConfig+0x38e>
 8005382:	6862      	ldr	r2, [r4, #4]
 8005384:	2a03      	cmp	r2, #3
 8005386:	f200 8107 	bhi.w	8005598 <HAL_RCC_ClockConfig+0x358>
 800538a:	4912      	ldr	r1, [pc, #72]	; (80053d4 <HAL_RCC_ClockConfig+0x194>)
 800538c:	2a02      	cmp	r2, #2
 800538e:	68a0      	ldr	r0, [r4, #8]
 8005390:	698b      	ldr	r3, [r1, #24]
 8005392:	f423 6370 	bic.w	r3, r3, #3840	; 0xf00
 8005396:	ea43 0300 	orr.w	r3, r3, r0
 800539a:	618b      	str	r3, [r1, #24]
 800539c:	680b      	ldr	r3, [r1, #0]
 800539e:	f000 80f7 	beq.w	8005590 <HAL_RCC_ClockConfig+0x350>
 80053a2:	2a03      	cmp	r2, #3
 80053a4:	f000 810f 	beq.w	80055c6 <HAL_RCC_ClockConfig+0x386>
 80053a8:	2a01      	cmp	r2, #1
 80053aa:	f000 8116 	beq.w	80055da <HAL_RCC_ClockConfig+0x39a>
 80053ae:	075f      	lsls	r7, r3, #29
 80053b0:	f140 80e2 	bpl.w	8005578 <HAL_RCC_ClockConfig+0x338>
 80053b4:	4907      	ldr	r1, [pc, #28]	; (80053d4 <HAL_RCC_ClockConfig+0x194>)
 80053b6:	f241 3888 	movw	r8, #5000	; 0x1388
 80053ba:	690b      	ldr	r3, [r1, #16]
 80053bc:	460e      	mov	r6, r1
 80053be:	f023 0307 	bic.w	r3, r3, #7
 80053c2:	431a      	orrs	r2, r3
 80053c4:	610a      	str	r2, [r1, #16]
 80053c6:	f7fc f86f 	bl	80014a8 <HAL_GetTick>
 80053ca:	4607      	mov	r7, r0
 80053cc:	e00a      	b.n	80053e4 <HAL_RCC_ClockConfig+0x1a4>
 80053ce:	bf00      	nop
 80053d0:	52002000 	.word	0x52002000
 80053d4:	58024400 	.word	0x58024400
 80053d8:	f7fc f866 	bl	80014a8 <HAL_GetTick>
 80053dc:	1bc0      	subs	r0, r0, r7
 80053de:	4540      	cmp	r0, r8
 80053e0:	f200 80ef 	bhi.w	80055c2 <HAL_RCC_ClockConfig+0x382>
 80053e4:	6933      	ldr	r3, [r6, #16]
 80053e6:	6862      	ldr	r2, [r4, #4]
 80053e8:	f003 0338 	and.w	r3, r3, #56	; 0x38
 80053ec:	ebb3 0fc2 	cmp.w	r3, r2, lsl #3
 80053f0:	d1f2      	bne.n	80053d8 <HAL_RCC_ClockConfig+0x198>
 80053f2:	6823      	ldr	r3, [r4, #0]
 80053f4:	079e      	lsls	r6, r3, #30
 80053f6:	d517      	bpl.n	8005428 <HAL_RCC_ClockConfig+0x1e8>
 80053f8:	4b8e      	ldr	r3, [pc, #568]	; (8005634 <HAL_RCC_ClockConfig+0x3f4>)
 80053fa:	68e2      	ldr	r2, [r4, #12]
 80053fc:	699b      	ldr	r3, [r3, #24]
 80053fe:	f003 030f 	and.w	r3, r3, #15
 8005402:	429a      	cmp	r2, r3
 8005404:	d210      	bcs.n	8005428 <HAL_RCC_ClockConfig+0x1e8>
 8005406:	f1a2 0308 	sub.w	r3, r2, #8
 800540a:	2b06      	cmp	r3, #6
 800540c:	d906      	bls.n	800541c <HAL_RCC_ClockConfig+0x1dc>
 800540e:	b12a      	cbz	r2, 800541c <HAL_RCC_ClockConfig+0x1dc>
 8005410:	f44f 7177 	mov.w	r1, #988	; 0x3dc
 8005414:	4888      	ldr	r0, [pc, #544]	; (8005638 <HAL_RCC_ClockConfig+0x3f8>)
 8005416:	f7fb fd43 	bl	8000ea0 <assert_failed>
 800541a:	68e2      	ldr	r2, [r4, #12]
 800541c:	4985      	ldr	r1, [pc, #532]	; (8005634 <HAL_RCC_ClockConfig+0x3f4>)
 800541e:	698b      	ldr	r3, [r1, #24]
 8005420:	f023 030f 	bic.w	r3, r3, #15
 8005424:	431a      	orrs	r2, r3
 8005426:	618a      	str	r2, [r1, #24]
 8005428:	4a84      	ldr	r2, [pc, #528]	; (800563c <HAL_RCC_ClockConfig+0x3fc>)
 800542a:	6813      	ldr	r3, [r2, #0]
 800542c:	f003 030f 	and.w	r3, r3, #15
 8005430:	42ab      	cmp	r3, r5
 8005432:	d90a      	bls.n	800544a <HAL_RCC_ClockConfig+0x20a>
 8005434:	6813      	ldr	r3, [r2, #0]
 8005436:	f023 030f 	bic.w	r3, r3, #15
 800543a:	432b      	orrs	r3, r5
 800543c:	6013      	str	r3, [r2, #0]
 800543e:	6813      	ldr	r3, [r2, #0]
 8005440:	f003 030f 	and.w	r3, r3, #15
 8005444:	42ab      	cmp	r3, r5
 8005446:	f040 8097 	bne.w	8005578 <HAL_RCC_ClockConfig+0x338>
 800544a:	6823      	ldr	r3, [r4, #0]
 800544c:	0758      	lsls	r0, r3, #29
 800544e:	d51a      	bpl.n	8005486 <HAL_RCC_ClockConfig+0x246>
 8005450:	4a78      	ldr	r2, [pc, #480]	; (8005634 <HAL_RCC_ClockConfig+0x3f4>)
 8005452:	6921      	ldr	r1, [r4, #16]
 8005454:	6992      	ldr	r2, [r2, #24]
 8005456:	f002 0270 	and.w	r2, r2, #112	; 0x70
 800545a:	4291      	cmp	r1, r2
 800545c:	d213      	bcs.n	8005486 <HAL_RCC_ClockConfig+0x246>
 800545e:	2950      	cmp	r1, #80	; 0x50
 8005460:	bf18      	it	ne
 8005462:	2960      	cmpne	r1, #96	; 0x60
 8005464:	d009      	beq.n	800547a <HAL_RCC_ClockConfig+0x23a>
 8005466:	f031 0240 	bics.w	r2, r1, #64	; 0x40
 800546a:	d006      	beq.n	800547a <HAL_RCC_ClockConfig+0x23a>
 800546c:	f44f 717d 	mov.w	r1, #1012	; 0x3f4
 8005470:	4871      	ldr	r0, [pc, #452]	; (8005638 <HAL_RCC_ClockConfig+0x3f8>)
 8005472:	f7fb fd15 	bl	8000ea0 <assert_failed>
 8005476:	6921      	ldr	r1, [r4, #16]
 8005478:	6823      	ldr	r3, [r4, #0]
 800547a:	486e      	ldr	r0, [pc, #440]	; (8005634 <HAL_RCC_ClockConfig+0x3f4>)
 800547c:	6982      	ldr	r2, [r0, #24]
 800547e:	f022 0270 	bic.w	r2, r2, #112	; 0x70
 8005482:	4311      	orrs	r1, r2
 8005484:	6181      	str	r1, [r0, #24]
 8005486:	0719      	lsls	r1, r3, #28
 8005488:	d51a      	bpl.n	80054c0 <HAL_RCC_ClockConfig+0x280>
 800548a:	4a6a      	ldr	r2, [pc, #424]	; (8005634 <HAL_RCC_ClockConfig+0x3f4>)
 800548c:	6961      	ldr	r1, [r4, #20]
 800548e:	69d2      	ldr	r2, [r2, #28]
 8005490:	f002 0270 	and.w	r2, r2, #112	; 0x70
 8005494:	4291      	cmp	r1, r2
 8005496:	d213      	bcs.n	80054c0 <HAL_RCC_ClockConfig+0x280>
 8005498:	2950      	cmp	r1, #80	; 0x50
 800549a:	bf18      	it	ne
 800549c:	2960      	cmpne	r1, #96	; 0x60
 800549e:	d009      	beq.n	80054b4 <HAL_RCC_ClockConfig+0x274>
 80054a0:	f031 0240 	bics.w	r2, r1, #64	; 0x40
 80054a4:	d006      	beq.n	80054b4 <HAL_RCC_ClockConfig+0x274>
 80054a6:	f240 31fe 	movw	r1, #1022	; 0x3fe
 80054aa:	4863      	ldr	r0, [pc, #396]	; (8005638 <HAL_RCC_ClockConfig+0x3f8>)
 80054ac:	f7fb fcf8 	bl	8000ea0 <assert_failed>
 80054b0:	6961      	ldr	r1, [r4, #20]
 80054b2:	6823      	ldr	r3, [r4, #0]
 80054b4:	485f      	ldr	r0, [pc, #380]	; (8005634 <HAL_RCC_ClockConfig+0x3f4>)
 80054b6:	69c2      	ldr	r2, [r0, #28]
 80054b8:	f022 0270 	bic.w	r2, r2, #112	; 0x70
 80054bc:	4311      	orrs	r1, r2
 80054be:	61c1      	str	r1, [r0, #28]
 80054c0:	06da      	lsls	r2, r3, #27
 80054c2:	d51c      	bpl.n	80054fe <HAL_RCC_ClockConfig+0x2be>
 80054c4:	4a5b      	ldr	r2, [pc, #364]	; (8005634 <HAL_RCC_ClockConfig+0x3f4>)
 80054c6:	69a1      	ldr	r1, [r4, #24]
 80054c8:	69d2      	ldr	r2, [r2, #28]
 80054ca:	f402 62e0 	and.w	r2, r2, #1792	; 0x700
 80054ce:	4291      	cmp	r1, r2
 80054d0:	d215      	bcs.n	80054fe <HAL_RCC_ClockConfig+0x2be>
 80054d2:	f5b1 6fc0 	cmp.w	r1, #1536	; 0x600
 80054d6:	bf18      	it	ne
 80054d8:	f5b1 6fa0 	cmpne.w	r1, #1280	; 0x500
 80054dc:	d009      	beq.n	80054f2 <HAL_RCC_ClockConfig+0x2b2>
 80054de:	f431 6280 	bics.w	r2, r1, #1024	; 0x400
 80054e2:	d006      	beq.n	80054f2 <HAL_RCC_ClockConfig+0x2b2>
 80054e4:	f44f 6181 	mov.w	r1, #1032	; 0x408
 80054e8:	4853      	ldr	r0, [pc, #332]	; (8005638 <HAL_RCC_ClockConfig+0x3f8>)
 80054ea:	f7fb fcd9 	bl	8000ea0 <assert_failed>
 80054ee:	69a1      	ldr	r1, [r4, #24]
 80054f0:	6823      	ldr	r3, [r4, #0]
 80054f2:	4850      	ldr	r0, [pc, #320]	; (8005634 <HAL_RCC_ClockConfig+0x3f4>)
 80054f4:	69c2      	ldr	r2, [r0, #28]
 80054f6:	f422 62e0 	bic.w	r2, r2, #1792	; 0x700
 80054fa:	4311      	orrs	r1, r2
 80054fc:	61c1      	str	r1, [r0, #28]
 80054fe:	069b      	lsls	r3, r3, #26
 8005500:	d519      	bpl.n	8005536 <HAL_RCC_ClockConfig+0x2f6>
 8005502:	4b4c      	ldr	r3, [pc, #304]	; (8005634 <HAL_RCC_ClockConfig+0x3f4>)
 8005504:	69e2      	ldr	r2, [r4, #28]
 8005506:	6a1b      	ldr	r3, [r3, #32]
 8005508:	f003 0370 	and.w	r3, r3, #112	; 0x70
 800550c:	429a      	cmp	r2, r3
 800550e:	d212      	bcs.n	8005536 <HAL_RCC_ClockConfig+0x2f6>
 8005510:	2a50      	cmp	r2, #80	; 0x50
 8005512:	bf18      	it	ne
 8005514:	2a60      	cmpne	r2, #96	; 0x60
 8005516:	d008      	beq.n	800552a <HAL_RCC_ClockConfig+0x2ea>
 8005518:	f032 0340 	bics.w	r3, r2, #64	; 0x40
 800551c:	d005      	beq.n	800552a <HAL_RCC_ClockConfig+0x2ea>
 800551e:	f240 4112 	movw	r1, #1042	; 0x412
 8005522:	4845      	ldr	r0, [pc, #276]	; (8005638 <HAL_RCC_ClockConfig+0x3f8>)
 8005524:	f7fb fcbc 	bl	8000ea0 <assert_failed>
 8005528:	69e2      	ldr	r2, [r4, #28]
 800552a:	4942      	ldr	r1, [pc, #264]	; (8005634 <HAL_RCC_ClockConfig+0x3f4>)
 800552c:	6a0b      	ldr	r3, [r1, #32]
 800552e:	f023 0370 	bic.w	r3, r3, #112	; 0x70
 8005532:	431a      	orrs	r2, r3
 8005534:	620a      	str	r2, [r1, #32]
 8005536:	f7ff fdf7 	bl	8005128 <HAL_RCC_GetSysClockFreq>
 800553a:	4b3e      	ldr	r3, [pc, #248]	; (8005634 <HAL_RCC_ClockConfig+0x3f4>)
 800553c:	4c40      	ldr	r4, [pc, #256]	; (8005640 <HAL_RCC_ClockConfig+0x400>)
 800553e:	699b      	ldr	r3, [r3, #24]
 8005540:	4940      	ldr	r1, [pc, #256]	; (8005644 <HAL_RCC_ClockConfig+0x404>)
 8005542:	f3c3 2303 	ubfx	r3, r3, #8, #4
 8005546:	4a40      	ldr	r2, [pc, #256]	; (8005648 <HAL_RCC_ClockConfig+0x408>)
 8005548:	5ce3      	ldrb	r3, [r4, r3]
 800554a:	f003 031f 	and.w	r3, r3, #31
 800554e:	fa20 f303 	lsr.w	r3, r0, r3
 8005552:	6808      	ldr	r0, [r1, #0]
 8005554:	e8bd 41f0 	ldmia.w	sp!, {r4, r5, r6, r7, r8, lr}
 8005558:	6013      	str	r3, [r2, #0]
 800555a:	f7fb bf41 	b.w	80013e0 <HAL_InitTick>
 800555e:	f240 3153 	movw	r1, #851	; 0x353
 8005562:	4835      	ldr	r0, [pc, #212]	; (8005638 <HAL_RCC_ClockConfig+0x3f8>)
 8005564:	f7fb fc9c 	bl	8000ea0 <assert_failed>
 8005568:	4b34      	ldr	r3, [pc, #208]	; (800563c <HAL_RCC_ClockConfig+0x3fc>)
 800556a:	681a      	ldr	r2, [r3, #0]
 800556c:	6819      	ldr	r1, [r3, #0]
 800556e:	f021 010f 	bic.w	r1, r1, #15
 8005572:	430d      	orrs	r5, r1
 8005574:	601d      	str	r5, [r3, #0]
 8005576:	681b      	ldr	r3, [r3, #0]
 8005578:	2001      	movs	r0, #1
 800557a:	e8bd 81f0 	ldmia.w	sp!, {r4, r5, r6, r7, r8, pc}
 800557e:	f240 3152 	movw	r1, #850	; 0x352
 8005582:	482d      	ldr	r0, [pc, #180]	; (8005638 <HAL_RCC_ClockConfig+0x3f8>)
 8005584:	f7fb fc8c 	bl	8000ea0 <assert_failed>
 8005588:	2d0f      	cmp	r5, #15
 800558a:	f67f ae68 	bls.w	800525e <HAL_RCC_ClockConfig+0x1e>
 800558e:	e7e6      	b.n	800555e <HAL_RCC_ClockConfig+0x31e>
 8005590:	0398      	lsls	r0, r3, #14
 8005592:	f53f af0f 	bmi.w	80053b4 <HAL_RCC_ClockConfig+0x174>
 8005596:	e7ef      	b.n	8005578 <HAL_RCC_ClockConfig+0x338>
 8005598:	f44f 7168 	mov.w	r1, #928	; 0x3a0
 800559c:	4826      	ldr	r0, [pc, #152]	; (8005638 <HAL_RCC_ClockConfig+0x3f8>)
 800559e:	f7fb fc7f 	bl	8000ea0 <assert_failed>
 80055a2:	6862      	ldr	r2, [r4, #4]
 80055a4:	e6f1      	b.n	800538a <HAL_RCC_ClockConfig+0x14a>
 80055a6:	2001      	movs	r0, #1
 80055a8:	4770      	bx	lr
 80055aa:	6813      	ldr	r3, [r2, #0]
 80055ac:	f023 030f 	bic.w	r3, r3, #15
 80055b0:	432b      	orrs	r3, r5
 80055b2:	6013      	str	r3, [r2, #0]
 80055b4:	6813      	ldr	r3, [r2, #0]
 80055b6:	f003 030f 	and.w	r3, r3, #15
 80055ba:	42ab      	cmp	r3, r5
 80055bc:	f43f ae56 	beq.w	800526c <HAL_RCC_ClockConfig+0x2c>
 80055c0:	e7da      	b.n	8005578 <HAL_RCC_ClockConfig+0x338>
 80055c2:	2003      	movs	r0, #3
 80055c4:	e7d9      	b.n	800557a <HAL_RCC_ClockConfig+0x33a>
 80055c6:	0199      	lsls	r1, r3, #6
 80055c8:	f53f aef4 	bmi.w	80053b4 <HAL_RCC_ClockConfig+0x174>
 80055cc:	e7d4      	b.n	8005578 <HAL_RCC_ClockConfig+0x338>
 80055ce:	f240 319f 	movw	r1, #927	; 0x39f
 80055d2:	4819      	ldr	r0, [pc, #100]	; (8005638 <HAL_RCC_ClockConfig+0x3f8>)
 80055d4:	f7fb fc64 	bl	8000ea0 <assert_failed>
 80055d8:	e6d3      	b.n	8005382 <HAL_RCC_ClockConfig+0x142>
 80055da:	05db      	lsls	r3, r3, #23
 80055dc:	f53f aeea 	bmi.w	80053b4 <HAL_RCC_ClockConfig+0x174>
 80055e0:	e7ca      	b.n	8005578 <HAL_RCC_ClockConfig+0x338>
 80055e2:	f44f 7163 	mov.w	r1, #908	; 0x38c
 80055e6:	4814      	ldr	r0, [pc, #80]	; (8005638 <HAL_RCC_ClockConfig+0x3f8>)
 80055e8:	f7fb fc5a 	bl	8000ea0 <assert_failed>
 80055ec:	69e1      	ldr	r1, [r4, #28]
 80055ee:	6823      	ldr	r3, [r4, #0]
 80055f0:	e688      	b.n	8005304 <HAL_RCC_ClockConfig+0xc4>
 80055f2:	f240 316e 	movw	r1, #878	; 0x36e
 80055f6:	4810      	ldr	r0, [pc, #64]	; (8005638 <HAL_RCC_ClockConfig+0x3f8>)
 80055f8:	f7fb fc52 	bl	8000ea0 <assert_failed>
 80055fc:	6921      	ldr	r1, [r4, #16]
 80055fe:	6823      	ldr	r3, [r4, #0]
 8005600:	e643      	b.n	800528a <HAL_RCC_ClockConfig+0x4a>
 8005602:	f44f 715e 	mov.w	r1, #888	; 0x378
 8005606:	480c      	ldr	r0, [pc, #48]	; (8005638 <HAL_RCC_ClockConfig+0x3f8>)
 8005608:	f7fb fc4a 	bl	8000ea0 <assert_failed>
 800560c:	6961      	ldr	r1, [r4, #20]
 800560e:	6823      	ldr	r3, [r4, #0]
 8005610:	e64f      	b.n	80052b2 <HAL_RCC_ClockConfig+0x72>
 8005612:	f240 3182 	movw	r1, #898	; 0x382
 8005616:	4808      	ldr	r0, [pc, #32]	; (8005638 <HAL_RCC_ClockConfig+0x3f8>)
 8005618:	f7fb fc42 	bl	8000ea0 <assert_failed>
 800561c:	69a1      	ldr	r1, [r4, #24]
 800561e:	6823      	ldr	r3, [r4, #0]
 8005620:	e65c      	b.n	80052dc <HAL_RCC_ClockConfig+0x9c>
 8005622:	f240 3197 	movw	r1, #919	; 0x397
 8005626:	4804      	ldr	r0, [pc, #16]	; (8005638 <HAL_RCC_ClockConfig+0x3f8>)
 8005628:	f7fb fc3a 	bl	8000ea0 <assert_failed>
 800562c:	68e1      	ldr	r1, [r4, #12]
 800562e:	6823      	ldr	r3, [r4, #0]
 8005630:	e67c      	b.n	800532c <HAL_RCC_ClockConfig+0xec>
 8005632:	bf00      	nop
 8005634:	58024400 	.word	0x58024400
 8005638:	0800d148 	.word	0x0800d148
 800563c:	52002000 	.word	0x52002000
 8005640:	0800cf44 	.word	0x0800cf44
 8005644:	2400000c 	.word	0x2400000c
 8005648:	24000000 	.word	0x24000000

0800564c <HAL_RCC_GetHCLKFreq>:
 800564c:	b508      	push	{r3, lr}
 800564e:	f001 fb4f 	bl	8006cf0 <HAL_RCCEx_GetD1SysClockFreq>
 8005652:	4b06      	ldr	r3, [pc, #24]	; (800566c <HAL_RCC_GetHCLKFreq+0x20>)
 8005654:	4906      	ldr	r1, [pc, #24]	; (8005670 <HAL_RCC_GetHCLKFreq+0x24>)
 8005656:	699b      	ldr	r3, [r3, #24]
 8005658:	4a06      	ldr	r2, [pc, #24]	; (8005674 <HAL_RCC_GetHCLKFreq+0x28>)
 800565a:	f003 030f 	and.w	r3, r3, #15
 800565e:	5ccb      	ldrb	r3, [r1, r3]
 8005660:	f003 031f 	and.w	r3, r3, #31
 8005664:	40d8      	lsrs	r0, r3
 8005666:	6010      	str	r0, [r2, #0]
 8005668:	bd08      	pop	{r3, pc}
 800566a:	bf00      	nop
 800566c:	58024400 	.word	0x58024400
 8005670:	0800cf44 	.word	0x0800cf44
 8005674:	24000004 	.word	0x24000004

08005678 <HAL_RCC_GetPCLK1Freq>:
 8005678:	b510      	push	{r4, lr}
 800567a:	f001 fb39 	bl	8006cf0 <HAL_RCCEx_GetD1SysClockFreq>
 800567e:	4909      	ldr	r1, [pc, #36]	; (80056a4 <HAL_RCC_GetPCLK1Freq+0x2c>)
 8005680:	4a09      	ldr	r2, [pc, #36]	; (80056a8 <HAL_RCC_GetPCLK1Freq+0x30>)
 8005682:	698b      	ldr	r3, [r1, #24]
 8005684:	4c09      	ldr	r4, [pc, #36]	; (80056ac <HAL_RCC_GetPCLK1Freq+0x34>)
 8005686:	f003 030f 	and.w	r3, r3, #15
 800568a:	5cd3      	ldrb	r3, [r2, r3]
 800568c:	f003 031f 	and.w	r3, r3, #31
 8005690:	40d8      	lsrs	r0, r3
 8005692:	6020      	str	r0, [r4, #0]
 8005694:	69cb      	ldr	r3, [r1, #28]
 8005696:	f3c3 1302 	ubfx	r3, r3, #4, #3
 800569a:	5cd3      	ldrb	r3, [r2, r3]
 800569c:	f003 031f 	and.w	r3, r3, #31
 80056a0:	40d8      	lsrs	r0, r3
 80056a2:	bd10      	pop	{r4, pc}
 80056a4:	58024400 	.word	0x58024400
 80056a8:	0800cf44 	.word	0x0800cf44
 80056ac:	24000004 	.word	0x24000004

080056b0 <HAL_RCC_GetPCLK2Freq>:
 80056b0:	b510      	push	{r4, lr}
 80056b2:	f001 fb1d 	bl	8006cf0 <HAL_RCCEx_GetD1SysClockFreq>
 80056b6:	4909      	ldr	r1, [pc, #36]	; (80056dc <HAL_RCC_GetPCLK2Freq+0x2c>)
 80056b8:	4a09      	ldr	r2, [pc, #36]	; (80056e0 <HAL_RCC_GetPCLK2Freq+0x30>)
 80056ba:	698b      	ldr	r3, [r1, #24]
 80056bc:	4c09      	ldr	r4, [pc, #36]	; (80056e4 <HAL_RCC_GetPCLK2Freq+0x34>)
 80056be:	f003 030f 	and.w	r3, r3, #15
 80056c2:	5cd3      	ldrb	r3, [r2, r3]
 80056c4:	f003 031f 	and.w	r3, r3, #31
 80056c8:	40d8      	lsrs	r0, r3
 80056ca:	6020      	str	r0, [r4, #0]
 80056cc:	69cb      	ldr	r3, [r1, #28]
 80056ce:	f3c3 2302 	ubfx	r3, r3, #8, #3
 80056d2:	5cd3      	ldrb	r3, [r2, r3]
 80056d4:	f003 031f 	and.w	r3, r3, #31
 80056d8:	40d8      	lsrs	r0, r3
 80056da:	bd10      	pop	{r4, pc}
 80056dc:	58024400 	.word	0x58024400
 80056e0:	0800cf44 	.word	0x0800cf44
 80056e4:	24000004 	.word	0x24000004

080056e8 <RCCEx_PLL2_Config>:
 80056e8:	b5f8      	push	{r3, r4, r5, r6, r7, lr}
 80056ea:	6803      	ldr	r3, [r0, #0]
 80056ec:	4604      	mov	r4, r0
 80056ee:	460e      	mov	r6, r1
 80056f0:	3b01      	subs	r3, #1
 80056f2:	2b3e      	cmp	r3, #62	; 0x3e
 80056f4:	f200 809a 	bhi.w	800582c <RCCEx_PLL2_Config+0x144>
 80056f8:	6863      	ldr	r3, [r4, #4]
 80056fa:	3b04      	subs	r3, #4
 80056fc:	f5b3 7ffe 	cmp.w	r3, #508	; 0x1fc
 8005700:	f200 809f 	bhi.w	8005842 <RCCEx_PLL2_Config+0x15a>
 8005704:	68a3      	ldr	r3, [r4, #8]
 8005706:	3b01      	subs	r3, #1
 8005708:	2b7f      	cmp	r3, #127	; 0x7f
 800570a:	f200 80a4 	bhi.w	8005856 <RCCEx_PLL2_Config+0x16e>
 800570e:	6923      	ldr	r3, [r4, #16]
 8005710:	3b01      	subs	r3, #1
 8005712:	2b7f      	cmp	r3, #127	; 0x7f
 8005714:	f200 80a9 	bhi.w	800586a <RCCEx_PLL2_Config+0x182>
 8005718:	68e3      	ldr	r3, [r4, #12]
 800571a:	3b01      	subs	r3, #1
 800571c:	2b7f      	cmp	r3, #127	; 0x7f
 800571e:	f200 80ae 	bhi.w	800587e <RCCEx_PLL2_Config+0x196>
 8005722:	6963      	ldr	r3, [r4, #20]
 8005724:	f033 03c0 	bics.w	r3, r3, #192	; 0xc0
 8005728:	f040 80b3 	bne.w	8005892 <RCCEx_PLL2_Config+0x1aa>
 800572c:	69a3      	ldr	r3, [r4, #24]
 800572e:	f033 0320 	bics.w	r3, r3, #32
 8005732:	f040 80b8 	bne.w	80058a6 <RCCEx_PLL2_Config+0x1be>
 8005736:	69e3      	ldr	r3, [r4, #28]
 8005738:	f5b3 5f00 	cmp.w	r3, #8192	; 0x2000
 800573c:	d270      	bcs.n	8005820 <RCCEx_PLL2_Config+0x138>
 800573e:	4a5f      	ldr	r2, [pc, #380]	; (80058bc <RCCEx_PLL2_Config+0x1d4>)
 8005740:	6a93      	ldr	r3, [r2, #40]	; 0x28
 8005742:	f003 0303 	and.w	r3, r3, #3
 8005746:	2b03      	cmp	r3, #3
 8005748:	d066      	beq.n	8005818 <RCCEx_PLL2_Config+0x130>
 800574a:	6813      	ldr	r3, [r2, #0]
 800574c:	4615      	mov	r5, r2
 800574e:	f023 6380 	bic.w	r3, r3, #67108864	; 0x4000000
 8005752:	6013      	str	r3, [r2, #0]
 8005754:	f7fb fea8 	bl	80014a8 <HAL_GetTick>
 8005758:	4607      	mov	r7, r0
 800575a:	e004      	b.n	8005766 <RCCEx_PLL2_Config+0x7e>
 800575c:	f7fb fea4 	bl	80014a8 <HAL_GetTick>
 8005760:	1bc0      	subs	r0, r0, r7
 8005762:	2802      	cmp	r0, #2
 8005764:	d85a      	bhi.n	800581c <RCCEx_PLL2_Config+0x134>
 8005766:	682b      	ldr	r3, [r5, #0]
 8005768:	011a      	lsls	r2, r3, #4
 800576a:	d4f7      	bmi.n	800575c <RCCEx_PLL2_Config+0x74>
 800576c:	6aab      	ldr	r3, [r5, #40]	; 0x28
 800576e:	6822      	ldr	r2, [r4, #0]
 8005770:	f423 337c 	bic.w	r3, r3, #258048	; 0x3f000
 8005774:	4952      	ldr	r1, [pc, #328]	; (80058c0 <RCCEx_PLL2_Config+0x1d8>)
 8005776:	ea43 3302 	orr.w	r3, r3, r2, lsl #12
 800577a:	62ab      	str	r3, [r5, #40]	; 0x28
 800577c:	6867      	ldr	r7, [r4, #4]
 800577e:	e9d4 3202 	ldrd	r3, r2, [r4, #8]
 8005782:	3f01      	subs	r7, #1
 8005784:	1e50      	subs	r0, r2, #1
 8005786:	3b01      	subs	r3, #1
 8005788:	6922      	ldr	r2, [r4, #16]
 800578a:	f3c7 0708 	ubfx	r7, r7, #0, #9
 800578e:	025b      	lsls	r3, r3, #9
 8005790:	0400      	lsls	r0, r0, #16
 8005792:	3a01      	subs	r2, #1
 8005794:	b29b      	uxth	r3, r3
 8005796:	f400 00fe 	and.w	r0, r0, #8323072	; 0x7f0000
 800579a:	0612      	lsls	r2, r2, #24
 800579c:	4303      	orrs	r3, r0
 800579e:	f002 42fe 	and.w	r2, r2, #2130706432	; 0x7f000000
 80057a2:	433b      	orrs	r3, r7
 80057a4:	4313      	orrs	r3, r2
 80057a6:	63ab      	str	r3, [r5, #56]	; 0x38
 80057a8:	6aeb      	ldr	r3, [r5, #44]	; 0x2c
 80057aa:	6962      	ldr	r2, [r4, #20]
 80057ac:	f023 03c0 	bic.w	r3, r3, #192	; 0xc0
 80057b0:	4313      	orrs	r3, r2
 80057b2:	62eb      	str	r3, [r5, #44]	; 0x2c
 80057b4:	6aeb      	ldr	r3, [r5, #44]	; 0x2c
 80057b6:	69a2      	ldr	r2, [r4, #24]
 80057b8:	f023 0320 	bic.w	r3, r3, #32
 80057bc:	4313      	orrs	r3, r2
 80057be:	62eb      	str	r3, [r5, #44]	; 0x2c
 80057c0:	6aeb      	ldr	r3, [r5, #44]	; 0x2c
 80057c2:	f023 0310 	bic.w	r3, r3, #16
 80057c6:	62eb      	str	r3, [r5, #44]	; 0x2c
 80057c8:	6bea      	ldr	r2, [r5, #60]	; 0x3c
 80057ca:	69e3      	ldr	r3, [r4, #28]
 80057cc:	4011      	ands	r1, r2
 80057ce:	ea41 01c3 	orr.w	r1, r1, r3, lsl #3
 80057d2:	63e9      	str	r1, [r5, #60]	; 0x3c
 80057d4:	6aeb      	ldr	r3, [r5, #44]	; 0x2c
 80057d6:	f043 0310 	orr.w	r3, r3, #16
 80057da:	62eb      	str	r3, [r5, #44]	; 0x2c
 80057dc:	6aeb      	ldr	r3, [r5, #44]	; 0x2c
 80057de:	2e00      	cmp	r6, #0
 80057e0:	d067      	beq.n	80058b2 <RCCEx_PLL2_Config+0x1ca>
 80057e2:	2e01      	cmp	r6, #1
 80057e4:	bf0c      	ite	eq
 80057e6:	f443 1380 	orreq.w	r3, r3, #1048576	; 0x100000
 80057ea:	f443 1300 	orrne.w	r3, r3, #2097152	; 0x200000
 80057ee:	62eb      	str	r3, [r5, #44]	; 0x2c
 80057f0:	4b32      	ldr	r3, [pc, #200]	; (80058bc <RCCEx_PLL2_Config+0x1d4>)
 80057f2:	681a      	ldr	r2, [r3, #0]
 80057f4:	461c      	mov	r4, r3
 80057f6:	f042 6280 	orr.w	r2, r2, #67108864	; 0x4000000
 80057fa:	601a      	str	r2, [r3, #0]
 80057fc:	f7fb fe54 	bl	80014a8 <HAL_GetTick>
 8005800:	4605      	mov	r5, r0
 8005802:	e004      	b.n	800580e <RCCEx_PLL2_Config+0x126>
 8005804:	f7fb fe50 	bl	80014a8 <HAL_GetTick>
 8005808:	1b40      	subs	r0, r0, r5
 800580a:	2802      	cmp	r0, #2
 800580c:	d806      	bhi.n	800581c <RCCEx_PLL2_Config+0x134>
 800580e:	6823      	ldr	r3, [r4, #0]
 8005810:	011b      	lsls	r3, r3, #4
 8005812:	d5f7      	bpl.n	8005804 <RCCEx_PLL2_Config+0x11c>
 8005814:	2000      	movs	r0, #0
 8005816:	bdf8      	pop	{r3, r4, r5, r6, r7, pc}
 8005818:	2001      	movs	r0, #1
 800581a:	bdf8      	pop	{r3, r4, r5, r6, r7, pc}
 800581c:	2003      	movs	r0, #3
 800581e:	bdf8      	pop	{r3, r4, r5, r6, r7, pc}
 8005820:	f640 218d 	movw	r1, #2701	; 0xa8d
 8005824:	4827      	ldr	r0, [pc, #156]	; (80058c4 <RCCEx_PLL2_Config+0x1dc>)
 8005826:	f7fb fb3b 	bl	8000ea0 <assert_failed>
 800582a:	e788      	b.n	800573e <RCCEx_PLL2_Config+0x56>
 800582c:	f640 2186 	movw	r1, #2694	; 0xa86
 8005830:	4824      	ldr	r0, [pc, #144]	; (80058c4 <RCCEx_PLL2_Config+0x1dc>)
 8005832:	f7fb fb35 	bl	8000ea0 <assert_failed>
 8005836:	6863      	ldr	r3, [r4, #4]
 8005838:	3b04      	subs	r3, #4
 800583a:	f5b3 7ffe 	cmp.w	r3, #508	; 0x1fc
 800583e:	f67f af61 	bls.w	8005704 <RCCEx_PLL2_Config+0x1c>
 8005842:	f640 2187 	movw	r1, #2695	; 0xa87
 8005846:	481f      	ldr	r0, [pc, #124]	; (80058c4 <RCCEx_PLL2_Config+0x1dc>)
 8005848:	f7fb fb2a 	bl	8000ea0 <assert_failed>
 800584c:	68a3      	ldr	r3, [r4, #8]
 800584e:	3b01      	subs	r3, #1
 8005850:	2b7f      	cmp	r3, #127	; 0x7f
 8005852:	f67f af5c 	bls.w	800570e <RCCEx_PLL2_Config+0x26>
 8005856:	f640 2188 	movw	r1, #2696	; 0xa88
 800585a:	481a      	ldr	r0, [pc, #104]	; (80058c4 <RCCEx_PLL2_Config+0x1dc>)
 800585c:	f7fb fb20 	bl	8000ea0 <assert_failed>
 8005860:	6923      	ldr	r3, [r4, #16]
 8005862:	3b01      	subs	r3, #1
 8005864:	2b7f      	cmp	r3, #127	; 0x7f
 8005866:	f67f af57 	bls.w	8005718 <RCCEx_PLL2_Config+0x30>
 800586a:	f640 2189 	movw	r1, #2697	; 0xa89
 800586e:	4815      	ldr	r0, [pc, #84]	; (80058c4 <RCCEx_PLL2_Config+0x1dc>)
 8005870:	f7fb fb16 	bl	8000ea0 <assert_failed>
 8005874:	68e3      	ldr	r3, [r4, #12]
 8005876:	3b01      	subs	r3, #1
 8005878:	2b7f      	cmp	r3, #127	; 0x7f
 800587a:	f67f af52 	bls.w	8005722 <RCCEx_PLL2_Config+0x3a>
 800587e:	f640 218a 	movw	r1, #2698	; 0xa8a
 8005882:	4810      	ldr	r0, [pc, #64]	; (80058c4 <RCCEx_PLL2_Config+0x1dc>)
 8005884:	f7fb fb0c 	bl	8000ea0 <assert_failed>
 8005888:	6963      	ldr	r3, [r4, #20]
 800588a:	f033 03c0 	bics.w	r3, r3, #192	; 0xc0
 800588e:	f43f af4d 	beq.w	800572c <RCCEx_PLL2_Config+0x44>
 8005892:	f640 218b 	movw	r1, #2699	; 0xa8b
 8005896:	480b      	ldr	r0, [pc, #44]	; (80058c4 <RCCEx_PLL2_Config+0x1dc>)
 8005898:	f7fb fb02 	bl	8000ea0 <assert_failed>
 800589c:	69a3      	ldr	r3, [r4, #24]
 800589e:	f033 0320 	bics.w	r3, r3, #32
 80058a2:	f43f af48 	beq.w	8005736 <RCCEx_PLL2_Config+0x4e>
 80058a6:	f640 218c 	movw	r1, #2700	; 0xa8c
 80058aa:	4806      	ldr	r0, [pc, #24]	; (80058c4 <RCCEx_PLL2_Config+0x1dc>)
 80058ac:	f7fb faf8 	bl	8000ea0 <assert_failed>
 80058b0:	e741      	b.n	8005736 <RCCEx_PLL2_Config+0x4e>
 80058b2:	f443 2300 	orr.w	r3, r3, #524288	; 0x80000
 80058b6:	62eb      	str	r3, [r5, #44]	; 0x2c
 80058b8:	e79a      	b.n	80057f0 <RCCEx_PLL2_Config+0x108>
 80058ba:	bf00      	nop
 80058bc:	58024400 	.word	0x58024400
 80058c0:	ffff0007 	.word	0xffff0007
 80058c4:	0800d180 	.word	0x0800d180

080058c8 <RCCEx_PLL3_Config>:
 80058c8:	b5f8      	push	{r3, r4, r5, r6, r7, lr}
 80058ca:	6803      	ldr	r3, [r0, #0]
 80058cc:	4604      	mov	r4, r0
 80058ce:	460e      	mov	r6, r1
 80058d0:	3b01      	subs	r3, #1
 80058d2:	2b3e      	cmp	r3, #62	; 0x3e
 80058d4:	f200 809a 	bhi.w	8005a0c <RCCEx_PLL3_Config+0x144>
 80058d8:	6863      	ldr	r3, [r4, #4]
 80058da:	3b04      	subs	r3, #4
 80058dc:	f5b3 7ffe 	cmp.w	r3, #508	; 0x1fc
 80058e0:	f200 809f 	bhi.w	8005a22 <RCCEx_PLL3_Config+0x15a>
 80058e4:	68a3      	ldr	r3, [r4, #8]
 80058e6:	3b01      	subs	r3, #1
 80058e8:	2b7f      	cmp	r3, #127	; 0x7f
 80058ea:	f200 80a4 	bhi.w	8005a36 <RCCEx_PLL3_Config+0x16e>
 80058ee:	6923      	ldr	r3, [r4, #16]
 80058f0:	3b01      	subs	r3, #1
 80058f2:	2b7f      	cmp	r3, #127	; 0x7f
 80058f4:	f200 80a9 	bhi.w	8005a4a <RCCEx_PLL3_Config+0x182>
 80058f8:	68e3      	ldr	r3, [r4, #12]
 80058fa:	3b01      	subs	r3, #1
 80058fc:	2b7f      	cmp	r3, #127	; 0x7f
 80058fe:	f200 80ae 	bhi.w	8005a5e <RCCEx_PLL3_Config+0x196>
 8005902:	6963      	ldr	r3, [r4, #20]
 8005904:	f433 6340 	bics.w	r3, r3, #3072	; 0xc00
 8005908:	f040 80b3 	bne.w	8005a72 <RCCEx_PLL3_Config+0x1aa>
 800590c:	69a3      	ldr	r3, [r4, #24]
 800590e:	f433 7300 	bics.w	r3, r3, #512	; 0x200
 8005912:	f040 80b8 	bne.w	8005a86 <RCCEx_PLL3_Config+0x1be>
 8005916:	69e3      	ldr	r3, [r4, #28]
 8005918:	f5b3 5f00 	cmp.w	r3, #8192	; 0x2000
 800591c:	d270      	bcs.n	8005a00 <RCCEx_PLL3_Config+0x138>
 800591e:	4a5f      	ldr	r2, [pc, #380]	; (8005a9c <RCCEx_PLL3_Config+0x1d4>)
 8005920:	6a93      	ldr	r3, [r2, #40]	; 0x28
 8005922:	f003 0303 	and.w	r3, r3, #3
 8005926:	2b03      	cmp	r3, #3
 8005928:	d066      	beq.n	80059f8 <RCCEx_PLL3_Config+0x130>
 800592a:	6813      	ldr	r3, [r2, #0]
 800592c:	4615      	mov	r5, r2
 800592e:	f023 5380 	bic.w	r3, r3, #268435456	; 0x10000000
 8005932:	6013      	str	r3, [r2, #0]
 8005934:	f7fb fdb8 	bl	80014a8 <HAL_GetTick>
 8005938:	4607      	mov	r7, r0
 800593a:	e004      	b.n	8005946 <RCCEx_PLL3_Config+0x7e>
 800593c:	f7fb fdb4 	bl	80014a8 <HAL_GetTick>
 8005940:	1bc0      	subs	r0, r0, r7
 8005942:	2802      	cmp	r0, #2
 8005944:	d85a      	bhi.n	80059fc <RCCEx_PLL3_Config+0x134>
 8005946:	682b      	ldr	r3, [r5, #0]
 8005948:	009a      	lsls	r2, r3, #2
 800594a:	d4f7      	bmi.n	800593c <RCCEx_PLL3_Config+0x74>
 800594c:	6aab      	ldr	r3, [r5, #40]	; 0x28
 800594e:	6822      	ldr	r2, [r4, #0]
 8005950:	f023 737c 	bic.w	r3, r3, #66060288	; 0x3f00000
 8005954:	4952      	ldr	r1, [pc, #328]	; (8005aa0 <RCCEx_PLL3_Config+0x1d8>)
 8005956:	ea43 5302 	orr.w	r3, r3, r2, lsl #20
 800595a:	62ab      	str	r3, [r5, #40]	; 0x28
 800595c:	6867      	ldr	r7, [r4, #4]
 800595e:	e9d4 3202 	ldrd	r3, r2, [r4, #8]
 8005962:	3f01      	subs	r7, #1
 8005964:	1e50      	subs	r0, r2, #1
 8005966:	3b01      	subs	r3, #1
 8005968:	6922      	ldr	r2, [r4, #16]
 800596a:	f3c7 0708 	ubfx	r7, r7, #0, #9
 800596e:	025b      	lsls	r3, r3, #9
 8005970:	0400      	lsls	r0, r0, #16
 8005972:	3a01      	subs	r2, #1
 8005974:	b29b      	uxth	r3, r3
 8005976:	f400 00fe 	and.w	r0, r0, #8323072	; 0x7f0000
 800597a:	0612      	lsls	r2, r2, #24
 800597c:	4303      	orrs	r3, r0
 800597e:	f002 42fe 	and.w	r2, r2, #2130706432	; 0x7f000000
 8005982:	433b      	orrs	r3, r7
 8005984:	4313      	orrs	r3, r2
 8005986:	642b      	str	r3, [r5, #64]	; 0x40
 8005988:	6aeb      	ldr	r3, [r5, #44]	; 0x2c
 800598a:	6962      	ldr	r2, [r4, #20]
 800598c:	f423 6340 	bic.w	r3, r3, #3072	; 0xc00
 8005990:	4313      	orrs	r3, r2
 8005992:	62eb      	str	r3, [r5, #44]	; 0x2c
 8005994:	6aeb      	ldr	r3, [r5, #44]	; 0x2c
 8005996:	69a2      	ldr	r2, [r4, #24]
 8005998:	f423 7300 	bic.w	r3, r3, #512	; 0x200
 800599c:	4313      	orrs	r3, r2
 800599e:	62eb      	str	r3, [r5, #44]	; 0x2c
 80059a0:	6aeb      	ldr	r3, [r5, #44]	; 0x2c
 80059a2:	f423 7380 	bic.w	r3, r3, #256	; 0x100
 80059a6:	62eb      	str	r3, [r5, #44]	; 0x2c
 80059a8:	6c6a      	ldr	r2, [r5, #68]	; 0x44
 80059aa:	69e3      	ldr	r3, [r4, #28]
 80059ac:	4011      	ands	r1, r2
 80059ae:	ea41 01c3 	orr.w	r1, r1, r3, lsl #3
 80059b2:	6469      	str	r1, [r5, #68]	; 0x44
 80059b4:	6aeb      	ldr	r3, [r5, #44]	; 0x2c
 80059b6:	f443 7380 	orr.w	r3, r3, #256	; 0x100
 80059ba:	62eb      	str	r3, [r5, #44]	; 0x2c
 80059bc:	6aeb      	ldr	r3, [r5, #44]	; 0x2c
 80059be:	2e00      	cmp	r6, #0
 80059c0:	d067      	beq.n	8005a92 <RCCEx_PLL3_Config+0x1ca>
 80059c2:	2e01      	cmp	r6, #1
 80059c4:	bf0c      	ite	eq
 80059c6:	f443 0300 	orreq.w	r3, r3, #8388608	; 0x800000
 80059ca:	f043 7380 	orrne.w	r3, r3, #16777216	; 0x1000000
 80059ce:	62eb      	str	r3, [r5, #44]	; 0x2c
 80059d0:	4b32      	ldr	r3, [pc, #200]	; (8005a9c <RCCEx_PLL3_Config+0x1d4>)
 80059d2:	681a      	ldr	r2, [r3, #0]
 80059d4:	461c      	mov	r4, r3
 80059d6:	f042 5280 	orr.w	r2, r2, #268435456	; 0x10000000
 80059da:	601a      	str	r2, [r3, #0]
 80059dc:	f7fb fd64 	bl	80014a8 <HAL_GetTick>
 80059e0:	4605      	mov	r5, r0
 80059e2:	e004      	b.n	80059ee <RCCEx_PLL3_Config+0x126>
 80059e4:	f7fb fd60 	bl	80014a8 <HAL_GetTick>
 80059e8:	1b40      	subs	r0, r0, r5
 80059ea:	2802      	cmp	r0, #2
 80059ec:	d806      	bhi.n	80059fc <RCCEx_PLL3_Config+0x134>
 80059ee:	6823      	ldr	r3, [r4, #0]
 80059f0:	009b      	lsls	r3, r3, #2
 80059f2:	d5f7      	bpl.n	80059e4 <RCCEx_PLL3_Config+0x11c>
 80059f4:	2000      	movs	r0, #0
 80059f6:	bdf8      	pop	{r3, r4, r5, r6, r7, pc}
 80059f8:	2001      	movs	r0, #1
 80059fa:	bdf8      	pop	{r3, r4, r5, r6, r7, pc}
 80059fc:	2003      	movs	r0, #3
 80059fe:	bdf8      	pop	{r3, r4, r5, r6, r7, pc}
 8005a00:	f640 21f5 	movw	r1, #2805	; 0xaf5
 8005a04:	4827      	ldr	r0, [pc, #156]	; (8005aa4 <RCCEx_PLL3_Config+0x1dc>)
 8005a06:	f7fb fa4b 	bl	8000ea0 <assert_failed>
 8005a0a:	e788      	b.n	800591e <RCCEx_PLL3_Config+0x56>
 8005a0c:	f640 21ee 	movw	r1, #2798	; 0xaee
 8005a10:	4824      	ldr	r0, [pc, #144]	; (8005aa4 <RCCEx_PLL3_Config+0x1dc>)
 8005a12:	f7fb fa45 	bl	8000ea0 <assert_failed>
 8005a16:	6863      	ldr	r3, [r4, #4]
 8005a18:	3b04      	subs	r3, #4
 8005a1a:	f5b3 7ffe 	cmp.w	r3, #508	; 0x1fc
 8005a1e:	f67f af61 	bls.w	80058e4 <RCCEx_PLL3_Config+0x1c>
 8005a22:	f640 21ef 	movw	r1, #2799	; 0xaef
 8005a26:	481f      	ldr	r0, [pc, #124]	; (8005aa4 <RCCEx_PLL3_Config+0x1dc>)
 8005a28:	f7fb fa3a 	bl	8000ea0 <assert_failed>
 8005a2c:	68a3      	ldr	r3, [r4, #8]
 8005a2e:	3b01      	subs	r3, #1
 8005a30:	2b7f      	cmp	r3, #127	; 0x7f
 8005a32:	f67f af5c 	bls.w	80058ee <RCCEx_PLL3_Config+0x26>
 8005a36:	f44f 612f 	mov.w	r1, #2800	; 0xaf0
 8005a3a:	481a      	ldr	r0, [pc, #104]	; (8005aa4 <RCCEx_PLL3_Config+0x1dc>)
 8005a3c:	f7fb fa30 	bl	8000ea0 <assert_failed>
 8005a40:	6923      	ldr	r3, [r4, #16]
 8005a42:	3b01      	subs	r3, #1
 8005a44:	2b7f      	cmp	r3, #127	; 0x7f
 8005a46:	f67f af57 	bls.w	80058f8 <RCCEx_PLL3_Config+0x30>
 8005a4a:	f640 21f1 	movw	r1, #2801	; 0xaf1
 8005a4e:	4815      	ldr	r0, [pc, #84]	; (8005aa4 <RCCEx_PLL3_Config+0x1dc>)
 8005a50:	f7fb fa26 	bl	8000ea0 <assert_failed>
 8005a54:	68e3      	ldr	r3, [r4, #12]
 8005a56:	3b01      	subs	r3, #1
 8005a58:	2b7f      	cmp	r3, #127	; 0x7f
 8005a5a:	f67f af52 	bls.w	8005902 <RCCEx_PLL3_Config+0x3a>
 8005a5e:	f640 21f2 	movw	r1, #2802	; 0xaf2
 8005a62:	4810      	ldr	r0, [pc, #64]	; (8005aa4 <RCCEx_PLL3_Config+0x1dc>)
 8005a64:	f7fb fa1c 	bl	8000ea0 <assert_failed>
 8005a68:	6963      	ldr	r3, [r4, #20]
 8005a6a:	f433 6340 	bics.w	r3, r3, #3072	; 0xc00
 8005a6e:	f43f af4d 	beq.w	800590c <RCCEx_PLL3_Config+0x44>
 8005a72:	f640 21f3 	movw	r1, #2803	; 0xaf3
 8005a76:	480b      	ldr	r0, [pc, #44]	; (8005aa4 <RCCEx_PLL3_Config+0x1dc>)
 8005a78:	f7fb fa12 	bl	8000ea0 <assert_failed>
 8005a7c:	69a3      	ldr	r3, [r4, #24]
 8005a7e:	f433 7300 	bics.w	r3, r3, #512	; 0x200
 8005a82:	f43f af48 	beq.w	8005916 <RCCEx_PLL3_Config+0x4e>
 8005a86:	f640 21f4 	movw	r1, #2804	; 0xaf4
 8005a8a:	4806      	ldr	r0, [pc, #24]	; (8005aa4 <RCCEx_PLL3_Config+0x1dc>)
 8005a8c:	f7fb fa08 	bl	8000ea0 <assert_failed>
 8005a90:	e741      	b.n	8005916 <RCCEx_PLL3_Config+0x4e>
 8005a92:	f443 0380 	orr.w	r3, r3, #4194304	; 0x400000
 8005a96:	62eb      	str	r3, [r5, #44]	; 0x2c
 8005a98:	e79a      	b.n	80059d0 <RCCEx_PLL3_Config+0x108>
 8005a9a:	bf00      	nop
 8005a9c:	58024400 	.word	0x58024400
 8005aa0:	ffff0007 	.word	0xffff0007
 8005aa4:	0800d180 	.word	0x0800d180

08005aa8 <HAL_RCCEx_PeriphCLKConfig>:
 8005aa8:	e92d 43f8 	stmdb	sp!, {r3, r4, r5, r6, r7, r8, r9, lr}
 8005aac:	6803      	ldr	r3, [r0, #0]
 8005aae:	4604      	mov	r4, r0
 8005ab0:	f013 6600 	ands.w	r6, r3, #134217728	; 0x8000000
 8005ab4:	d015      	beq.n	8005ae2 <HAL_RCCEx_PeriphCLKConfig+0x3a>
 8005ab6:	6e42      	ldr	r2, [r0, #100]	; 0x64
 8005ab8:	f5b2 1f80 	cmp.w	r2, #1048576	; 0x100000
 8005abc:	f000 852b 	beq.w	8006516 <HAL_RCCEx_PeriphCLKConfig+0xa6e>
 8005ac0:	f240 8610 	bls.w	80066e4 <HAL_RCCEx_PeriphCLKConfig+0xc3c>
 8005ac4:	f5b2 1f00 	cmp.w	r2, #2097152	; 0x200000
 8005ac8:	f000 855b 	beq.w	8006582 <HAL_RCCEx_PeriphCLKConfig+0xada>
 8005acc:	f5b2 1f40 	cmp.w	r2, #3145728	; 0x300000
 8005ad0:	f040 8638 	bne.w	8006744 <HAL_RCCEx_PeriphCLKConfig+0xc9c>
 8005ad4:	4880      	ldr	r0, [pc, #512]	; (8005cd8 <HAL_RCCEx_PeriphCLKConfig+0x230>)
 8005ad6:	2600      	movs	r6, #0
 8005ad8:	6d01      	ldr	r1, [r0, #80]	; 0x50
 8005ada:	f421 1140 	bic.w	r1, r1, #3145728	; 0x300000
 8005ade:	430a      	orrs	r2, r1
 8005ae0:	6502      	str	r2, [r0, #80]	; 0x50
 8005ae2:	05dd      	lsls	r5, r3, #23
 8005ae4:	d50a      	bpl.n	8005afc <HAL_RCCEx_PeriphCLKConfig+0x54>
 8005ae6:	6d62      	ldr	r2, [r4, #84]	; 0x54
 8005ae8:	2a04      	cmp	r2, #4
 8005aea:	d806      	bhi.n	8005afa <HAL_RCCEx_PeriphCLKConfig+0x52>
 8005aec:	e8df f012 	tbh	[pc, r2, lsl #1]
 8005af0:	04d604cb 	.word	0x04d604cb
 8005af4:	047404dd 	.word	0x047404dd
 8005af8:	0474      	.short	0x0474
 8005afa:	2601      	movs	r6, #1
 8005afc:	4635      	mov	r5, r6
 8005afe:	0598      	lsls	r0, r3, #22
 8005b00:	d51b      	bpl.n	8005b3a <HAL_RCCEx_PeriphCLKConfig+0x92>
 8005b02:	6da2      	ldr	r2, [r4, #88]	; 0x58
 8005b04:	2a80      	cmp	r2, #128	; 0x80
 8005b06:	f000 84ee 	beq.w	80064e6 <HAL_RCCEx_PeriphCLKConfig+0xa3e>
 8005b0a:	f200 860b 	bhi.w	8006724 <HAL_RCCEx_PeriphCLKConfig+0xc7c>
 8005b0e:	2a00      	cmp	r2, #0
 8005b10:	f000 8544 	beq.w	800659c <HAL_RCCEx_PeriphCLKConfig+0xaf4>
 8005b14:	2a40      	cmp	r2, #64	; 0x40
 8005b16:	f040 860c 	bne.w	8006732 <HAL_RCCEx_PeriphCLKConfig+0xc8a>
 8005b1a:	2100      	movs	r1, #0
 8005b1c:	1d20      	adds	r0, r4, #4
 8005b1e:	f7ff fde3 	bl	80056e8 <RCCEx_PLL2_Config>
 8005b22:	6823      	ldr	r3, [r4, #0]
 8005b24:	4605      	mov	r5, r0
 8005b26:	2d00      	cmp	r5, #0
 8005b28:	f040 84e7 	bne.w	80064fa <HAL_RCCEx_PeriphCLKConfig+0xa52>
 8005b2c:	496a      	ldr	r1, [pc, #424]	; (8005cd8 <HAL_RCCEx_PeriphCLKConfig+0x230>)
 8005b2e:	6da0      	ldr	r0, [r4, #88]	; 0x58
 8005b30:	6d0a      	ldr	r2, [r1, #80]	; 0x50
 8005b32:	f422 72e0 	bic.w	r2, r2, #448	; 0x1c0
 8005b36:	4302      	orrs	r2, r0
 8005b38:	650a      	str	r2, [r1, #80]	; 0x50
 8005b3a:	0559      	lsls	r1, r3, #21
 8005b3c:	d51f      	bpl.n	8005b7e <HAL_RCCEx_PeriphCLKConfig+0xd6>
 8005b3e:	f8d4 20a4 	ldr.w	r2, [r4, #164]	; 0xa4
 8005b42:	f5b2 0f80 	cmp.w	r2, #4194304	; 0x400000
 8005b46:	f000 84f2 	beq.w	800652e <HAL_RCCEx_PeriphCLKConfig+0xa86>
 8005b4a:	f200 85df 	bhi.w	800670c <HAL_RCCEx_PeriphCLKConfig+0xc64>
 8005b4e:	2a00      	cmp	r2, #0
 8005b50:	f000 851d 	beq.w	800658e <HAL_RCCEx_PeriphCLKConfig+0xae6>
 8005b54:	f5b2 1f00 	cmp.w	r2, #2097152	; 0x200000
 8005b58:	f040 85e0 	bne.w	800671c <HAL_RCCEx_PeriphCLKConfig+0xc74>
 8005b5c:	2100      	movs	r1, #0
 8005b5e:	1d20      	adds	r0, r4, #4
 8005b60:	f7ff fdc2 	bl	80056e8 <RCCEx_PLL2_Config>
 8005b64:	6823      	ldr	r3, [r4, #0]
 8005b66:	4605      	mov	r5, r0
 8005b68:	2d00      	cmp	r5, #0
 8005b6a:	f040 84ea 	bne.w	8006542 <HAL_RCCEx_PeriphCLKConfig+0xa9a>
 8005b6e:	495a      	ldr	r1, [pc, #360]	; (8005cd8 <HAL_RCCEx_PeriphCLKConfig+0x230>)
 8005b70:	f8d4 00a4 	ldr.w	r0, [r4, #164]	; 0xa4
 8005b74:	6d8a      	ldr	r2, [r1, #88]	; 0x58
 8005b76:	f422 0260 	bic.w	r2, r2, #14680064	; 0xe00000
 8005b7a:	4302      	orrs	r2, r0
 8005b7c:	658a      	str	r2, [r1, #88]	; 0x58
 8005b7e:	051a      	lsls	r2, r3, #20
 8005b80:	d51f      	bpl.n	8005bc2 <HAL_RCCEx_PeriphCLKConfig+0x11a>
 8005b82:	f8d4 20a8 	ldr.w	r2, [r4, #168]	; 0xa8
 8005b86:	f1b2 7f00 	cmp.w	r2, #33554432	; 0x2000000
 8005b8a:	f000 84dd 	beq.w	8006548 <HAL_RCCEx_PeriphCLKConfig+0xaa0>
 8005b8e:	f200 85b1 	bhi.w	80066f4 <HAL_RCCEx_PeriphCLKConfig+0xc4c>
 8005b92:	2a00      	cmp	r2, #0
 8005b94:	f000 84b4 	beq.w	8006500 <HAL_RCCEx_PeriphCLKConfig+0xa58>
 8005b98:	f1b2 7f80 	cmp.w	r2, #16777216	; 0x1000000
 8005b9c:	f040 85b2 	bne.w	8006704 <HAL_RCCEx_PeriphCLKConfig+0xc5c>
 8005ba0:	2100      	movs	r1, #0
 8005ba2:	1d20      	adds	r0, r4, #4
 8005ba4:	f7ff fda0 	bl	80056e8 <RCCEx_PLL2_Config>
 8005ba8:	6823      	ldr	r3, [r4, #0]
 8005baa:	4605      	mov	r5, r0
 8005bac:	2d00      	cmp	r5, #0
 8005bae:	f040 84af 	bne.w	8006510 <HAL_RCCEx_PeriphCLKConfig+0xa68>
 8005bb2:	4949      	ldr	r1, [pc, #292]	; (8005cd8 <HAL_RCCEx_PeriphCLKConfig+0x230>)
 8005bb4:	f8d4 00a8 	ldr.w	r0, [r4, #168]	; 0xa8
 8005bb8:	6d8a      	ldr	r2, [r1, #88]	; 0x58
 8005bba:	f022 62e0 	bic.w	r2, r2, #117440512	; 0x7000000
 8005bbe:	4302      	orrs	r2, r0
 8005bc0:	658a      	str	r2, [r1, #88]	; 0x58
 8005bc2:	019f      	lsls	r7, r3, #6
 8005bc4:	d50d      	bpl.n	8005be2 <HAL_RCCEx_PeriphCLKConfig+0x13a>
 8005bc6:	6ca2      	ldr	r2, [r4, #72]	; 0x48
 8005bc8:	2a10      	cmp	r2, #16
 8005bca:	f000 83f7 	beq.w	80063bc <HAL_RCCEx_PeriphCLKConfig+0x914>
 8005bce:	f240 85b4 	bls.w	800673a <HAL_RCCEx_PeriphCLKConfig+0xc92>
 8005bd2:	2a20      	cmp	r2, #32
 8005bd4:	f000 840c 	beq.w	80063f0 <HAL_RCCEx_PeriphCLKConfig+0x948>
 8005bd8:	2a30      	cmp	r2, #48	; 0x30
 8005bda:	f000 83f4 	beq.w	80063c6 <HAL_RCCEx_PeriphCLKConfig+0x91e>
 8005bde:	2601      	movs	r6, #1
 8005be0:	4635      	mov	r5, r6
 8005be2:	04d8      	lsls	r0, r3, #19
 8005be4:	d51d      	bpl.n	8005c22 <HAL_RCCEx_PeriphCLKConfig+0x17a>
 8005be6:	6de2      	ldr	r2, [r4, #92]	; 0x5c
 8005be8:	f5b2 5f00 	cmp.w	r2, #8192	; 0x2000
 8005bec:	f000 84b5 	beq.w	800655a <HAL_RCCEx_PeriphCLKConfig+0xab2>
 8005bf0:	f200 856c 	bhi.w	80066cc <HAL_RCCEx_PeriphCLKConfig+0xc24>
 8005bf4:	2a00      	cmp	r2, #0
 8005bf6:	f000 84bd 	beq.w	8006574 <HAL_RCCEx_PeriphCLKConfig+0xacc>
 8005bfa:	f5b2 5f80 	cmp.w	r2, #4096	; 0x1000
 8005bfe:	f040 856d 	bne.w	80066dc <HAL_RCCEx_PeriphCLKConfig+0xc34>
 8005c02:	2100      	movs	r1, #0
 8005c04:	1d20      	adds	r0, r4, #4
 8005c06:	f7ff fd6f 	bl	80056e8 <RCCEx_PLL2_Config>
 8005c0a:	6823      	ldr	r3, [r4, #0]
 8005c0c:	4605      	mov	r5, r0
 8005c0e:	2d00      	cmp	r5, #0
 8005c10:	f040 84ad 	bne.w	800656e <HAL_RCCEx_PeriphCLKConfig+0xac6>
 8005c14:	4930      	ldr	r1, [pc, #192]	; (8005cd8 <HAL_RCCEx_PeriphCLKConfig+0x230>)
 8005c16:	6de0      	ldr	r0, [r4, #92]	; 0x5c
 8005c18:	6d0a      	ldr	r2, [r1, #80]	; 0x50
 8005c1a:	f422 42e0 	bic.w	r2, r2, #28672	; 0x7000
 8005c1e:	4302      	orrs	r2, r0
 8005c20:	650a      	str	r2, [r1, #80]	; 0x50
 8005c22:	0499      	lsls	r1, r3, #18
 8005c24:	d51b      	bpl.n	8005c5e <HAL_RCCEx_PeriphCLKConfig+0x1b6>
 8005c26:	6e22      	ldr	r2, [r4, #96]	; 0x60
 8005c28:	f5b2 3f00 	cmp.w	r2, #131072	; 0x20000
 8005c2c:	f000 83f6 	beq.w	800641c <HAL_RCCEx_PeriphCLKConfig+0x974>
 8005c30:	f200 84ff 	bhi.w	8006632 <HAL_RCCEx_PeriphCLKConfig+0xb8a>
 8005c34:	b14a      	cbz	r2, 8005c4a <HAL_RCCEx_PeriphCLKConfig+0x1a2>
 8005c36:	f5b2 3f80 	cmp.w	r2, #65536	; 0x10000
 8005c3a:	f040 8506 	bne.w	800664a <HAL_RCCEx_PeriphCLKConfig+0xba2>
 8005c3e:	2101      	movs	r1, #1
 8005c40:	1d20      	adds	r0, r4, #4
 8005c42:	f7ff fd51 	bl	80056e8 <RCCEx_PLL2_Config>
 8005c46:	6823      	ldr	r3, [r4, #0]
 8005c48:	4605      	mov	r5, r0
 8005c4a:	2d00      	cmp	r5, #0
 8005c4c:	f040 833f 	bne.w	80062ce <HAL_RCCEx_PeriphCLKConfig+0x826>
 8005c50:	4921      	ldr	r1, [pc, #132]	; (8005cd8 <HAL_RCCEx_PeriphCLKConfig+0x230>)
 8005c52:	6e20      	ldr	r0, [r4, #96]	; 0x60
 8005c54:	6d0a      	ldr	r2, [r1, #80]	; 0x50
 8005c56:	f422 22e0 	bic.w	r2, r2, #458752	; 0x70000
 8005c5a:	4302      	orrs	r2, r0
 8005c5c:	650a      	str	r2, [r1, #80]	; 0x50
 8005c5e:	045a      	lsls	r2, r3, #17
 8005c60:	d51d      	bpl.n	8005c9e <HAL_RCCEx_PeriphCLKConfig+0x1f6>
 8005c62:	f8d4 20ac 	ldr.w	r2, [r4, #172]	; 0xac
 8005c66:	f1b2 5f00 	cmp.w	r2, #536870912	; 0x20000000
 8005c6a:	f000 83e2 	beq.w	8006432 <HAL_RCCEx_PeriphCLKConfig+0x98a>
 8005c6e:	f200 850e 	bhi.w	800668e <HAL_RCCEx_PeriphCLKConfig+0xbe6>
 8005c72:	b14a      	cbz	r2, 8005c88 <HAL_RCCEx_PeriphCLKConfig+0x1e0>
 8005c74:	f1b2 5f80 	cmp.w	r2, #268435456	; 0x10000000
 8005c78:	f040 8515 	bne.w	80066a6 <HAL_RCCEx_PeriphCLKConfig+0xbfe>
 8005c7c:	2101      	movs	r1, #1
 8005c7e:	1d20      	adds	r0, r4, #4
 8005c80:	f7ff fd32 	bl	80056e8 <RCCEx_PLL2_Config>
 8005c84:	6823      	ldr	r3, [r4, #0]
 8005c86:	4605      	mov	r5, r0
 8005c88:	2d00      	cmp	r5, #0
 8005c8a:	f040 8314 	bne.w	80062b6 <HAL_RCCEx_PeriphCLKConfig+0x80e>
 8005c8e:	4912      	ldr	r1, [pc, #72]	; (8005cd8 <HAL_RCCEx_PeriphCLKConfig+0x230>)
 8005c90:	f8d4 00ac 	ldr.w	r0, [r4, #172]	; 0xac
 8005c94:	6d8a      	ldr	r2, [r1, #88]	; 0x58
 8005c96:	f022 42e0 	bic.w	r2, r2, #1879048192	; 0x70000000
 8005c9a:	4302      	orrs	r2, r0
 8005c9c:	658a      	str	r2, [r1, #88]	; 0x58
 8005c9e:	041f      	lsls	r7, r3, #16
 8005ca0:	d50d      	bpl.n	8005cbe <HAL_RCCEx_PeriphCLKConfig+0x216>
 8005ca2:	6ee2      	ldr	r2, [r4, #108]	; 0x6c
 8005ca4:	f1b2 5f80 	cmp.w	r2, #268435456	; 0x10000000
 8005ca8:	f000 83ce 	beq.w	8006448 <HAL_RCCEx_PeriphCLKConfig+0x9a0>
 8005cac:	f1b2 5f00 	cmp.w	r2, #536870912	; 0x20000000
 8005cb0:	f000 829d 	beq.w	80061ee <HAL_RCCEx_PeriphCLKConfig+0x746>
 8005cb4:	2a00      	cmp	r2, #0
 8005cb6:	f000 82a0 	beq.w	80061fa <HAL_RCCEx_PeriphCLKConfig+0x752>
 8005cba:	2601      	movs	r6, #1
 8005cbc:	4635      	mov	r5, r6
 8005cbe:	01d8      	lsls	r0, r3, #7
 8005cc0:	d51c      	bpl.n	8005cfc <HAL_RCCEx_PeriphCLKConfig+0x254>
 8005cc2:	6c62      	ldr	r2, [r4, #68]	; 0x44
 8005cc4:	2a03      	cmp	r2, #3
 8005cc6:	f200 8553 	bhi.w	8006770 <HAL_RCCEx_PeriphCLKConfig+0xcc8>
 8005cca:	e8df f012 	tbh	[pc, r2, lsl #1]
 8005cce:	000d      	.short	0x000d
 8005cd0:	00070335 	.word	0x00070335
 8005cd4:	000d      	.short	0x000d
 8005cd6:	bf00      	nop
 8005cd8:	58024400 	.word	0x58024400
 8005cdc:	2102      	movs	r1, #2
 8005cde:	1d20      	adds	r0, r4, #4
 8005ce0:	f7ff fd02 	bl	80056e8 <RCCEx_PLL2_Config>
 8005ce4:	6823      	ldr	r3, [r4, #0]
 8005ce6:	4605      	mov	r5, r0
 8005ce8:	2d00      	cmp	r5, #0
 8005cea:	f040 82dc 	bne.w	80062a6 <HAL_RCCEx_PeriphCLKConfig+0x7fe>
 8005cee:	499a      	ldr	r1, [pc, #616]	; (8005f58 <HAL_RCCEx_PeriphCLKConfig+0x4b0>)
 8005cf0:	6c60      	ldr	r0, [r4, #68]	; 0x44
 8005cf2:	6cca      	ldr	r2, [r1, #76]	; 0x4c
 8005cf4:	f022 0203 	bic.w	r2, r2, #3
 8005cf8:	4302      	orrs	r2, r0
 8005cfa:	64ca      	str	r2, [r1, #76]	; 0x4c
 8005cfc:	0259      	lsls	r1, r3, #9
 8005cfe:	f140 80bb 	bpl.w	8005e78 <HAL_RCCEx_PeriphCLKConfig+0x3d0>
 8005d02:	f8d4 20b0 	ldr.w	r2, [r4, #176]	; 0xb0
 8005d06:	4f95      	ldr	r7, [pc, #596]	; (8005f5c <HAL_RCCEx_PeriphCLKConfig+0x4b4>)
 8005d08:	f5b2 7f80 	cmp.w	r2, #256	; 0x100
 8005d0c:	bf18      	it	ne
 8005d0e:	f5b2 7f00 	cmpne.w	r2, #512	; 0x200
 8005d12:	f422 4ca0 	bic.w	ip, r2, #20480	; 0x5000
 8005d16:	f422 4010 	bic.w	r0, r2, #36864	; 0x9000
 8005d1a:	f422 5140 	bic.w	r1, r2, #12288	; 0x3000
 8005d1e:	bf14      	ite	ne
 8005d20:	2301      	movne	r3, #1
 8005d22:	2300      	moveq	r3, #0
 8005d24:	f422 3e88 	bic.w	lr, r2, #69632	; 0x11000
 8005d28:	f5bc 5f0c 	cmp.w	ip, #8960	; 0x2300
 8005d2c:	bf0c      	ite	eq
 8005d2e:	2300      	moveq	r3, #0
 8005d30:	f003 0301 	andne.w	r3, r3, #1
 8005d34:	f8df c230 	ldr.w	ip, [pc, #560]	; 8005f68 <HAL_RCCEx_PeriphCLKConfig+0x4c0>
 8005d38:	f5b0 4f86 	cmp.w	r0, #17152	; 0x4300
 8005d3c:	bf0c      	ite	eq
 8005d3e:	2300      	moveq	r3, #0
 8005d40:	f003 0301 	andne.w	r3, r3, #1
 8005d44:	4886      	ldr	r0, [pc, #536]	; (8005f60 <HAL_RCCEx_PeriphCLKConfig+0x4b8>)
 8005d46:	f5b1 4f03 	cmp.w	r1, #33536	; 0x8300
 8005d4a:	bf0c      	ite	eq
 8005d4c:	2300      	moveq	r3, #0
 8005d4e:	f003 0301 	andne.w	r3, r3, #1
 8005d52:	f5be 4f63 	cmp.w	lr, #58112	; 0xe300
 8005d56:	bf0c      	ite	eq
 8005d58:	2300      	moveq	r3, #0
 8005d5a:	f003 0301 	andne.w	r3, r3, #1
 8005d5e:	f422 3e04 	bic.w	lr, r2, #135168	; 0x21000
 8005d62:	42b9      	cmp	r1, r7
 8005d64:	bf0c      	ite	eq
 8005d66:	2300      	moveq	r3, #0
 8005d68:	f003 0301 	andne.w	r3, r3, #1
 8005d6c:	f507 4740 	add.w	r7, r7, #49152	; 0xc000
 8005d70:	4281      	cmp	r1, r0
 8005d72:	bf0c      	ite	eq
 8005d74:	2300      	moveq	r3, #0
 8005d76:	f003 0301 	andne.w	r3, r3, #1
 8005d7a:	f500 4040 	add.w	r0, r0, #49152	; 0xc000
 8005d7e:	4561      	cmp	r1, ip
 8005d80:	bf0c      	ite	eq
 8005d82:	2300      	moveq	r3, #0
 8005d84:	f003 0301 	andne.w	r3, r3, #1
 8005d88:	f50c 4c40 	add.w	ip, ip, #49152	; 0xc000
 8005d8c:	45be      	cmp	lr, r7
 8005d8e:	bf0c      	ite	eq
 8005d90:	2300      	moveq	r3, #0
 8005d92:	f003 0301 	andne.w	r3, r3, #1
 8005d96:	f507 4740 	add.w	r7, r7, #49152	; 0xc000
 8005d9a:	4281      	cmp	r1, r0
 8005d9c:	bf0c      	ite	eq
 8005d9e:	2300      	moveq	r3, #0
 8005da0:	f003 0301 	andne.w	r3, r3, #1
 8005da4:	f500 4040 	add.w	r0, r0, #49152	; 0xc000
 8005da8:	4561      	cmp	r1, ip
 8005daa:	bf0c      	ite	eq
 8005dac:	2300      	moveq	r3, #0
 8005dae:	f003 0301 	andne.w	r3, r3, #1
 8005db2:	f50c 4c40 	add.w	ip, ip, #49152	; 0xc000
 8005db6:	42b9      	cmp	r1, r7
 8005db8:	bf0c      	ite	eq
 8005dba:	2300      	moveq	r3, #0
 8005dbc:	f003 0301 	andne.w	r3, r3, #1
 8005dc0:	f507 4740 	add.w	r7, r7, #49152	; 0xc000
 8005dc4:	4281      	cmp	r1, r0
 8005dc6:	bf0c      	ite	eq
 8005dc8:	2300      	moveq	r3, #0
 8005dca:	f003 0301 	andne.w	r3, r3, #1
 8005dce:	f500 4040 	add.w	r0, r0, #49152	; 0xc000
 8005dd2:	4561      	cmp	r1, ip
 8005dd4:	bf0c      	ite	eq
 8005dd6:	2300      	moveq	r3, #0
 8005dd8:	f003 0301 	andne.w	r3, r3, #1
 8005ddc:	42b9      	cmp	r1, r7
 8005dde:	bf0c      	ite	eq
 8005de0:	2300      	moveq	r3, #0
 8005de2:	f003 0301 	andne.w	r3, r3, #1
 8005de6:	4281      	cmp	r1, r0
 8005de8:	bf0c      	ite	eq
 8005dea:	2300      	moveq	r3, #0
 8005dec:	f003 0301 	andne.w	r3, r3, #1
 8005df0:	2b00      	cmp	r3, #0
 8005df2:	f040 81f0 	bne.w	80061d6 <HAL_RCCEx_PeriphCLKConfig+0x72e>
 8005df6:	4b5b      	ldr	r3, [pc, #364]	; (8005f64 <HAL_RCCEx_PeriphCLKConfig+0x4bc>)
 8005df8:	681a      	ldr	r2, [r3, #0]
 8005dfa:	461f      	mov	r7, r3
 8005dfc:	f442 7280 	orr.w	r2, r2, #256	; 0x100
 8005e00:	601a      	str	r2, [r3, #0]
 8005e02:	f7fb fb51 	bl	80014a8 <HAL_GetTick>
 8005e06:	4680      	mov	r8, r0
 8005e08:	e006      	b.n	8005e18 <HAL_RCCEx_PeriphCLKConfig+0x370>
 8005e0a:	f7fb fb4d 	bl	80014a8 <HAL_GetTick>
 8005e0e:	eba0 0008 	sub.w	r0, r0, r8
 8005e12:	2864      	cmp	r0, #100	; 0x64
 8005e14:	f200 8241 	bhi.w	800629a <HAL_RCCEx_PeriphCLKConfig+0x7f2>
 8005e18:	683b      	ldr	r3, [r7, #0]
 8005e1a:	05da      	lsls	r2, r3, #23
 8005e1c:	d5f5      	bpl.n	8005e0a <HAL_RCCEx_PeriphCLKConfig+0x362>
 8005e1e:	2d00      	cmp	r5, #0
 8005e20:	f040 849e 	bne.w	8006760 <HAL_RCCEx_PeriphCLKConfig+0xcb8>
 8005e24:	4a4c      	ldr	r2, [pc, #304]	; (8005f58 <HAL_RCCEx_PeriphCLKConfig+0x4b0>)
 8005e26:	f8d4 30b0 	ldr.w	r3, [r4, #176]	; 0xb0
 8005e2a:	6f11      	ldr	r1, [r2, #112]	; 0x70
 8005e2c:	4059      	eors	r1, r3
 8005e2e:	f411 7f40 	tst.w	r1, #768	; 0x300
 8005e32:	d00b      	beq.n	8005e4c <HAL_RCCEx_PeriphCLKConfig+0x3a4>
 8005e34:	6f11      	ldr	r1, [r2, #112]	; 0x70
 8005e36:	6f10      	ldr	r0, [r2, #112]	; 0x70
 8005e38:	f421 7140 	bic.w	r1, r1, #768	; 0x300
 8005e3c:	f440 3080 	orr.w	r0, r0, #65536	; 0x10000
 8005e40:	6710      	str	r0, [r2, #112]	; 0x70
 8005e42:	6f10      	ldr	r0, [r2, #112]	; 0x70
 8005e44:	f420 3080 	bic.w	r0, r0, #65536	; 0x10000
 8005e48:	6710      	str	r0, [r2, #112]	; 0x70
 8005e4a:	6711      	str	r1, [r2, #112]	; 0x70
 8005e4c:	f5b3 7f80 	cmp.w	r3, #256	; 0x100
 8005e50:	f000 83db 	beq.w	800660a <HAL_RCCEx_PeriphCLKConfig+0xb62>
 8005e54:	f403 7240 	and.w	r2, r3, #768	; 0x300
 8005e58:	f5b2 7f40 	cmp.w	r2, #768	; 0x300
 8005e5c:	f000 8475 	beq.w	800674a <HAL_RCCEx_PeriphCLKConfig+0xca2>
 8005e60:	493d      	ldr	r1, [pc, #244]	; (8005f58 <HAL_RCCEx_PeriphCLKConfig+0x4b0>)
 8005e62:	690a      	ldr	r2, [r1, #16]
 8005e64:	f422 527c 	bic.w	r2, r2, #16128	; 0x3f00
 8005e68:	610a      	str	r2, [r1, #16]
 8005e6a:	4a3b      	ldr	r2, [pc, #236]	; (8005f58 <HAL_RCCEx_PeriphCLKConfig+0x4b0>)
 8005e6c:	f3c3 030b 	ubfx	r3, r3, #0, #12
 8005e70:	6f11      	ldr	r1, [r2, #112]	; 0x70
 8005e72:	430b      	orrs	r3, r1
 8005e74:	6713      	str	r3, [r2, #112]	; 0x70
 8005e76:	6823      	ldr	r3, [r4, #0]
 8005e78:	07df      	lsls	r7, r3, #31
 8005e7a:	d53f      	bpl.n	8005efc <HAL_RCCEx_PeriphCLKConfig+0x454>
 8005e7c:	6fa2      	ldr	r2, [r4, #120]	; 0x78
 8005e7e:	2a28      	cmp	r2, #40	; 0x28
 8005e80:	f200 83b0 	bhi.w	80065e4 <HAL_RCCEx_PeriphCLKConfig+0xb3c>
 8005e84:	e8df f012 	tbh	[pc, r2, lsl #1]
 8005e88:	03ae0030 	.word	0x03ae0030
 8005e8c:	03ae03ae 	.word	0x03ae03ae
 8005e90:	03ae03ae 	.word	0x03ae03ae
 8005e94:	03ae03ae 	.word	0x03ae03ae
 8005e98:	03ae028c 	.word	0x03ae028c
 8005e9c:	03ae03ae 	.word	0x03ae03ae
 8005ea0:	03ae03ae 	.word	0x03ae03ae
 8005ea4:	03ae03ae 	.word	0x03ae03ae
 8005ea8:	03ae0029 	.word	0x03ae0029
 8005eac:	03ae03ae 	.word	0x03ae03ae
 8005eb0:	03ae03ae 	.word	0x03ae03ae
 8005eb4:	03ae03ae 	.word	0x03ae03ae
 8005eb8:	03ae0030 	.word	0x03ae0030
 8005ebc:	03ae03ae 	.word	0x03ae03ae
 8005ec0:	03ae03ae 	.word	0x03ae03ae
 8005ec4:	03ae03ae 	.word	0x03ae03ae
 8005ec8:	03ae0030 	.word	0x03ae0030
 8005ecc:	03ae03ae 	.word	0x03ae03ae
 8005ed0:	03ae03ae 	.word	0x03ae03ae
 8005ed4:	03ae03ae 	.word	0x03ae03ae
 8005ed8:	0030      	.short	0x0030
 8005eda:	2101      	movs	r1, #1
 8005edc:	f104 0024 	add.w	r0, r4, #36	; 0x24
 8005ee0:	f7ff fcf2 	bl	80058c8 <RCCEx_PLL3_Config>
 8005ee4:	6823      	ldr	r3, [r4, #0]
 8005ee6:	4605      	mov	r5, r0
 8005ee8:	2d00      	cmp	r5, #0
 8005eea:	f040 81da 	bne.w	80062a2 <HAL_RCCEx_PeriphCLKConfig+0x7fa>
 8005eee:	491a      	ldr	r1, [pc, #104]	; (8005f58 <HAL_RCCEx_PeriphCLKConfig+0x4b0>)
 8005ef0:	6fa0      	ldr	r0, [r4, #120]	; 0x78
 8005ef2:	6d4a      	ldr	r2, [r1, #84]	; 0x54
 8005ef4:	f022 0238 	bic.w	r2, r2, #56	; 0x38
 8005ef8:	4302      	orrs	r2, r0
 8005efa:	654a      	str	r2, [r1, #84]	; 0x54
 8005efc:	0798      	lsls	r0, r3, #30
 8005efe:	d51c      	bpl.n	8005f3a <HAL_RCCEx_PeriphCLKConfig+0x492>
 8005f00:	6f62      	ldr	r2, [r4, #116]	; 0x74
 8005f02:	2a05      	cmp	r2, #5
 8005f04:	f200 8430 	bhi.w	8006768 <HAL_RCCEx_PeriphCLKConfig+0xcc0>
 8005f08:	e8df f012 	tbh	[pc, r2, lsl #1]
 8005f0c:	0204000d 	.word	0x0204000d
 8005f10:	000d0006 	.word	0x000d0006
 8005f14:	000d000d 	.word	0x000d000d
 8005f18:	2101      	movs	r1, #1
 8005f1a:	f104 0024 	add.w	r0, r4, #36	; 0x24
 8005f1e:	f7ff fcd3 	bl	80058c8 <RCCEx_PLL3_Config>
 8005f22:	6823      	ldr	r3, [r4, #0]
 8005f24:	4605      	mov	r5, r0
 8005f26:	2d00      	cmp	r5, #0
 8005f28:	f040 81bf 	bne.w	80062aa <HAL_RCCEx_PeriphCLKConfig+0x802>
 8005f2c:	490a      	ldr	r1, [pc, #40]	; (8005f58 <HAL_RCCEx_PeriphCLKConfig+0x4b0>)
 8005f2e:	6f60      	ldr	r0, [r4, #116]	; 0x74
 8005f30:	6d4a      	ldr	r2, [r1, #84]	; 0x54
 8005f32:	f022 0207 	bic.w	r2, r2, #7
 8005f36:	4302      	orrs	r2, r0
 8005f38:	654a      	str	r2, [r1, #84]	; 0x54
 8005f3a:	0759      	lsls	r1, r3, #29
 8005f3c:	d528      	bpl.n	8005f90 <HAL_RCCEx_PeriphCLKConfig+0x4e8>
 8005f3e:	f8d4 2090 	ldr.w	r2, [r4, #144]	; 0x90
 8005f42:	2a05      	cmp	r2, #5
 8005f44:	f200 8418 	bhi.w	8006778 <HAL_RCCEx_PeriphCLKConfig+0xcd0>
 8005f48:	e8df f012 	tbh	[pc, r2, lsl #1]
 8005f4c:	01ed0017 	.word	0x01ed0017
 8005f50:	00170010 	.word	0x00170010
 8005f54:	00170017 	.word	0x00170017
 8005f58:	58024400 	.word	0x58024400
 8005f5c:	00010300 	.word	0x00010300
 8005f60:	00014300 	.word	0x00014300
 8005f64:	58024800 	.word	0x58024800
 8005f68:	00018300 	.word	0x00018300
 8005f6c:	2101      	movs	r1, #1
 8005f6e:	f104 0024 	add.w	r0, r4, #36	; 0x24
 8005f72:	f7ff fca9 	bl	80058c8 <RCCEx_PLL3_Config>
 8005f76:	6823      	ldr	r3, [r4, #0]
 8005f78:	4605      	mov	r5, r0
 8005f7a:	2d00      	cmp	r5, #0
 8005f7c:	f040 8197 	bne.w	80062ae <HAL_RCCEx_PeriphCLKConfig+0x806>
 8005f80:	49bd      	ldr	r1, [pc, #756]	; (8006278 <HAL_RCCEx_PeriphCLKConfig+0x7d0>)
 8005f82:	f8d4 0090 	ldr.w	r0, [r4, #144]	; 0x90
 8005f86:	6d8a      	ldr	r2, [r1, #88]	; 0x58
 8005f88:	f022 0207 	bic.w	r2, r2, #7
 8005f8c:	4302      	orrs	r2, r0
 8005f8e:	658a      	str	r2, [r1, #88]	; 0x58
 8005f90:	069a      	lsls	r2, r3, #26
 8005f92:	d51d      	bpl.n	8005fd0 <HAL_RCCEx_PeriphCLKConfig+0x528>
 8005f94:	f8d4 208c 	ldr.w	r2, [r4, #140]	; 0x8c
 8005f98:	f1b2 5f00 	cmp.w	r2, #536870912	; 0x20000000
 8005f9c:	f000 8233 	beq.w	8006406 <HAL_RCCEx_PeriphCLKConfig+0x95e>
 8005fa0:	f200 8385 	bhi.w	80066ae <HAL_RCCEx_PeriphCLKConfig+0xc06>
 8005fa4:	b14a      	cbz	r2, 8005fba <HAL_RCCEx_PeriphCLKConfig+0x512>
 8005fa6:	f1b2 5f80 	cmp.w	r2, #268435456	; 0x10000000
 8005faa:	f040 838c 	bne.w	80066c6 <HAL_RCCEx_PeriphCLKConfig+0xc1e>
 8005fae:	2100      	movs	r1, #0
 8005fb0:	1d20      	adds	r0, r4, #4
 8005fb2:	f7ff fb99 	bl	80056e8 <RCCEx_PLL2_Config>
 8005fb6:	6823      	ldr	r3, [r4, #0]
 8005fb8:	4605      	mov	r5, r0
 8005fba:	2d00      	cmp	r5, #0
 8005fbc:	f040 817d 	bne.w	80062ba <HAL_RCCEx_PeriphCLKConfig+0x812>
 8005fc0:	49ad      	ldr	r1, [pc, #692]	; (8006278 <HAL_RCCEx_PeriphCLKConfig+0x7d0>)
 8005fc2:	f8d4 008c 	ldr.w	r0, [r4, #140]	; 0x8c
 8005fc6:	6d4a      	ldr	r2, [r1, #84]	; 0x54
 8005fc8:	f022 42e0 	bic.w	r2, r2, #1879048192	; 0x70000000
 8005fcc:	4302      	orrs	r2, r0
 8005fce:	654a      	str	r2, [r1, #84]	; 0x54
 8005fd0:	065f      	lsls	r7, r3, #25
 8005fd2:	d51d      	bpl.n	8006010 <HAL_RCCEx_PeriphCLKConfig+0x568>
 8005fd4:	f8d4 2098 	ldr.w	r2, [r4, #152]	; 0x98
 8005fd8:	f5b2 6f00 	cmp.w	r2, #2048	; 0x800
 8005fdc:	f000 823d 	beq.w	800645a <HAL_RCCEx_PeriphCLKConfig+0x9b2>
 8005fe0:	f200 8337 	bhi.w	8006652 <HAL_RCCEx_PeriphCLKConfig+0xbaa>
 8005fe4:	b14a      	cbz	r2, 8005ffa <HAL_RCCEx_PeriphCLKConfig+0x552>
 8005fe6:	f5b2 6f80 	cmp.w	r2, #1024	; 0x400
 8005fea:	f040 833e 	bne.w	800666a <HAL_RCCEx_PeriphCLKConfig+0xbc2>
 8005fee:	2100      	movs	r1, #0
 8005ff0:	1d20      	adds	r0, r4, #4
 8005ff2:	f7ff fb79 	bl	80056e8 <RCCEx_PLL2_Config>
 8005ff6:	6823      	ldr	r3, [r4, #0]
 8005ff8:	4605      	mov	r5, r0
 8005ffa:	2d00      	cmp	r5, #0
 8005ffc:	f040 8161 	bne.w	80062c2 <HAL_RCCEx_PeriphCLKConfig+0x81a>
 8006000:	499d      	ldr	r1, [pc, #628]	; (8006278 <HAL_RCCEx_PeriphCLKConfig+0x7d0>)
 8006002:	f8d4 0098 	ldr.w	r0, [r4, #152]	; 0x98
 8006006:	6d8a      	ldr	r2, [r1, #88]	; 0x58
 8006008:	f422 52e0 	bic.w	r2, r2, #7168	; 0x1c00
 800600c:	4302      	orrs	r2, r0
 800600e:	658a      	str	r2, [r1, #88]	; 0x58
 8006010:	0618      	lsls	r0, r3, #24
 8006012:	d51d      	bpl.n	8006050 <HAL_RCCEx_PeriphCLKConfig+0x5a8>
 8006014:	f8d4 209c 	ldr.w	r2, [r4, #156]	; 0x9c
 8006018:	f5b2 4f80 	cmp.w	r2, #16384	; 0x4000
 800601c:	f000 8228 	beq.w	8006470 <HAL_RCCEx_PeriphCLKConfig+0x9c8>
 8006020:	f200 8326 	bhi.w	8006670 <HAL_RCCEx_PeriphCLKConfig+0xbc8>
 8006024:	b14a      	cbz	r2, 800603a <HAL_RCCEx_PeriphCLKConfig+0x592>
 8006026:	f5b2 5f00 	cmp.w	r2, #8192	; 0x2000
 800602a:	f040 832d 	bne.w	8006688 <HAL_RCCEx_PeriphCLKConfig+0xbe0>
 800602e:	2100      	movs	r1, #0
 8006030:	1d20      	adds	r0, r4, #4
 8006032:	f7ff fb59 	bl	80056e8 <RCCEx_PLL2_Config>
 8006036:	6823      	ldr	r3, [r4, #0]
 8006038:	4605      	mov	r5, r0
 800603a:	2d00      	cmp	r5, #0
 800603c:	f040 813f 	bne.w	80062be <HAL_RCCEx_PeriphCLKConfig+0x816>
 8006040:	498d      	ldr	r1, [pc, #564]	; (8006278 <HAL_RCCEx_PeriphCLKConfig+0x7d0>)
 8006042:	f8d4 009c 	ldr.w	r0, [r4, #156]	; 0x9c
 8006046:	6d8a      	ldr	r2, [r1, #88]	; 0x58
 8006048:	f422 4260 	bic.w	r2, r2, #57344	; 0xe000
 800604c:	4302      	orrs	r2, r0
 800604e:	658a      	str	r2, [r1, #88]	; 0x58
 8006050:	0719      	lsls	r1, r3, #28
 8006052:	d510      	bpl.n	8006076 <HAL_RCCEx_PeriphCLKConfig+0x5ce>
 8006054:	f8d4 2080 	ldr.w	r2, [r4, #128]	; 0x80
 8006058:	f432 5340 	bics.w	r3, r2, #12288	; 0x3000
 800605c:	f040 82cd 	bne.w	80065fa <HAL_RCCEx_PeriphCLKConfig+0xb52>
 8006060:	f5b2 5f80 	cmp.w	r2, #4096	; 0x1000
 8006064:	f000 8234 	beq.w	80064d0 <HAL_RCCEx_PeriphCLKConfig+0xa28>
 8006068:	4983      	ldr	r1, [pc, #524]	; (8006278 <HAL_RCCEx_PeriphCLKConfig+0x7d0>)
 800606a:	6d4b      	ldr	r3, [r1, #84]	; 0x54
 800606c:	f423 5340 	bic.w	r3, r3, #12288	; 0x3000
 8006070:	4313      	orrs	r3, r2
 8006072:	654b      	str	r3, [r1, #84]	; 0x54
 8006074:	6823      	ldr	r3, [r4, #0]
 8006076:	06da      	lsls	r2, r3, #27
 8006078:	d516      	bpl.n	80060a8 <HAL_RCCEx_PeriphCLKConfig+0x600>
 800607a:	f8d4 3094 	ldr.w	r3, [r4, #148]	; 0x94
 800607e:	f5b3 7f00 	cmp.w	r3, #512	; 0x200
 8006082:	bf18      	it	ne
 8006084:	f5b3 5f40 	cmpne.w	r3, #12288	; 0x3000
 8006088:	d003      	beq.n	8006092 <HAL_RCCEx_PeriphCLKConfig+0x5ea>
 800608a:	f433 7280 	bics.w	r2, r3, #256	; 0x100
 800608e:	f040 82ac 	bne.w	80065ea <HAL_RCCEx_PeriphCLKConfig+0xb42>
 8006092:	f5b3 7f80 	cmp.w	r3, #256	; 0x100
 8006096:	f000 8210 	beq.w	80064ba <HAL_RCCEx_PeriphCLKConfig+0xa12>
 800609a:	4977      	ldr	r1, [pc, #476]	; (8006278 <HAL_RCCEx_PeriphCLKConfig+0x7d0>)
 800609c:	6d8a      	ldr	r2, [r1, #88]	; 0x58
 800609e:	f422 7240 	bic.w	r2, r2, #768	; 0x300
 80060a2:	4313      	orrs	r3, r2
 80060a4:	658b      	str	r3, [r1, #88]	; 0x58
 80060a6:	6823      	ldr	r3, [r4, #0]
 80060a8:	031f      	lsls	r7, r3, #12
 80060aa:	d50e      	bpl.n	80060ca <HAL_RCCEx_PeriphCLKConfig+0x622>
 80060ac:	f8d4 10a0 	ldr.w	r1, [r4, #160]	; 0xa0
 80060b0:	f5b1 3f80 	cmp.w	r1, #65536	; 0x10000
 80060b4:	f000 80bd 	beq.w	8006232 <HAL_RCCEx_PeriphCLKConfig+0x78a>
 80060b8:	f5b1 3f00 	cmp.w	r1, #131072	; 0x20000
 80060bc:	f000 80c0 	beq.w	8006240 <HAL_RCCEx_PeriphCLKConfig+0x798>
 80060c0:	2900      	cmp	r1, #0
 80060c2:	f000 827d 	beq.w	80065c0 <HAL_RCCEx_PeriphCLKConfig+0xb18>
 80060c6:	2601      	movs	r6, #1
 80060c8:	4635      	mov	r5, r6
 80060ca:	0358      	lsls	r0, r3, #13
 80060cc:	d50f      	bpl.n	80060ee <HAL_RCCEx_PeriphCLKConfig+0x646>
 80060ce:	f8d4 2084 	ldr.w	r2, [r4, #132]	; 0x84
 80060d2:	f5b2 1f00 	cmp.w	r2, #2097152	; 0x200000
 80060d6:	f000 809a 	beq.w	800620e <HAL_RCCEx_PeriphCLKConfig+0x766>
 80060da:	f5b2 1f40 	cmp.w	r2, #3145728	; 0x300000
 80060de:	f000 809d 	beq.w	800621c <HAL_RCCEx_PeriphCLKConfig+0x774>
 80060e2:	f5b2 1f80 	cmp.w	r2, #1048576	; 0x100000
 80060e6:	f000 8274 	beq.w	80065d2 <HAL_RCCEx_PeriphCLKConfig+0xb2a>
 80060ea:	2601      	movs	r6, #1
 80060ec:	4635      	mov	r5, r6
 80060ee:	03d9      	lsls	r1, r3, #15
 80060f0:	d51b      	bpl.n	800612a <HAL_RCCEx_PeriphCLKConfig+0x682>
 80060f2:	6ce3      	ldr	r3, [r4, #76]	; 0x4c
 80060f4:	f433 3280 	bics.w	r2, r3, #65536	; 0x10000
 80060f8:	f040 8137 	bne.w	800636a <HAL_RCCEx_PeriphCLKConfig+0x8c2>
 80060fc:	2b00      	cmp	r3, #0
 80060fe:	f000 80ec 	beq.w	80062da <HAL_RCCEx_PeriphCLKConfig+0x832>
 8006102:	f5b3 3f80 	cmp.w	r3, #65536	; 0x10000
 8006106:	f040 80e4 	bne.w	80062d2 <HAL_RCCEx_PeriphCLKConfig+0x82a>
 800610a:	2102      	movs	r1, #2
 800610c:	1d20      	adds	r0, r4, #4
 800610e:	f7ff faeb 	bl	80056e8 <RCCEx_PLL2_Config>
 8006112:	4605      	mov	r5, r0
 8006114:	6823      	ldr	r3, [r4, #0]
 8006116:	2d00      	cmp	r5, #0
 8006118:	f040 80e8 	bne.w	80062ec <HAL_RCCEx_PeriphCLKConfig+0x844>
 800611c:	4956      	ldr	r1, [pc, #344]	; (8006278 <HAL_RCCEx_PeriphCLKConfig+0x7d0>)
 800611e:	6ce0      	ldr	r0, [r4, #76]	; 0x4c
 8006120:	6cca      	ldr	r2, [r1, #76]	; 0x4c
 8006122:	f422 3280 	bic.w	r2, r2, #65536	; 0x10000
 8006126:	4302      	orrs	r2, r0
 8006128:	64ca      	str	r2, [r1, #76]	; 0x4c
 800612a:	009a      	lsls	r2, r3, #2
 800612c:	f100 80aa 	bmi.w	8006284 <HAL_RCCEx_PeriphCLKConfig+0x7dc>
 8006130:	039f      	lsls	r7, r3, #14
 8006132:	d43f      	bmi.n	80061b4 <HAL_RCCEx_PeriphCLKConfig+0x70c>
 8006134:	3600      	adds	r6, #0
 8006136:	bf18      	it	ne
 8006138:	2601      	movne	r6, #1
 800613a:	02dd      	lsls	r5, r3, #11
 800613c:	d50a      	bpl.n	8006154 <HAL_RCCEx_PeriphCLKConfig+0x6ac>
 800613e:	6f21      	ldr	r1, [r4, #112]	; 0x70
 8006140:	f031 4200 	bics.w	r2, r1, #2147483648	; 0x80000000
 8006144:	f040 8124 	bne.w	8006390 <HAL_RCCEx_PeriphCLKConfig+0x8e8>
 8006148:	484b      	ldr	r0, [pc, #300]	; (8006278 <HAL_RCCEx_PeriphCLKConfig+0x7d0>)
 800614a:	6d02      	ldr	r2, [r0, #80]	; 0x50
 800614c:	f022 4200 	bic.w	r2, r2, #2147483648	; 0x80000000
 8006150:	430a      	orrs	r2, r1
 8006152:	6502      	str	r2, [r0, #80]	; 0x50
 8006154:	00d8      	lsls	r0, r3, #3
 8006156:	d50b      	bpl.n	8006170 <HAL_RCCEx_PeriphCLKConfig+0x6c8>
 8006158:	f8d4 10b4 	ldr.w	r1, [r4, #180]	; 0xb4
 800615c:	f431 4280 	bics.w	r2, r1, #16384	; 0x4000
 8006160:	f040 80f2 	bne.w	8006348 <HAL_RCCEx_PeriphCLKConfig+0x8a0>
 8006164:	4844      	ldr	r0, [pc, #272]	; (8006278 <HAL_RCCEx_PeriphCLKConfig+0x7d0>)
 8006166:	6902      	ldr	r2, [r0, #16]
 8006168:	f422 4280 	bic.w	r2, r2, #16384	; 0x4000
 800616c:	430a      	orrs	r2, r1
 800616e:	6102      	str	r2, [r0, #16]
 8006170:	0299      	lsls	r1, r3, #10
 8006172:	d50a      	bpl.n	800618a <HAL_RCCEx_PeriphCLKConfig+0x6e2>
 8006174:	6ea1      	ldr	r1, [r4, #104]	; 0x68
 8006176:	f031 7280 	bics.w	r2, r1, #16777216	; 0x1000000
 800617a:	f040 80ee 	bne.w	800635a <HAL_RCCEx_PeriphCLKConfig+0x8b2>
 800617e:	483e      	ldr	r0, [pc, #248]	; (8006278 <HAL_RCCEx_PeriphCLKConfig+0x7d0>)
 8006180:	6d02      	ldr	r2, [r0, #80]	; 0x50
 8006182:	f022 7280 	bic.w	r2, r2, #16777216	; 0x1000000
 8006186:	430a      	orrs	r2, r1
 8006188:	6502      	str	r2, [r0, #80]	; 0x50
 800618a:	005a      	lsls	r2, r3, #1
 800618c:	d50d      	bpl.n	80061aa <HAL_RCCEx_PeriphCLKConfig+0x702>
 800618e:	f8d4 50b8 	ldr.w	r5, [r4, #184]	; 0xb8
 8006192:	f435 4200 	bics.w	r2, r5, #32768	; 0x8000
 8006196:	f040 80f2 	bne.w	800637e <HAL_RCCEx_PeriphCLKConfig+0x8d6>
 800619a:	4a37      	ldr	r2, [pc, #220]	; (8006278 <HAL_RCCEx_PeriphCLKConfig+0x7d0>)
 800619c:	6910      	ldr	r0, [r2, #16]
 800619e:	f420 4000 	bic.w	r0, r0, #32768	; 0x8000
 80061a2:	6110      	str	r0, [r2, #16]
 80061a4:	6911      	ldr	r1, [r2, #16]
 80061a6:	4329      	orrs	r1, r5
 80061a8:	6111      	str	r1, [r2, #16]
 80061aa:	2b00      	cmp	r3, #0
 80061ac:	db53      	blt.n	8006256 <HAL_RCCEx_PeriphCLKConfig+0x7ae>
 80061ae:	4630      	mov	r0, r6
 80061b0:	e8bd 83f8 	ldmia.w	sp!, {r3, r4, r5, r6, r7, r8, r9, pc}
 80061b4:	6fe2      	ldr	r2, [r4, #124]	; 0x7c
 80061b6:	f5b2 7f80 	cmp.w	r2, #256	; 0x100
 80061ba:	f000 8099 	beq.w	80062f0 <HAL_RCCEx_PeriphCLKConfig+0x848>
 80061be:	f240 80f9 	bls.w	80063b4 <HAL_RCCEx_PeriphCLKConfig+0x90c>
 80061c2:	f5b2 7f00 	cmp.w	r2, #512	; 0x200
 80061c6:	f000 8098 	beq.w	80062fa <HAL_RCCEx_PeriphCLKConfig+0x852>
 80061ca:	f5b2 7f40 	cmp.w	r2, #768	; 0x300
 80061ce:	f000 8094 	beq.w	80062fa <HAL_RCCEx_PeriphCLKConfig+0x852>
 80061d2:	2601      	movs	r6, #1
 80061d4:	e7b1      	b.n	800613a <HAL_RCCEx_PeriphCLKConfig+0x692>
 80061d6:	f422 5280 	bic.w	r2, r2, #4096	; 0x1000
 80061da:	4b28      	ldr	r3, [pc, #160]	; (800627c <HAL_RCCEx_PeriphCLKConfig+0x7d4>)
 80061dc:	429a      	cmp	r2, r3
 80061de:	f43f ae0a 	beq.w	8005df6 <HAL_RCCEx_PeriphCLKConfig+0x34e>
 80061e2:	f44f 712f 	mov.w	r1, #700	; 0x2bc
 80061e6:	4826      	ldr	r0, [pc, #152]	; (8006280 <HAL_RCCEx_PeriphCLKConfig+0x7d8>)
 80061e8:	f7fa fe5a 	bl	8000ea0 <assert_failed>
 80061ec:	e603      	b.n	8005df6 <HAL_RCCEx_PeriphCLKConfig+0x34e>
 80061ee:	2101      	movs	r1, #1
 80061f0:	1d20      	adds	r0, r4, #4
 80061f2:	f7ff fa79 	bl	80056e8 <RCCEx_PLL2_Config>
 80061f6:	6823      	ldr	r3, [r4, #0]
 80061f8:	4605      	mov	r5, r0
 80061fa:	2d00      	cmp	r5, #0
 80061fc:	d163      	bne.n	80062c6 <HAL_RCCEx_PeriphCLKConfig+0x81e>
 80061fe:	491e      	ldr	r1, [pc, #120]	; (8006278 <HAL_RCCEx_PeriphCLKConfig+0x7d0>)
 8006200:	6ee0      	ldr	r0, [r4, #108]	; 0x6c
 8006202:	6d0a      	ldr	r2, [r1, #80]	; 0x50
 8006204:	f022 5240 	bic.w	r2, r2, #805306368	; 0x30000000
 8006208:	4302      	orrs	r2, r0
 800620a:	650a      	str	r2, [r1, #80]	; 0x50
 800620c:	e557      	b.n	8005cbe <HAL_RCCEx_PeriphCLKConfig+0x216>
 800620e:	2101      	movs	r1, #1
 8006210:	f104 0024 	add.w	r0, r4, #36	; 0x24
 8006214:	f7ff fb58 	bl	80058c8 <RCCEx_PLL3_Config>
 8006218:	6823      	ldr	r3, [r4, #0]
 800621a:	4605      	mov	r5, r0
 800621c:	2d00      	cmp	r5, #0
 800621e:	d154      	bne.n	80062ca <HAL_RCCEx_PeriphCLKConfig+0x822>
 8006220:	4915      	ldr	r1, [pc, #84]	; (8006278 <HAL_RCCEx_PeriphCLKConfig+0x7d0>)
 8006222:	f8d4 0084 	ldr.w	r0, [r4, #132]	; 0x84
 8006226:	6d4a      	ldr	r2, [r1, #84]	; 0x54
 8006228:	f422 1240 	bic.w	r2, r2, #3145728	; 0x300000
 800622c:	4302      	orrs	r2, r0
 800622e:	654a      	str	r2, [r1, #84]	; 0x54
 8006230:	e75d      	b.n	80060ee <HAL_RCCEx_PeriphCLKConfig+0x646>
 8006232:	2102      	movs	r1, #2
 8006234:	f104 0024 	add.w	r0, r4, #36	; 0x24
 8006238:	f7ff fb46 	bl	80058c8 <RCCEx_PLL3_Config>
 800623c:	6823      	ldr	r3, [r4, #0]
 800623e:	4605      	mov	r5, r0
 8006240:	2d00      	cmp	r5, #0
 8006242:	d136      	bne.n	80062b2 <HAL_RCCEx_PeriphCLKConfig+0x80a>
 8006244:	490c      	ldr	r1, [pc, #48]	; (8006278 <HAL_RCCEx_PeriphCLKConfig+0x7d0>)
 8006246:	f8d4 00a0 	ldr.w	r0, [r4, #160]	; 0xa0
 800624a:	6d8a      	ldr	r2, [r1, #88]	; 0x58
 800624c:	f422 3240 	bic.w	r2, r2, #196608	; 0x30000
 8006250:	4302      	orrs	r2, r0
 8006252:	658a      	str	r2, [r1, #88]	; 0x58
 8006254:	e739      	b.n	80060ca <HAL_RCCEx_PeriphCLKConfig+0x622>
 8006256:	6d22      	ldr	r2, [r4, #80]	; 0x50
 8006258:	f032 5380 	bics.w	r3, r2, #268435456	; 0x10000000
 800625c:	d003      	beq.n	8006266 <HAL_RCCEx_PeriphCLKConfig+0x7be>
 800625e:	f1b2 5f00 	cmp.w	r2, #536870912	; 0x20000000
 8006262:	f040 81a2 	bne.w	80065aa <HAL_RCCEx_PeriphCLKConfig+0xb02>
 8006266:	4904      	ldr	r1, [pc, #16]	; (8006278 <HAL_RCCEx_PeriphCLKConfig+0x7d0>)
 8006268:	4630      	mov	r0, r6
 800626a:	6ccb      	ldr	r3, [r1, #76]	; 0x4c
 800626c:	f023 5340 	bic.w	r3, r3, #805306368	; 0x30000000
 8006270:	4313      	orrs	r3, r2
 8006272:	64cb      	str	r3, [r1, #76]	; 0x4c
 8006274:	e8bd 83f8 	ldmia.w	sp!, {r3, r4, r5, r6, r7, r8, r9, pc}
 8006278:	58024400 	.word	0x58024400
 800627c:	0003e300 	.word	0x0003e300
 8006280:	0800d180 	.word	0x0800d180
 8006284:	2102      	movs	r1, #2
 8006286:	f104 0024 	add.w	r0, r4, #36	; 0x24
 800628a:	f7ff fb1d 	bl	80058c8 <RCCEx_PLL3_Config>
 800628e:	6823      	ldr	r3, [r4, #0]
 8006290:	2800      	cmp	r0, #0
 8006292:	f43f af4d 	beq.w	8006130 <HAL_RCCEx_PeriphCLKConfig+0x688>
 8006296:	2601      	movs	r6, #1
 8006298:	e74a      	b.n	8006130 <HAL_RCCEx_PeriphCLKConfig+0x688>
 800629a:	2603      	movs	r6, #3
 800629c:	6823      	ldr	r3, [r4, #0]
 800629e:	4635      	mov	r5, r6
 80062a0:	e5ea      	b.n	8005e78 <HAL_RCCEx_PeriphCLKConfig+0x3d0>
 80062a2:	462e      	mov	r6, r5
 80062a4:	e62a      	b.n	8005efc <HAL_RCCEx_PeriphCLKConfig+0x454>
 80062a6:	462e      	mov	r6, r5
 80062a8:	e528      	b.n	8005cfc <HAL_RCCEx_PeriphCLKConfig+0x254>
 80062aa:	462e      	mov	r6, r5
 80062ac:	e645      	b.n	8005f3a <HAL_RCCEx_PeriphCLKConfig+0x492>
 80062ae:	462e      	mov	r6, r5
 80062b0:	e66e      	b.n	8005f90 <HAL_RCCEx_PeriphCLKConfig+0x4e8>
 80062b2:	462e      	mov	r6, r5
 80062b4:	e709      	b.n	80060ca <HAL_RCCEx_PeriphCLKConfig+0x622>
 80062b6:	462e      	mov	r6, r5
 80062b8:	e4f1      	b.n	8005c9e <HAL_RCCEx_PeriphCLKConfig+0x1f6>
 80062ba:	462e      	mov	r6, r5
 80062bc:	e688      	b.n	8005fd0 <HAL_RCCEx_PeriphCLKConfig+0x528>
 80062be:	462e      	mov	r6, r5
 80062c0:	e6c6      	b.n	8006050 <HAL_RCCEx_PeriphCLKConfig+0x5a8>
 80062c2:	462e      	mov	r6, r5
 80062c4:	e6a4      	b.n	8006010 <HAL_RCCEx_PeriphCLKConfig+0x568>
 80062c6:	462e      	mov	r6, r5
 80062c8:	e4f9      	b.n	8005cbe <HAL_RCCEx_PeriphCLKConfig+0x216>
 80062ca:	462e      	mov	r6, r5
 80062cc:	e70f      	b.n	80060ee <HAL_RCCEx_PeriphCLKConfig+0x646>
 80062ce:	462e      	mov	r6, r5
 80062d0:	e4c5      	b.n	8005c5e <HAL_RCCEx_PeriphCLKConfig+0x1b6>
 80062d2:	2601      	movs	r6, #1
 80062d4:	6823      	ldr	r3, [r4, #0]
 80062d6:	4635      	mov	r5, r6
 80062d8:	e727      	b.n	800612a <HAL_RCCEx_PeriphCLKConfig+0x682>
 80062da:	4ab7      	ldr	r2, [pc, #732]	; (80065b8 <HAL_RCCEx_PeriphCLKConfig+0xb10>)
 80062dc:	6ad3      	ldr	r3, [r2, #44]	; 0x2c
 80062de:	f443 3300 	orr.w	r3, r3, #131072	; 0x20000
 80062e2:	62d3      	str	r3, [r2, #44]	; 0x2c
 80062e4:	6823      	ldr	r3, [r4, #0]
 80062e6:	2d00      	cmp	r5, #0
 80062e8:	f43f af18 	beq.w	800611c <HAL_RCCEx_PeriphCLKConfig+0x674>
 80062ec:	462e      	mov	r6, r5
 80062ee:	e71c      	b.n	800612a <HAL_RCCEx_PeriphCLKConfig+0x682>
 80062f0:	48b1      	ldr	r0, [pc, #708]	; (80065b8 <HAL_RCCEx_PeriphCLKConfig+0xb10>)
 80062f2:	6ac1      	ldr	r1, [r0, #44]	; 0x2c
 80062f4:	f441 3100 	orr.w	r1, r1, #131072	; 0x20000
 80062f8:	62c1      	str	r1, [r0, #44]	; 0x2c
 80062fa:	2d00      	cmp	r5, #0
 80062fc:	f47f af69 	bne.w	80061d2 <HAL_RCCEx_PeriphCLKConfig+0x72a>
 8006300:	48ad      	ldr	r0, [pc, #692]	; (80065b8 <HAL_RCCEx_PeriphCLKConfig+0xb10>)
 8006302:	3600      	adds	r6, #0
 8006304:	6d41      	ldr	r1, [r0, #84]	; 0x54
 8006306:	bf18      	it	ne
 8006308:	2601      	movne	r6, #1
 800630a:	f421 7140 	bic.w	r1, r1, #768	; 0x300
 800630e:	430a      	orrs	r2, r1
 8006310:	6542      	str	r2, [r0, #84]	; 0x54
 8006312:	e712      	b.n	800613a <HAL_RCCEx_PeriphCLKConfig+0x692>
 8006314:	2101      	movs	r1, #1
 8006316:	1d20      	adds	r0, r4, #4
 8006318:	f7ff f9e6 	bl	80056e8 <RCCEx_PLL2_Config>
 800631c:	4605      	mov	r5, r0
 800631e:	6823      	ldr	r3, [r4, #0]
 8006320:	2d00      	cmp	r5, #0
 8006322:	d1c2      	bne.n	80062aa <HAL_RCCEx_PeriphCLKConfig+0x802>
 8006324:	e602      	b.n	8005f2c <HAL_RCCEx_PeriphCLKConfig+0x484>
 8006326:	2101      	movs	r1, #1
 8006328:	1d20      	adds	r0, r4, #4
 800632a:	f7ff f9dd 	bl	80056e8 <RCCEx_PLL2_Config>
 800632e:	4605      	mov	r5, r0
 8006330:	6823      	ldr	r3, [r4, #0]
 8006332:	2d00      	cmp	r5, #0
 8006334:	d1bb      	bne.n	80062ae <HAL_RCCEx_PeriphCLKConfig+0x806>
 8006336:	e623      	b.n	8005f80 <HAL_RCCEx_PeriphCLKConfig+0x4d8>
 8006338:	499f      	ldr	r1, [pc, #636]	; (80065b8 <HAL_RCCEx_PeriphCLKConfig+0xb10>)
 800633a:	6aca      	ldr	r2, [r1, #44]	; 0x2c
 800633c:	f442 3200 	orr.w	r2, r2, #131072	; 0x20000
 8006340:	62ca      	str	r2, [r1, #44]	; 0x2c
 8006342:	2d00      	cmp	r5, #0
 8006344:	d1af      	bne.n	80062a6 <HAL_RCCEx_PeriphCLKConfig+0x7fe>
 8006346:	e4d2      	b.n	8005cee <HAL_RCCEx_PeriphCLKConfig+0x246>
 8006348:	f44f 61a4 	mov.w	r1, #1312	; 0x520
 800634c:	489b      	ldr	r0, [pc, #620]	; (80065bc <HAL_RCCEx_PeriphCLKConfig+0xb14>)
 800634e:	f7fa fda7 	bl	8000ea0 <assert_failed>
 8006352:	f8d4 10b4 	ldr.w	r1, [r4, #180]	; 0xb4
 8006356:	6823      	ldr	r3, [r4, #0]
 8006358:	e704      	b.n	8006164 <HAL_RCCEx_PeriphCLKConfig+0x6bc>
 800635a:	f240 512a 	movw	r1, #1322	; 0x52a
 800635e:	4897      	ldr	r0, [pc, #604]	; (80065bc <HAL_RCCEx_PeriphCLKConfig+0xb14>)
 8006360:	f7fa fd9e 	bl	8000ea0 <assert_failed>
 8006364:	6ea1      	ldr	r1, [r4, #104]	; 0x68
 8006366:	6823      	ldr	r3, [r4, #0]
 8006368:	e709      	b.n	800617e <HAL_RCCEx_PeriphCLKConfig+0x6d6>
 800636a:	f240 41b7 	movw	r1, #1207	; 0x4b7
 800636e:	4893      	ldr	r0, [pc, #588]	; (80065bc <HAL_RCCEx_PeriphCLKConfig+0xb14>)
 8006370:	f7fa fd96 	bl	8000ea0 <assert_failed>
 8006374:	6ce3      	ldr	r3, [r4, #76]	; 0x4c
 8006376:	2b00      	cmp	r3, #0
 8006378:	f47f aec3 	bne.w	8006102 <HAL_RCCEx_PeriphCLKConfig+0x65a>
 800637c:	e7ad      	b.n	80062da <HAL_RCCEx_PeriphCLKConfig+0x832>
 800637e:	f240 5134 	movw	r1, #1332	; 0x534
 8006382:	488e      	ldr	r0, [pc, #568]	; (80065bc <HAL_RCCEx_PeriphCLKConfig+0xb14>)
 8006384:	f7fa fd8c 	bl	8000ea0 <assert_failed>
 8006388:	f8d4 50b8 	ldr.w	r5, [r4, #184]	; 0xb8
 800638c:	6823      	ldr	r3, [r4, #0]
 800638e:	e704      	b.n	800619a <HAL_RCCEx_PeriphCLKConfig+0x6f2>
 8006390:	f240 5116 	movw	r1, #1302	; 0x516
 8006394:	4889      	ldr	r0, [pc, #548]	; (80065bc <HAL_RCCEx_PeriphCLKConfig+0xb14>)
 8006396:	f7fa fd83 	bl	8000ea0 <assert_failed>
 800639a:	6f21      	ldr	r1, [r4, #112]	; 0x70
 800639c:	6823      	ldr	r3, [r4, #0]
 800639e:	e6d3      	b.n	8006148 <HAL_RCCEx_PeriphCLKConfig+0x6a0>
 80063a0:	2101      	movs	r1, #1
 80063a2:	1d20      	adds	r0, r4, #4
 80063a4:	f7ff f9a0 	bl	80056e8 <RCCEx_PLL2_Config>
 80063a8:	4605      	mov	r5, r0
 80063aa:	6823      	ldr	r3, [r4, #0]
 80063ac:	2d00      	cmp	r5, #0
 80063ae:	f47f af78 	bne.w	80062a2 <HAL_RCCEx_PeriphCLKConfig+0x7fa>
 80063b2:	e59c      	b.n	8005eee <HAL_RCCEx_PeriphCLKConfig+0x446>
 80063b4:	2a00      	cmp	r2, #0
 80063b6:	f47f af0c 	bne.w	80061d2 <HAL_RCCEx_PeriphCLKConfig+0x72a>
 80063ba:	e79e      	b.n	80062fa <HAL_RCCEx_PeriphCLKConfig+0x852>
 80063bc:	497e      	ldr	r1, [pc, #504]	; (80065b8 <HAL_RCCEx_PeriphCLKConfig+0xb10>)
 80063be:	6aca      	ldr	r2, [r1, #44]	; 0x2c
 80063c0:	f442 3200 	orr.w	r2, r2, #131072	; 0x20000
 80063c4:	62ca      	str	r2, [r1, #44]	; 0x2c
 80063c6:	b9dd      	cbnz	r5, 8006400 <HAL_RCCEx_PeriphCLKConfig+0x958>
 80063c8:	497b      	ldr	r1, [pc, #492]	; (80065b8 <HAL_RCCEx_PeriphCLKConfig+0xb10>)
 80063ca:	6ca0      	ldr	r0, [r4, #72]	; 0x48
 80063cc:	6cca      	ldr	r2, [r1, #76]	; 0x4c
 80063ce:	f022 0230 	bic.w	r2, r2, #48	; 0x30
 80063d2:	4302      	orrs	r2, r0
 80063d4:	64ca      	str	r2, [r1, #76]	; 0x4c
 80063d6:	e404      	b.n	8005be2 <HAL_RCCEx_PeriphCLKConfig+0x13a>
 80063d8:	4635      	mov	r5, r6
 80063da:	2d00      	cmp	r5, #0
 80063dc:	d15b      	bne.n	8006496 <HAL_RCCEx_PeriphCLKConfig+0x9ee>
 80063de:	4976      	ldr	r1, [pc, #472]	; (80065b8 <HAL_RCCEx_PeriphCLKConfig+0xb10>)
 80063e0:	6d60      	ldr	r0, [r4, #84]	; 0x54
 80063e2:	6d0a      	ldr	r2, [r1, #80]	; 0x50
 80063e4:	f022 0207 	bic.w	r2, r2, #7
 80063e8:	4302      	orrs	r2, r0
 80063ea:	650a      	str	r2, [r1, #80]	; 0x50
 80063ec:	f7ff bb87 	b.w	8005afe <HAL_RCCEx_PeriphCLKConfig+0x56>
 80063f0:	2102      	movs	r1, #2
 80063f2:	1d20      	adds	r0, r4, #4
 80063f4:	f7ff f978 	bl	80056e8 <RCCEx_PLL2_Config>
 80063f8:	4605      	mov	r5, r0
 80063fa:	6823      	ldr	r3, [r4, #0]
 80063fc:	2d00      	cmp	r5, #0
 80063fe:	d0e3      	beq.n	80063c8 <HAL_RCCEx_PeriphCLKConfig+0x920>
 8006400:	462e      	mov	r6, r5
 8006402:	f7ff bbee 	b.w	8005be2 <HAL_RCCEx_PeriphCLKConfig+0x13a>
 8006406:	2102      	movs	r1, #2
 8006408:	f104 0024 	add.w	r0, r4, #36	; 0x24
 800640c:	f7ff fa5c 	bl	80058c8 <RCCEx_PLL3_Config>
 8006410:	4605      	mov	r5, r0
 8006412:	6823      	ldr	r3, [r4, #0]
 8006414:	2d00      	cmp	r5, #0
 8006416:	f47f af50 	bne.w	80062ba <HAL_RCCEx_PeriphCLKConfig+0x812>
 800641a:	e5d1      	b.n	8005fc0 <HAL_RCCEx_PeriphCLKConfig+0x518>
 800641c:	2101      	movs	r1, #1
 800641e:	f104 0024 	add.w	r0, r4, #36	; 0x24
 8006422:	f7ff fa51 	bl	80058c8 <RCCEx_PLL3_Config>
 8006426:	4605      	mov	r5, r0
 8006428:	6823      	ldr	r3, [r4, #0]
 800642a:	2d00      	cmp	r5, #0
 800642c:	f47f af4f 	bne.w	80062ce <HAL_RCCEx_PeriphCLKConfig+0x826>
 8006430:	e40e      	b.n	8005c50 <HAL_RCCEx_PeriphCLKConfig+0x1a8>
 8006432:	2101      	movs	r1, #1
 8006434:	f104 0024 	add.w	r0, r4, #36	; 0x24
 8006438:	f7ff fa46 	bl	80058c8 <RCCEx_PLL3_Config>
 800643c:	4605      	mov	r5, r0
 800643e:	6823      	ldr	r3, [r4, #0]
 8006440:	2d00      	cmp	r5, #0
 8006442:	f47f af38 	bne.w	80062b6 <HAL_RCCEx_PeriphCLKConfig+0x80e>
 8006446:	e422      	b.n	8005c8e <HAL_RCCEx_PeriphCLKConfig+0x1e6>
 8006448:	495b      	ldr	r1, [pc, #364]	; (80065b8 <HAL_RCCEx_PeriphCLKConfig+0xb10>)
 800644a:	6aca      	ldr	r2, [r1, #44]	; 0x2c
 800644c:	f442 3200 	orr.w	r2, r2, #131072	; 0x20000
 8006450:	62ca      	str	r2, [r1, #44]	; 0x2c
 8006452:	2d00      	cmp	r5, #0
 8006454:	f47f af37 	bne.w	80062c6 <HAL_RCCEx_PeriphCLKConfig+0x81e>
 8006458:	e6d1      	b.n	80061fe <HAL_RCCEx_PeriphCLKConfig+0x756>
 800645a:	2102      	movs	r1, #2
 800645c:	f104 0024 	add.w	r0, r4, #36	; 0x24
 8006460:	f7ff fa32 	bl	80058c8 <RCCEx_PLL3_Config>
 8006464:	4605      	mov	r5, r0
 8006466:	6823      	ldr	r3, [r4, #0]
 8006468:	2d00      	cmp	r5, #0
 800646a:	f47f af2a 	bne.w	80062c2 <HAL_RCCEx_PeriphCLKConfig+0x81a>
 800646e:	e5c7      	b.n	8006000 <HAL_RCCEx_PeriphCLKConfig+0x558>
 8006470:	2102      	movs	r1, #2
 8006472:	f104 0024 	add.w	r0, r4, #36	; 0x24
 8006476:	f7ff fa27 	bl	80058c8 <RCCEx_PLL3_Config>
 800647a:	4605      	mov	r5, r0
 800647c:	6823      	ldr	r3, [r4, #0]
 800647e:	2d00      	cmp	r5, #0
 8006480:	f47f af1d 	bne.w	80062be <HAL_RCCEx_PeriphCLKConfig+0x816>
 8006484:	e5dc      	b.n	8006040 <HAL_RCCEx_PeriphCLKConfig+0x598>
 8006486:	494c      	ldr	r1, [pc, #304]	; (80065b8 <HAL_RCCEx_PeriphCLKConfig+0xb10>)
 8006488:	4635      	mov	r5, r6
 800648a:	6aca      	ldr	r2, [r1, #44]	; 0x2c
 800648c:	f442 3200 	orr.w	r2, r2, #131072	; 0x20000
 8006490:	62ca      	str	r2, [r1, #44]	; 0x2c
 8006492:	2d00      	cmp	r5, #0
 8006494:	d0a3      	beq.n	80063de <HAL_RCCEx_PeriphCLKConfig+0x936>
 8006496:	462e      	mov	r6, r5
 8006498:	f7ff bb31 	b.w	8005afe <HAL_RCCEx_PeriphCLKConfig+0x56>
 800649c:	2100      	movs	r1, #0
 800649e:	1d20      	adds	r0, r4, #4
 80064a0:	f7ff f922 	bl	80056e8 <RCCEx_PLL2_Config>
 80064a4:	6823      	ldr	r3, [r4, #0]
 80064a6:	4605      	mov	r5, r0
 80064a8:	e797      	b.n	80063da <HAL_RCCEx_PeriphCLKConfig+0x932>
 80064aa:	2100      	movs	r1, #0
 80064ac:	f104 0024 	add.w	r0, r4, #36	; 0x24
 80064b0:	f7ff fa0a 	bl	80058c8 <RCCEx_PLL3_Config>
 80064b4:	6823      	ldr	r3, [r4, #0]
 80064b6:	4605      	mov	r5, r0
 80064b8:	e78f      	b.n	80063da <HAL_RCCEx_PeriphCLKConfig+0x932>
 80064ba:	2102      	movs	r1, #2
 80064bc:	f104 0024 	add.w	r0, r4, #36	; 0x24
 80064c0:	f7ff fa02 	bl	80058c8 <RCCEx_PLL3_Config>
 80064c4:	6823      	ldr	r3, [r4, #0]
 80064c6:	2800      	cmp	r0, #0
 80064c8:	f43f adee 	beq.w	80060a8 <HAL_RCCEx_PeriphCLKConfig+0x600>
 80064cc:	2601      	movs	r6, #1
 80064ce:	e5eb      	b.n	80060a8 <HAL_RCCEx_PeriphCLKConfig+0x600>
 80064d0:	2102      	movs	r1, #2
 80064d2:	f104 0024 	add.w	r0, r4, #36	; 0x24
 80064d6:	f7ff f9f7 	bl	80058c8 <RCCEx_PLL3_Config>
 80064da:	6823      	ldr	r3, [r4, #0]
 80064dc:	2800      	cmp	r0, #0
 80064de:	f43f adca 	beq.w	8006076 <HAL_RCCEx_PeriphCLKConfig+0x5ce>
 80064e2:	2601      	movs	r6, #1
 80064e4:	e5c7      	b.n	8006076 <HAL_RCCEx_PeriphCLKConfig+0x5ce>
 80064e6:	2100      	movs	r1, #0
 80064e8:	f104 0024 	add.w	r0, r4, #36	; 0x24
 80064ec:	f7ff f9ec 	bl	80058c8 <RCCEx_PLL3_Config>
 80064f0:	4605      	mov	r5, r0
 80064f2:	6823      	ldr	r3, [r4, #0]
 80064f4:	2d00      	cmp	r5, #0
 80064f6:	f43f ab19 	beq.w	8005b2c <HAL_RCCEx_PeriphCLKConfig+0x84>
 80064fa:	462e      	mov	r6, r5
 80064fc:	f7ff bb1d 	b.w	8005b3a <HAL_RCCEx_PeriphCLKConfig+0x92>
 8006500:	492d      	ldr	r1, [pc, #180]	; (80065b8 <HAL_RCCEx_PeriphCLKConfig+0xb10>)
 8006502:	6aca      	ldr	r2, [r1, #44]	; 0x2c
 8006504:	f442 3200 	orr.w	r2, r2, #131072	; 0x20000
 8006508:	62ca      	str	r2, [r1, #44]	; 0x2c
 800650a:	2d00      	cmp	r5, #0
 800650c:	f43f ab51 	beq.w	8005bb2 <HAL_RCCEx_PeriphCLKConfig+0x10a>
 8006510:	462e      	mov	r6, r5
 8006512:	f7ff bb56 	b.w	8005bc2 <HAL_RCCEx_PeriphCLKConfig+0x11a>
 8006516:	2102      	movs	r1, #2
 8006518:	3004      	adds	r0, #4
 800651a:	f7ff f8e5 	bl	80056e8 <RCCEx_PLL2_Config>
 800651e:	4606      	mov	r6, r0
 8006520:	6823      	ldr	r3, [r4, #0]
 8006522:	2e00      	cmp	r6, #0
 8006524:	f47f aadd 	bne.w	8005ae2 <HAL_RCCEx_PeriphCLKConfig+0x3a>
 8006528:	6e62      	ldr	r2, [r4, #100]	; 0x64
 800652a:	f7ff bad3 	b.w	8005ad4 <HAL_RCCEx_PeriphCLKConfig+0x2c>
 800652e:	2100      	movs	r1, #0
 8006530:	f104 0024 	add.w	r0, r4, #36	; 0x24
 8006534:	f7ff f9c8 	bl	80058c8 <RCCEx_PLL3_Config>
 8006538:	4605      	mov	r5, r0
 800653a:	6823      	ldr	r3, [r4, #0]
 800653c:	2d00      	cmp	r5, #0
 800653e:	f43f ab16 	beq.w	8005b6e <HAL_RCCEx_PeriphCLKConfig+0xc6>
 8006542:	462e      	mov	r6, r5
 8006544:	f7ff bb1b 	b.w	8005b7e <HAL_RCCEx_PeriphCLKConfig+0xd6>
 8006548:	2100      	movs	r1, #0
 800654a:	f104 0024 	add.w	r0, r4, #36	; 0x24
 800654e:	f7ff f9bb 	bl	80058c8 <RCCEx_PLL3_Config>
 8006552:	6823      	ldr	r3, [r4, #0]
 8006554:	4605      	mov	r5, r0
 8006556:	f7ff bb29 	b.w	8005bac <HAL_RCCEx_PeriphCLKConfig+0x104>
 800655a:	2100      	movs	r1, #0
 800655c:	f104 0024 	add.w	r0, r4, #36	; 0x24
 8006560:	f7ff f9b2 	bl	80058c8 <RCCEx_PLL3_Config>
 8006564:	4605      	mov	r5, r0
 8006566:	6823      	ldr	r3, [r4, #0]
 8006568:	2d00      	cmp	r5, #0
 800656a:	f43f ab53 	beq.w	8005c14 <HAL_RCCEx_PeriphCLKConfig+0x16c>
 800656e:	462e      	mov	r6, r5
 8006570:	f7ff bb57 	b.w	8005c22 <HAL_RCCEx_PeriphCLKConfig+0x17a>
 8006574:	4910      	ldr	r1, [pc, #64]	; (80065b8 <HAL_RCCEx_PeriphCLKConfig+0xb10>)
 8006576:	6aca      	ldr	r2, [r1, #44]	; 0x2c
 8006578:	f442 3200 	orr.w	r2, r2, #131072	; 0x20000
 800657c:	62ca      	str	r2, [r1, #44]	; 0x2c
 800657e:	f7ff bb46 	b.w	8005c0e <HAL_RCCEx_PeriphCLKConfig+0x166>
 8006582:	2102      	movs	r1, #2
 8006584:	3024      	adds	r0, #36	; 0x24
 8006586:	f7ff f99f 	bl	80058c8 <RCCEx_PLL3_Config>
 800658a:	4606      	mov	r6, r0
 800658c:	e7c8      	b.n	8006520 <HAL_RCCEx_PeriphCLKConfig+0xa78>
 800658e:	490a      	ldr	r1, [pc, #40]	; (80065b8 <HAL_RCCEx_PeriphCLKConfig+0xb10>)
 8006590:	6aca      	ldr	r2, [r1, #44]	; 0x2c
 8006592:	f442 3200 	orr.w	r2, r2, #131072	; 0x20000
 8006596:	62ca      	str	r2, [r1, #44]	; 0x2c
 8006598:	f7ff bae6 	b.w	8005b68 <HAL_RCCEx_PeriphCLKConfig+0xc0>
 800659c:	4906      	ldr	r1, [pc, #24]	; (80065b8 <HAL_RCCEx_PeriphCLKConfig+0xb10>)
 800659e:	6aca      	ldr	r2, [r1, #44]	; 0x2c
 80065a0:	f442 3200 	orr.w	r2, r2, #131072	; 0x20000
 80065a4:	62ca      	str	r2, [r1, #44]	; 0x2c
 80065a6:	f7ff babe 	b.w	8005b26 <HAL_RCCEx_PeriphCLKConfig+0x7e>
 80065aa:	f240 513e 	movw	r1, #1342	; 0x53e
 80065ae:	4803      	ldr	r0, [pc, #12]	; (80065bc <HAL_RCCEx_PeriphCLKConfig+0xb14>)
 80065b0:	f7fa fc76 	bl	8000ea0 <assert_failed>
 80065b4:	6d22      	ldr	r2, [r4, #80]	; 0x50
 80065b6:	e656      	b.n	8006266 <HAL_RCCEx_PeriphCLKConfig+0x7be>
 80065b8:	58024400 	.word	0x58024400
 80065bc:	0800d180 	.word	0x0800d180
 80065c0:	1d20      	adds	r0, r4, #4
 80065c2:	f7ff f891 	bl	80056e8 <RCCEx_PLL2_Config>
 80065c6:	4605      	mov	r5, r0
 80065c8:	6823      	ldr	r3, [r4, #0]
 80065ca:	2d00      	cmp	r5, #0
 80065cc:	f47f ae71 	bne.w	80062b2 <HAL_RCCEx_PeriphCLKConfig+0x80a>
 80065d0:	e638      	b.n	8006244 <HAL_RCCEx_PeriphCLKConfig+0x79c>
 80065d2:	496b      	ldr	r1, [pc, #428]	; (8006780 <HAL_RCCEx_PeriphCLKConfig+0xcd8>)
 80065d4:	6aca      	ldr	r2, [r1, #44]	; 0x2c
 80065d6:	f442 3200 	orr.w	r2, r2, #131072	; 0x20000
 80065da:	62ca      	str	r2, [r1, #44]	; 0x2c
 80065dc:	2d00      	cmp	r5, #0
 80065de:	f47f ae74 	bne.w	80062ca <HAL_RCCEx_PeriphCLKConfig+0x822>
 80065e2:	e61d      	b.n	8006220 <HAL_RCCEx_PeriphCLKConfig+0x778>
 80065e4:	2601      	movs	r6, #1
 80065e6:	4635      	mov	r5, r6
 80065e8:	e488      	b.n	8005efc <HAL_RCCEx_PeriphCLKConfig+0x454>
 80065ea:	f240 414f 	movw	r1, #1103	; 0x44f
 80065ee:	4865      	ldr	r0, [pc, #404]	; (8006784 <HAL_RCCEx_PeriphCLKConfig+0xcdc>)
 80065f0:	f7fa fc56 	bl	8000ea0 <assert_failed>
 80065f4:	f8d4 3094 	ldr.w	r3, [r4, #148]	; 0x94
 80065f8:	e54b      	b.n	8006092 <HAL_RCCEx_PeriphCLKConfig+0x5ea>
 80065fa:	f240 413a 	movw	r1, #1082	; 0x43a
 80065fe:	4861      	ldr	r0, [pc, #388]	; (8006784 <HAL_RCCEx_PeriphCLKConfig+0xcdc>)
 8006600:	f7fa fc4e 	bl	8000ea0 <assert_failed>
 8006604:	f8d4 2080 	ldr.w	r2, [r4, #128]	; 0x80
 8006608:	e52a      	b.n	8006060 <HAL_RCCEx_PeriphCLKConfig+0x5b8>
 800660a:	f7fa ff4d 	bl	80014a8 <HAL_GetTick>
 800660e:	4f5c      	ldr	r7, [pc, #368]	; (8006780 <HAL_RCCEx_PeriphCLKConfig+0xcd8>)
 8006610:	4681      	mov	r9, r0
 8006612:	f241 3888 	movw	r8, #5000	; 0x1388
 8006616:	e006      	b.n	8006626 <HAL_RCCEx_PeriphCLKConfig+0xb7e>
 8006618:	f7fa ff46 	bl	80014a8 <HAL_GetTick>
 800661c:	eba0 0009 	sub.w	r0, r0, r9
 8006620:	4540      	cmp	r0, r8
 8006622:	f63f ae3a 	bhi.w	800629a <HAL_RCCEx_PeriphCLKConfig+0x7f2>
 8006626:	6f3b      	ldr	r3, [r7, #112]	; 0x70
 8006628:	079b      	lsls	r3, r3, #30
 800662a:	d5f5      	bpl.n	8006618 <HAL_RCCEx_PeriphCLKConfig+0xb70>
 800662c:	f8d4 30b0 	ldr.w	r3, [r4, #176]	; 0xb0
 8006630:	e410      	b.n	8005e54 <HAL_RCCEx_PeriphCLKConfig+0x3ac>
 8006632:	f5b2 2f80 	cmp.w	r2, #262144	; 0x40000
 8006636:	f43f ab08 	beq.w	8005c4a <HAL_RCCEx_PeriphCLKConfig+0x1a2>
 800663a:	f5b2 2fa0 	cmp.w	r2, #327680	; 0x50000
 800663e:	f43f ab04 	beq.w	8005c4a <HAL_RCCEx_PeriphCLKConfig+0x1a2>
 8006642:	f5b2 3f40 	cmp.w	r2, #196608	; 0x30000
 8006646:	f43f ab00 	beq.w	8005c4a <HAL_RCCEx_PeriphCLKConfig+0x1a2>
 800664a:	2601      	movs	r6, #1
 800664c:	4635      	mov	r5, r6
 800664e:	f7ff bb06 	b.w	8005c5e <HAL_RCCEx_PeriphCLKConfig+0x1b6>
 8006652:	f5b2 5f80 	cmp.w	r2, #4096	; 0x1000
 8006656:	f43f acd0 	beq.w	8005ffa <HAL_RCCEx_PeriphCLKConfig+0x552>
 800665a:	f5b2 5fa0 	cmp.w	r2, #5120	; 0x1400
 800665e:	f43f accc 	beq.w	8005ffa <HAL_RCCEx_PeriphCLKConfig+0x552>
 8006662:	f5b2 6f40 	cmp.w	r2, #3072	; 0xc00
 8006666:	f43f acc8 	beq.w	8005ffa <HAL_RCCEx_PeriphCLKConfig+0x552>
 800666a:	2601      	movs	r6, #1
 800666c:	4635      	mov	r5, r6
 800666e:	e4cf      	b.n	8006010 <HAL_RCCEx_PeriphCLKConfig+0x568>
 8006670:	f5b2 4f00 	cmp.w	r2, #32768	; 0x8000
 8006674:	f43f ace1 	beq.w	800603a <HAL_RCCEx_PeriphCLKConfig+0x592>
 8006678:	f5b2 4f20 	cmp.w	r2, #40960	; 0xa000
 800667c:	f43f acdd 	beq.w	800603a <HAL_RCCEx_PeriphCLKConfig+0x592>
 8006680:	f5b2 4fc0 	cmp.w	r2, #24576	; 0x6000
 8006684:	f43f acd9 	beq.w	800603a <HAL_RCCEx_PeriphCLKConfig+0x592>
 8006688:	2601      	movs	r6, #1
 800668a:	4635      	mov	r5, r6
 800668c:	e4e0      	b.n	8006050 <HAL_RCCEx_PeriphCLKConfig+0x5a8>
 800668e:	f1b2 4f80 	cmp.w	r2, #1073741824	; 0x40000000
 8006692:	f43f aaf9 	beq.w	8005c88 <HAL_RCCEx_PeriphCLKConfig+0x1e0>
 8006696:	f1b2 4fa0 	cmp.w	r2, #1342177280	; 0x50000000
 800669a:	f43f aaf5 	beq.w	8005c88 <HAL_RCCEx_PeriphCLKConfig+0x1e0>
 800669e:	f1b2 5f40 	cmp.w	r2, #805306368	; 0x30000000
 80066a2:	f43f aaf1 	beq.w	8005c88 <HAL_RCCEx_PeriphCLKConfig+0x1e0>
 80066a6:	2601      	movs	r6, #1
 80066a8:	4635      	mov	r5, r6
 80066aa:	f7ff baf8 	b.w	8005c9e <HAL_RCCEx_PeriphCLKConfig+0x1f6>
 80066ae:	f1b2 4f80 	cmp.w	r2, #1073741824	; 0x40000000
 80066b2:	f43f ac82 	beq.w	8005fba <HAL_RCCEx_PeriphCLKConfig+0x512>
 80066b6:	f1b2 4fa0 	cmp.w	r2, #1342177280	; 0x50000000
 80066ba:	f43f ac7e 	beq.w	8005fba <HAL_RCCEx_PeriphCLKConfig+0x512>
 80066be:	f1b2 5f40 	cmp.w	r2, #805306368	; 0x30000000
 80066c2:	f43f ac7a 	beq.w	8005fba <HAL_RCCEx_PeriphCLKConfig+0x512>
 80066c6:	2601      	movs	r6, #1
 80066c8:	4635      	mov	r5, r6
 80066ca:	e481      	b.n	8005fd0 <HAL_RCCEx_PeriphCLKConfig+0x528>
 80066cc:	f5b2 5f40 	cmp.w	r2, #12288	; 0x3000
 80066d0:	f43f aa9d 	beq.w	8005c0e <HAL_RCCEx_PeriphCLKConfig+0x166>
 80066d4:	f5b2 4f80 	cmp.w	r2, #16384	; 0x4000
 80066d8:	f43f aa99 	beq.w	8005c0e <HAL_RCCEx_PeriphCLKConfig+0x166>
 80066dc:	2601      	movs	r6, #1
 80066de:	4635      	mov	r5, r6
 80066e0:	f7ff ba9f 	b.w	8005c22 <HAL_RCCEx_PeriphCLKConfig+0x17a>
 80066e4:	bb72      	cbnz	r2, 8006744 <HAL_RCCEx_PeriphCLKConfig+0xc9c>
 80066e6:	4826      	ldr	r0, [pc, #152]	; (8006780 <HAL_RCCEx_PeriphCLKConfig+0xcd8>)
 80066e8:	6ac1      	ldr	r1, [r0, #44]	; 0x2c
 80066ea:	f441 3100 	orr.w	r1, r1, #131072	; 0x20000
 80066ee:	62c1      	str	r1, [r0, #44]	; 0x2c
 80066f0:	f7ff b9f0 	b.w	8005ad4 <HAL_RCCEx_PeriphCLKConfig+0x2c>
 80066f4:	f1b2 7f40 	cmp.w	r2, #50331648	; 0x3000000
 80066f8:	f43f aa58 	beq.w	8005bac <HAL_RCCEx_PeriphCLKConfig+0x104>
 80066fc:	f1b2 6f80 	cmp.w	r2, #67108864	; 0x4000000
 8006700:	f43f aa54 	beq.w	8005bac <HAL_RCCEx_PeriphCLKConfig+0x104>
 8006704:	2601      	movs	r6, #1
 8006706:	4635      	mov	r5, r6
 8006708:	f7ff ba5b 	b.w	8005bc2 <HAL_RCCEx_PeriphCLKConfig+0x11a>
 800670c:	f5b2 0fc0 	cmp.w	r2, #6291456	; 0x600000
 8006710:	f43f aa2a 	beq.w	8005b68 <HAL_RCCEx_PeriphCLKConfig+0xc0>
 8006714:	f5b2 0f00 	cmp.w	r2, #8388608	; 0x800000
 8006718:	f43f aa26 	beq.w	8005b68 <HAL_RCCEx_PeriphCLKConfig+0xc0>
 800671c:	2601      	movs	r6, #1
 800671e:	4635      	mov	r5, r6
 8006720:	f7ff ba2d 	b.w	8005b7e <HAL_RCCEx_PeriphCLKConfig+0xd6>
 8006724:	2ac0      	cmp	r2, #192	; 0xc0
 8006726:	f43f a9fe 	beq.w	8005b26 <HAL_RCCEx_PeriphCLKConfig+0x7e>
 800672a:	f5b2 7f80 	cmp.w	r2, #256	; 0x100
 800672e:	f43f a9fa 	beq.w	8005b26 <HAL_RCCEx_PeriphCLKConfig+0x7e>
 8006732:	2601      	movs	r6, #1
 8006734:	4635      	mov	r5, r6
 8006736:	f7ff ba00 	b.w	8005b3a <HAL_RCCEx_PeriphCLKConfig+0x92>
 800673a:	2a00      	cmp	r2, #0
 800673c:	f43f ae43 	beq.w	80063c6 <HAL_RCCEx_PeriphCLKConfig+0x91e>
 8006740:	f7ff ba4d 	b.w	8005bde <HAL_RCCEx_PeriphCLKConfig+0x136>
 8006744:	2601      	movs	r6, #1
 8006746:	f7ff b9cc 	b.w	8005ae2 <HAL_RCCEx_PeriphCLKConfig+0x3a>
 800674a:	480d      	ldr	r0, [pc, #52]	; (8006780 <HAL_RCCEx_PeriphCLKConfig+0xcd8>)
 800674c:	4a0e      	ldr	r2, [pc, #56]	; (8006788 <HAL_RCCEx_PeriphCLKConfig+0xce0>)
 800674e:	6901      	ldr	r1, [r0, #16]
 8006750:	ea02 1213 	and.w	r2, r2, r3, lsr #4
 8006754:	f421 517c 	bic.w	r1, r1, #16128	; 0x3f00
 8006758:	430a      	orrs	r2, r1
 800675a:	6102      	str	r2, [r0, #16]
 800675c:	f7ff bb85 	b.w	8005e6a <HAL_RCCEx_PeriphCLKConfig+0x3c2>
 8006760:	6823      	ldr	r3, [r4, #0]
 8006762:	462e      	mov	r6, r5
 8006764:	f7ff bb88 	b.w	8005e78 <HAL_RCCEx_PeriphCLKConfig+0x3d0>
 8006768:	2601      	movs	r6, #1
 800676a:	4635      	mov	r5, r6
 800676c:	f7ff bbe5 	b.w	8005f3a <HAL_RCCEx_PeriphCLKConfig+0x492>
 8006770:	2601      	movs	r6, #1
 8006772:	4635      	mov	r5, r6
 8006774:	f7ff bac2 	b.w	8005cfc <HAL_RCCEx_PeriphCLKConfig+0x254>
 8006778:	2601      	movs	r6, #1
 800677a:	4635      	mov	r5, r6
 800677c:	e408      	b.n	8005f90 <HAL_RCCEx_PeriphCLKConfig+0x4e8>
 800677e:	bf00      	nop
 8006780:	58024400 	.word	0x58024400
 8006784:	0800d180 	.word	0x0800d180
 8006788:	00ffffcf 	.word	0x00ffffcf

0800678c <HAL_RCCEx_GetD3PCLK1Freq>:
 800678c:	b508      	push	{r3, lr}
 800678e:	f7fe ff5d 	bl	800564c <HAL_RCC_GetHCLKFreq>
 8006792:	4b05      	ldr	r3, [pc, #20]	; (80067a8 <HAL_RCCEx_GetD3PCLK1Freq+0x1c>)
 8006794:	4a05      	ldr	r2, [pc, #20]	; (80067ac <HAL_RCCEx_GetD3PCLK1Freq+0x20>)
 8006796:	6a1b      	ldr	r3, [r3, #32]
 8006798:	f3c3 1302 	ubfx	r3, r3, #4, #3
 800679c:	5cd3      	ldrb	r3, [r2, r3]
 800679e:	f003 031f 	and.w	r3, r3, #31
 80067a2:	40d8      	lsrs	r0, r3
 80067a4:	bd08      	pop	{r3, pc}
 80067a6:	bf00      	nop
 80067a8:	58024400 	.word	0x58024400
 80067ac:	0800cf44 	.word	0x0800cf44

080067b0 <HAL_RCCEx_GetPLL2ClockFreq>:
 80067b0:	4a46      	ldr	r2, [pc, #280]	; (80068cc <HAL_RCCEx_GetPLL2ClockFreq+0x11c>)
 80067b2:	b430      	push	{r4, r5}
 80067b4:	6a94      	ldr	r4, [r2, #40]	; 0x28
 80067b6:	6a93      	ldr	r3, [r2, #40]	; 0x28
 80067b8:	6ad1      	ldr	r1, [r2, #44]	; 0x2c
 80067ba:	f3c3 3305 	ubfx	r3, r3, #12, #6
 80067be:	6bd5      	ldr	r5, [r2, #60]	; 0x3c
 80067c0:	2b00      	cmp	r3, #0
 80067c2:	d059      	beq.n	8006878 <HAL_RCCEx_GetPLL2ClockFreq+0xc8>
 80067c4:	f3c5 05cc 	ubfx	r5, r5, #3, #13
 80067c8:	f001 0110 	and.w	r1, r1, #16
 80067cc:	f004 0403 	and.w	r4, r4, #3
 80067d0:	ee07 3a90 	vmov	s15, r3
 80067d4:	fb01 f105 	mul.w	r1, r1, r5
 80067d8:	2c01      	cmp	r4, #1
 80067da:	eef8 7ae7 	vcvt.f32.s32	s15, s15
 80067de:	ee06 1a90 	vmov	s13, r1
 80067e2:	eefa 6ae9 	vcvt.f32.s32	s13, s13, #13
 80067e6:	d002      	beq.n	80067ee <HAL_RCCEx_GetPLL2ClockFreq+0x3e>
 80067e8:	d34e      	bcc.n	8006888 <HAL_RCCEx_GetPLL2ClockFreq+0xd8>
 80067ea:	2c02      	cmp	r4, #2
 80067ec:	d049      	beq.n	8006882 <HAL_RCCEx_GetPLL2ClockFreq+0xd2>
 80067ee:	ed9f 7a38 	vldr	s14, [pc, #224]	; 80068d0 <HAL_RCCEx_GetPLL2ClockFreq+0x120>
 80067f2:	ee87 6a27 	vdiv.f32	s12, s14, s15
 80067f6:	6b93      	ldr	r3, [r2, #56]	; 0x38
 80067f8:	f3c3 0308 	ubfx	r3, r3, #0, #9
 80067fc:	ee07 3a90 	vmov	s15, r3
 8006800:	eef7 5a00 	vmov.f32	s11, #112	; 0x3f800000  1.0
 8006804:	eeb8 7ae7 	vcvt.f32.s32	s14, s15
 8006808:	ee77 7a26 	vadd.f32	s15, s14, s13
 800680c:	ee77 7aa5 	vadd.f32	s15, s15, s11
 8006810:	ee67 7a86 	vmul.f32	s15, s15, s12
 8006814:	4a2d      	ldr	r2, [pc, #180]	; (80068cc <HAL_RCCEx_GetPLL2ClockFreq+0x11c>)
 8006816:	eeb7 6a00 	vmov.f32	s12, #112	; 0x3f800000  1.0
 800681a:	6b93      	ldr	r3, [r2, #56]	; 0x38
 800681c:	f3c3 2346 	ubfx	r3, r3, #9, #7
 8006820:	ee06 3a90 	vmov	s13, r3
 8006824:	eef8 6ae6 	vcvt.f32.s32	s13, s13
 8006828:	bc30      	pop	{r4, r5}
 800682a:	ee76 6a86 	vadd.f32	s13, s13, s12
 800682e:	ee87 7aa6 	vdiv.f32	s14, s15, s13
 8006832:	eebc 7ac7 	vcvt.u32.f32	s14, s14
 8006836:	ed80 7a00 	vstr	s14, [r0]
 800683a:	6b93      	ldr	r3, [r2, #56]	; 0x38
 800683c:	f3c3 4306 	ubfx	r3, r3, #16, #7
 8006840:	ee06 3a90 	vmov	s13, r3
 8006844:	eef8 6ae6 	vcvt.f32.s32	s13, s13
 8006848:	ee76 6a86 	vadd.f32	s13, s13, s12
 800684c:	ee87 7aa6 	vdiv.f32	s14, s15, s13
 8006850:	eebc 7ac7 	vcvt.u32.f32	s14, s14
 8006854:	ed80 7a01 	vstr	s14, [r0, #4]
 8006858:	6b93      	ldr	r3, [r2, #56]	; 0x38
 800685a:	f3c3 6306 	ubfx	r3, r3, #24, #7
 800685e:	ee07 3a10 	vmov	s14, r3
 8006862:	eeb8 7ac7 	vcvt.f32.s32	s14, s14
 8006866:	ee37 7a06 	vadd.f32	s14, s14, s12
 800686a:	eec7 6a87 	vdiv.f32	s13, s15, s14
 800686e:	eefc 6ae6 	vcvt.u32.f32	s13, s13
 8006872:	edc0 6a02 	vstr	s13, [r0, #8]
 8006876:	4770      	bx	lr
 8006878:	e9c0 3300 	strd	r3, r3, [r0]
 800687c:	6083      	str	r3, [r0, #8]
 800687e:	bc30      	pop	{r4, r5}
 8006880:	4770      	bx	lr
 8006882:	ed9f 7a14 	vldr	s14, [pc, #80]	; 80068d4 <HAL_RCCEx_GetPLL2ClockFreq+0x124>
 8006886:	e7b4      	b.n	80067f2 <HAL_RCCEx_GetPLL2ClockFreq+0x42>
 8006888:	6813      	ldr	r3, [r2, #0]
 800688a:	069b      	lsls	r3, r3, #26
 800688c:	d51a      	bpl.n	80068c4 <HAL_RCCEx_GetPLL2ClockFreq+0x114>
 800688e:	6814      	ldr	r4, [r2, #0]
 8006890:	eeb7 5a00 	vmov.f32	s10, #112	; 0x3f800000  1.0
 8006894:	4910      	ldr	r1, [pc, #64]	; (80068d8 <HAL_RCCEx_GetPLL2ClockFreq+0x128>)
 8006896:	f3c4 04c1 	ubfx	r4, r4, #3, #2
 800689a:	6b93      	ldr	r3, [r2, #56]	; 0x38
 800689c:	40e1      	lsrs	r1, r4
 800689e:	f3c3 0308 	ubfx	r3, r3, #0, #9
 80068a2:	ee07 1a10 	vmov	s14, r1
 80068a6:	eef8 5ac7 	vcvt.f32.s32	s11, s14
 80068aa:	ee07 3a10 	vmov	s14, r3
 80068ae:	eeb8 6ac7 	vcvt.f32.s32	s12, s14
 80068b2:	ee85 7aa7 	vdiv.f32	s14, s11, s15
 80068b6:	ee76 7a26 	vadd.f32	s15, s12, s13
 80068ba:	ee77 7a85 	vadd.f32	s15, s15, s10
 80068be:	ee67 7a27 	vmul.f32	s15, s14, s15
 80068c2:	e7a7      	b.n	8006814 <HAL_RCCEx_GetPLL2ClockFreq+0x64>
 80068c4:	ed9f 7a05 	vldr	s14, [pc, #20]	; 80068dc <HAL_RCCEx_GetPLL2ClockFreq+0x12c>
 80068c8:	e793      	b.n	80067f2 <HAL_RCCEx_GetPLL2ClockFreq+0x42>
 80068ca:	bf00      	nop
 80068cc:	58024400 	.word	0x58024400
 80068d0:	4a742400 	.word	0x4a742400
 80068d4:	4af42400 	.word	0x4af42400
 80068d8:	03d09000 	.word	0x03d09000
 80068dc:	4c742400 	.word	0x4c742400

080068e0 <HAL_RCCEx_GetPLL3ClockFreq>:
 80068e0:	4a46      	ldr	r2, [pc, #280]	; (80069fc <HAL_RCCEx_GetPLL3ClockFreq+0x11c>)
 80068e2:	b430      	push	{r4, r5}
 80068e4:	6a94      	ldr	r4, [r2, #40]	; 0x28
 80068e6:	6a93      	ldr	r3, [r2, #40]	; 0x28
 80068e8:	6ad1      	ldr	r1, [r2, #44]	; 0x2c
 80068ea:	f3c3 5305 	ubfx	r3, r3, #20, #6
 80068ee:	6c55      	ldr	r5, [r2, #68]	; 0x44
 80068f0:	2b00      	cmp	r3, #0
 80068f2:	d059      	beq.n	80069a8 <HAL_RCCEx_GetPLL3ClockFreq+0xc8>
 80068f4:	f3c5 05cc 	ubfx	r5, r5, #3, #13
 80068f8:	f401 7180 	and.w	r1, r1, #256	; 0x100
 80068fc:	f004 0403 	and.w	r4, r4, #3
 8006900:	ee07 3a90 	vmov	s15, r3
 8006904:	fb01 f105 	mul.w	r1, r1, r5
 8006908:	2c01      	cmp	r4, #1
 800690a:	eef8 7ae7 	vcvt.f32.s32	s15, s15
 800690e:	ee06 1a90 	vmov	s13, r1
 8006912:	eefa 6ae9 	vcvt.f32.s32	s13, s13, #13
 8006916:	d002      	beq.n	800691e <HAL_RCCEx_GetPLL3ClockFreq+0x3e>
 8006918:	d34e      	bcc.n	80069b8 <HAL_RCCEx_GetPLL3ClockFreq+0xd8>
 800691a:	2c02      	cmp	r4, #2
 800691c:	d049      	beq.n	80069b2 <HAL_RCCEx_GetPLL3ClockFreq+0xd2>
 800691e:	ed9f 7a38 	vldr	s14, [pc, #224]	; 8006a00 <HAL_RCCEx_GetPLL3ClockFreq+0x120>
 8006922:	ee87 6a27 	vdiv.f32	s12, s14, s15
 8006926:	6c13      	ldr	r3, [r2, #64]	; 0x40
 8006928:	f3c3 0308 	ubfx	r3, r3, #0, #9
 800692c:	ee07 3a90 	vmov	s15, r3
 8006930:	eef7 5a00 	vmov.f32	s11, #112	; 0x3f800000  1.0
 8006934:	eeb8 7ae7 	vcvt.f32.s32	s14, s15
 8006938:	ee77 7a26 	vadd.f32	s15, s14, s13
 800693c:	ee77 7aa5 	vadd.f32	s15, s15, s11
 8006940:	ee67 7a86 	vmul.f32	s15, s15, s12
 8006944:	4a2d      	ldr	r2, [pc, #180]	; (80069fc <HAL_RCCEx_GetPLL3ClockFreq+0x11c>)
 8006946:	eeb7 6a00 	vmov.f32	s12, #112	; 0x3f800000  1.0
 800694a:	6c13      	ldr	r3, [r2, #64]	; 0x40
 800694c:	f3c3 2346 	ubfx	r3, r3, #9, #7
 8006950:	ee06 3a90 	vmov	s13, r3
 8006954:	eef8 6ae6 	vcvt.f32.s32	s13, s13
 8006958:	bc30      	pop	{r4, r5}
 800695a:	ee76 6a86 	vadd.f32	s13, s13, s12
 800695e:	ee87 7aa6 	vdiv.f32	s14, s15, s13
 8006962:	eebc 7ac7 	vcvt.u32.f32	s14, s14
 8006966:	ed80 7a00 	vstr	s14, [r0]
 800696a:	6c13      	ldr	r3, [r2, #64]	; 0x40
 800696c:	f3c3 4306 	ubfx	r3, r3, #16, #7
 8006970:	ee06 3a90 	vmov	s13, r3
 8006974:	eef8 6ae6 	vcvt.f32.s32	s13, s13
 8006978:	ee76 6a86 	vadd.f32	s13, s13, s12
 800697c:	ee87 7aa6 	vdiv.f32	s14, s15, s13
 8006980:	eebc 7ac7 	vcvt.u32.f32	s14, s14
 8006984:	ed80 7a01 	vstr	s14, [r0, #4]
 8006988:	6c13      	ldr	r3, [r2, #64]	; 0x40
 800698a:	f3c3 6306 	ubfx	r3, r3, #24, #7
 800698e:	ee07 3a10 	vmov	s14, r3
 8006992:	eeb8 7ac7 	vcvt.f32.s32	s14, s14
 8006996:	ee37 7a06 	vadd.f32	s14, s14, s12
 800699a:	eec7 6a87 	vdiv.f32	s13, s15, s14
 800699e:	eefc 6ae6 	vcvt.u32.f32	s13, s13
 80069a2:	edc0 6a02 	vstr	s13, [r0, #8]
 80069a6:	4770      	bx	lr
 80069a8:	e9c0 3300 	strd	r3, r3, [r0]
 80069ac:	6083      	str	r3, [r0, #8]
 80069ae:	bc30      	pop	{r4, r5}
 80069b0:	4770      	bx	lr
 80069b2:	ed9f 7a14 	vldr	s14, [pc, #80]	; 8006a04 <HAL_RCCEx_GetPLL3ClockFreq+0x124>
 80069b6:	e7b4      	b.n	8006922 <HAL_RCCEx_GetPLL3ClockFreq+0x42>
 80069b8:	6813      	ldr	r3, [r2, #0]
 80069ba:	069b      	lsls	r3, r3, #26
 80069bc:	d51a      	bpl.n	80069f4 <HAL_RCCEx_GetPLL3ClockFreq+0x114>
 80069be:	6814      	ldr	r4, [r2, #0]
 80069c0:	eeb7 5a00 	vmov.f32	s10, #112	; 0x3f800000  1.0
 80069c4:	4910      	ldr	r1, [pc, #64]	; (8006a08 <HAL_RCCEx_GetPLL3ClockFreq+0x128>)
 80069c6:	f3c4 04c1 	ubfx	r4, r4, #3, #2
 80069ca:	6c13      	ldr	r3, [r2, #64]	; 0x40
 80069cc:	40e1      	lsrs	r1, r4
 80069ce:	f3c3 0308 	ubfx	r3, r3, #0, #9
 80069d2:	ee07 1a10 	vmov	s14, r1
 80069d6:	eef8 5ac7 	vcvt.f32.s32	s11, s14
 80069da:	ee07 3a10 	vmov	s14, r3
 80069de:	eeb8 6ac7 	vcvt.f32.s32	s12, s14
 80069e2:	ee85 7aa7 	vdiv.f32	s14, s11, s15
 80069e6:	ee76 7a26 	vadd.f32	s15, s12, s13
 80069ea:	ee77 7a85 	vadd.f32	s15, s15, s10
 80069ee:	ee67 7a27 	vmul.f32	s15, s14, s15
 80069f2:	e7a7      	b.n	8006944 <HAL_RCCEx_GetPLL3ClockFreq+0x64>
 80069f4:	ed9f 7a05 	vldr	s14, [pc, #20]	; 8006a0c <HAL_RCCEx_GetPLL3ClockFreq+0x12c>
 80069f8:	e793      	b.n	8006922 <HAL_RCCEx_GetPLL3ClockFreq+0x42>
 80069fa:	bf00      	nop
 80069fc:	58024400 	.word	0x58024400
 8006a00:	4a742400 	.word	0x4a742400
 8006a04:	4af42400 	.word	0x4af42400
 8006a08:	03d09000 	.word	0x03d09000
 8006a0c:	4c742400 	.word	0x4c742400

08006a10 <HAL_RCCEx_GetPLL1ClockFreq>:
 8006a10:	4a46      	ldr	r2, [pc, #280]	; (8006b2c <HAL_RCCEx_GetPLL1ClockFreq+0x11c>)
 8006a12:	b430      	push	{r4, r5}
 8006a14:	6a94      	ldr	r4, [r2, #40]	; 0x28
 8006a16:	6a93      	ldr	r3, [r2, #40]	; 0x28
 8006a18:	6ad1      	ldr	r1, [r2, #44]	; 0x2c
 8006a1a:	f3c3 1305 	ubfx	r3, r3, #4, #6
 8006a1e:	6b55      	ldr	r5, [r2, #52]	; 0x34
 8006a20:	2b00      	cmp	r3, #0
 8006a22:	d059      	beq.n	8006ad8 <HAL_RCCEx_GetPLL1ClockFreq+0xc8>
 8006a24:	f3c5 05cc 	ubfx	r5, r5, #3, #13
 8006a28:	f001 0101 	and.w	r1, r1, #1
 8006a2c:	f004 0403 	and.w	r4, r4, #3
 8006a30:	ee07 3a90 	vmov	s15, r3
 8006a34:	fb01 f105 	mul.w	r1, r1, r5
 8006a38:	2c01      	cmp	r4, #1
 8006a3a:	eef8 7ae7 	vcvt.f32.s32	s15, s15
 8006a3e:	ee06 1a90 	vmov	s13, r1
 8006a42:	eefa 6ae9 	vcvt.f32.s32	s13, s13, #13
 8006a46:	d002      	beq.n	8006a4e <HAL_RCCEx_GetPLL1ClockFreq+0x3e>
 8006a48:	d34e      	bcc.n	8006ae8 <HAL_RCCEx_GetPLL1ClockFreq+0xd8>
 8006a4a:	2c02      	cmp	r4, #2
 8006a4c:	d049      	beq.n	8006ae2 <HAL_RCCEx_GetPLL1ClockFreq+0xd2>
 8006a4e:	ed9f 7a38 	vldr	s14, [pc, #224]	; 8006b30 <HAL_RCCEx_GetPLL1ClockFreq+0x120>
 8006a52:	ee87 6a27 	vdiv.f32	s12, s14, s15
 8006a56:	6b13      	ldr	r3, [r2, #48]	; 0x30
 8006a58:	f3c3 0308 	ubfx	r3, r3, #0, #9
 8006a5c:	ee07 3a90 	vmov	s15, r3
 8006a60:	eef7 5a00 	vmov.f32	s11, #112	; 0x3f800000  1.0
 8006a64:	eeb8 7ae7 	vcvt.f32.s32	s14, s15
 8006a68:	ee77 7a26 	vadd.f32	s15, s14, s13
 8006a6c:	ee77 7aa5 	vadd.f32	s15, s15, s11
 8006a70:	ee67 7a86 	vmul.f32	s15, s15, s12
 8006a74:	4a2d      	ldr	r2, [pc, #180]	; (8006b2c <HAL_RCCEx_GetPLL1ClockFreq+0x11c>)
 8006a76:	eeb7 6a00 	vmov.f32	s12, #112	; 0x3f800000  1.0
 8006a7a:	6b13      	ldr	r3, [r2, #48]	; 0x30
 8006a7c:	f3c3 2346 	ubfx	r3, r3, #9, #7
 8006a80:	ee06 3a90 	vmov	s13, r3
 8006a84:	eef8 6ae6 	vcvt.f32.s32	s13, s13
 8006a88:	bc30      	pop	{r4, r5}
 8006a8a:	ee76 6a86 	vadd.f32	s13, s13, s12
 8006a8e:	ee87 7aa6 	vdiv.f32	s14, s15, s13
 8006a92:	eebc 7ac7 	vcvt.u32.f32	s14, s14
 8006a96:	ed80 7a00 	vstr	s14, [r0]
 8006a9a:	6b13      	ldr	r3, [r2, #48]	; 0x30
 8006a9c:	f3c3 4306 	ubfx	r3, r3, #16, #7
 8006aa0:	ee06 3a90 	vmov	s13, r3
 8006aa4:	eef8 6ae6 	vcvt.f32.s32	s13, s13
 8006aa8:	ee76 6a86 	vadd.f32	s13, s13, s12
 8006aac:	ee87 7aa6 	vdiv.f32	s14, s15, s13
 8006ab0:	eebc 7ac7 	vcvt.u32.f32	s14, s14
 8006ab4:	ed80 7a01 	vstr	s14, [r0, #4]
 8006ab8:	6b13      	ldr	r3, [r2, #48]	; 0x30
 8006aba:	f3c3 6306 	ubfx	r3, r3, #24, #7
 8006abe:	ee07 3a10 	vmov	s14, r3
 8006ac2:	eeb8 7ac7 	vcvt.f32.s32	s14, s14
 8006ac6:	ee37 7a06 	vadd.f32	s14, s14, s12
 8006aca:	eec7 6a87 	vdiv.f32	s13, s15, s14
 8006ace:	eefc 6ae6 	vcvt.u32.f32	s13, s13
 8006ad2:	edc0 6a02 	vstr	s13, [r0, #8]
 8006ad6:	4770      	bx	lr
 8006ad8:	e9c0 3300 	strd	r3, r3, [r0]
 8006adc:	6083      	str	r3, [r0, #8]
 8006ade:	bc30      	pop	{r4, r5}
 8006ae0:	4770      	bx	lr
 8006ae2:	ed9f 7a14 	vldr	s14, [pc, #80]	; 8006b34 <HAL_RCCEx_GetPLL1ClockFreq+0x124>
 8006ae6:	e7b4      	b.n	8006a52 <HAL_RCCEx_GetPLL1ClockFreq+0x42>
 8006ae8:	6813      	ldr	r3, [r2, #0]
 8006aea:	069b      	lsls	r3, r3, #26
 8006aec:	d51a      	bpl.n	8006b24 <HAL_RCCEx_GetPLL1ClockFreq+0x114>
 8006aee:	6814      	ldr	r4, [r2, #0]
 8006af0:	eeb7 5a00 	vmov.f32	s10, #112	; 0x3f800000  1.0
 8006af4:	4910      	ldr	r1, [pc, #64]	; (8006b38 <HAL_RCCEx_GetPLL1ClockFreq+0x128>)
 8006af6:	f3c4 04c1 	ubfx	r4, r4, #3, #2
 8006afa:	6b13      	ldr	r3, [r2, #48]	; 0x30
 8006afc:	40e1      	lsrs	r1, r4
 8006afe:	f3c3 0308 	ubfx	r3, r3, #0, #9
 8006b02:	ee07 1a10 	vmov	s14, r1
 8006b06:	eef8 5ac7 	vcvt.f32.s32	s11, s14
 8006b0a:	ee07 3a10 	vmov	s14, r3
 8006b0e:	eeb8 6ac7 	vcvt.f32.s32	s12, s14
 8006b12:	ee85 7aa7 	vdiv.f32	s14, s11, s15
 8006b16:	ee76 7a26 	vadd.f32	s15, s12, s13
 8006b1a:	ee77 7a85 	vadd.f32	s15, s15, s10
 8006b1e:	ee67 7a27 	vmul.f32	s15, s14, s15
 8006b22:	e7a7      	b.n	8006a74 <HAL_RCCEx_GetPLL1ClockFreq+0x64>
 8006b24:	ed9f 7a05 	vldr	s14, [pc, #20]	; 8006b3c <HAL_RCCEx_GetPLL1ClockFreq+0x12c>
 8006b28:	e793      	b.n	8006a52 <HAL_RCCEx_GetPLL1ClockFreq+0x42>
 8006b2a:	bf00      	nop
 8006b2c:	58024400 	.word	0x58024400
 8006b30:	4a742400 	.word	0x4a742400
 8006b34:	4af42400 	.word	0x4af42400
 8006b38:	03d09000 	.word	0x03d09000
 8006b3c:	4c742400 	.word	0x4c742400

08006b40 <HAL_RCCEx_GetPeriphCLKFreq>:
 8006b40:	f5b0 7f80 	cmp.w	r0, #256	; 0x100
 8006b44:	b500      	push	{lr}
 8006b46:	b085      	sub	sp, #20
 8006b48:	d029      	beq.n	8006b9e <HAL_RCCEx_GetPeriphCLKFreq+0x5e>
 8006b4a:	f5b0 7f00 	cmp.w	r0, #512	; 0x200
 8006b4e:	d014      	beq.n	8006b7a <HAL_RCCEx_GetPeriphCLKFreq+0x3a>
 8006b50:	f5b0 6f80 	cmp.w	r0, #1024	; 0x400
 8006b54:	d04a      	beq.n	8006bec <HAL_RCCEx_GetPeriphCLKFreq+0xac>
 8006b56:	f5b0 6f00 	cmp.w	r0, #2048	; 0x800
 8006b5a:	d033      	beq.n	8006bc4 <HAL_RCCEx_GetPeriphCLKFreq+0x84>
 8006b5c:	f5b0 5f80 	cmp.w	r0, #4096	; 0x1000
 8006b60:	d075      	beq.n	8006c4e <HAL_RCCEx_GetPeriphCLKFreq+0x10e>
 8006b62:	f5b0 2f00 	cmp.w	r0, #524288	; 0x80000
 8006b66:	f000 80a3 	beq.w	8006cb0 <HAL_RCCEx_GetPeriphCLKFreq+0x170>
 8006b6a:	f5b0 3f80 	cmp.w	r0, #65536	; 0x10000
 8006b6e:	f000 808b 	beq.w	8006c88 <HAL_RCCEx_GetPeriphCLKFreq+0x148>
 8006b72:	2000      	movs	r0, #0
 8006b74:	b005      	add	sp, #20
 8006b76:	f85d fb04 	ldr.w	pc, [sp], #4
 8006b7a:	4a58      	ldr	r2, [pc, #352]	; (8006cdc <HAL_RCCEx_GetPeriphCLKFreq+0x19c>)
 8006b7c:	6d13      	ldr	r3, [r2, #80]	; 0x50
 8006b7e:	f403 73e0 	and.w	r3, r3, #448	; 0x1c0
 8006b82:	2b80      	cmp	r3, #128	; 0x80
 8006b84:	d043      	beq.n	8006c0e <HAL_RCCEx_GetPeriphCLKFreq+0xce>
 8006b86:	d857      	bhi.n	8006c38 <HAL_RCCEx_GetPeriphCLKFreq+0xf8>
 8006b88:	2b00      	cmp	r3, #0
 8006b8a:	d039      	beq.n	8006c00 <HAL_RCCEx_GetPeriphCLKFreq+0xc0>
 8006b8c:	2b40      	cmp	r3, #64	; 0x40
 8006b8e:	d1f0      	bne.n	8006b72 <HAL_RCCEx_GetPeriphCLKFreq+0x32>
 8006b90:	a801      	add	r0, sp, #4
 8006b92:	f7ff fe0d 	bl	80067b0 <HAL_RCCEx_GetPLL2ClockFreq>
 8006b96:	9801      	ldr	r0, [sp, #4]
 8006b98:	b005      	add	sp, #20
 8006b9a:	f85d fb04 	ldr.w	pc, [sp], #4
 8006b9e:	4b4f      	ldr	r3, [pc, #316]	; (8006cdc <HAL_RCCEx_GetPeriphCLKFreq+0x19c>)
 8006ba0:	6d1b      	ldr	r3, [r3, #80]	; 0x50
 8006ba2:	f003 0307 	and.w	r3, r3, #7
 8006ba6:	2b04      	cmp	r3, #4
 8006ba8:	d8e3      	bhi.n	8006b72 <HAL_RCCEx_GetPeriphCLKFreq+0x32>
 8006baa:	a201      	add	r2, pc, #4	; (adr r2, 8006bb0 <HAL_RCCEx_GetPeriphCLKFreq+0x70>)
 8006bac:	f852 f023 	ldr.w	pc, [r2, r3, lsl #2]
 8006bb0:	08006c01 	.word	0x08006c01
 8006bb4:	08006b91 	.word	0x08006b91
 8006bb8:	08006c0f 	.word	0x08006c0f
 8006bbc:	08006be5 	.word	0x08006be5
 8006bc0:	08006c1d 	.word	0x08006c1d
 8006bc4:	4a45      	ldr	r2, [pc, #276]	; (8006cdc <HAL_RCCEx_GetPeriphCLKFreq+0x19c>)
 8006bc6:	6d93      	ldr	r3, [r2, #88]	; 0x58
 8006bc8:	f003 63e0 	and.w	r3, r3, #117440512	; 0x7000000
 8006bcc:	f1b3 7f00 	cmp.w	r3, #33554432	; 0x2000000
 8006bd0:	d01d      	beq.n	8006c0e <HAL_RCCEx_GetPeriphCLKFreq+0xce>
 8006bd2:	d84a      	bhi.n	8006c6a <HAL_RCCEx_GetPeriphCLKFreq+0x12a>
 8006bd4:	b1a3      	cbz	r3, 8006c00 <HAL_RCCEx_GetPeriphCLKFreq+0xc0>
 8006bd6:	f1b3 7f80 	cmp.w	r3, #16777216	; 0x1000000
 8006bda:	d0d9      	beq.n	8006b90 <HAL_RCCEx_GetPeriphCLKFreq+0x50>
 8006bdc:	e7c9      	b.n	8006b72 <HAL_RCCEx_GetPeriphCLKFreq+0x32>
 8006bde:	f5b3 0fc0 	cmp.w	r3, #6291456	; 0x600000
 8006be2:	d149      	bne.n	8006c78 <HAL_RCCEx_GetPeriphCLKFreq+0x138>
 8006be4:	483e      	ldr	r0, [pc, #248]	; (8006ce0 <HAL_RCCEx_GetPeriphCLKFreq+0x1a0>)
 8006be6:	b005      	add	sp, #20
 8006be8:	f85d fb04 	ldr.w	pc, [sp], #4
 8006bec:	4a3b      	ldr	r2, [pc, #236]	; (8006cdc <HAL_RCCEx_GetPeriphCLKFreq+0x19c>)
 8006bee:	6d93      	ldr	r3, [r2, #88]	; 0x58
 8006bf0:	f403 0360 	and.w	r3, r3, #14680064	; 0xe00000
 8006bf4:	f5b3 0f80 	cmp.w	r3, #4194304	; 0x400000
 8006bf8:	d009      	beq.n	8006c0e <HAL_RCCEx_GetPeriphCLKFreq+0xce>
 8006bfa:	d8f0      	bhi.n	8006bde <HAL_RCCEx_GetPeriphCLKFreq+0x9e>
 8006bfc:	2b00      	cmp	r3, #0
 8006bfe:	d13f      	bne.n	8006c80 <HAL_RCCEx_GetPeriphCLKFreq+0x140>
 8006c00:	a801      	add	r0, sp, #4
 8006c02:	f7ff ff05 	bl	8006a10 <HAL_RCCEx_GetPLL1ClockFreq>
 8006c06:	9802      	ldr	r0, [sp, #8]
 8006c08:	b005      	add	sp, #20
 8006c0a:	f85d fb04 	ldr.w	pc, [sp], #4
 8006c0e:	a801      	add	r0, sp, #4
 8006c10:	f7ff fe66 	bl	80068e0 <HAL_RCCEx_GetPLL3ClockFreq>
 8006c14:	9801      	ldr	r0, [sp, #4]
 8006c16:	b005      	add	sp, #20
 8006c18:	f85d fb04 	ldr.w	pc, [sp], #4
 8006c1c:	4b2f      	ldr	r3, [pc, #188]	; (8006cdc <HAL_RCCEx_GetPeriphCLKFreq+0x19c>)
 8006c1e:	6cdb      	ldr	r3, [r3, #76]	; 0x4c
 8006c20:	f013 5340 	ands.w	r3, r3, #805306368	; 0x30000000
 8006c24:	d011      	beq.n	8006c4a <HAL_RCCEx_GetPeriphCLKFreq+0x10a>
 8006c26:	f1b3 5f80 	cmp.w	r3, #268435456	; 0x10000000
 8006c2a:	d04f      	beq.n	8006ccc <HAL_RCCEx_GetPeriphCLKFreq+0x18c>
 8006c2c:	f1b3 5f00 	cmp.w	r3, #536870912	; 0x20000000
 8006c30:	482c      	ldr	r0, [pc, #176]	; (8006ce4 <HAL_RCCEx_GetPeriphCLKFreq+0x1a4>)
 8006c32:	bf18      	it	ne
 8006c34:	2000      	movne	r0, #0
 8006c36:	e79d      	b.n	8006b74 <HAL_RCCEx_GetPeriphCLKFreq+0x34>
 8006c38:	2bc0      	cmp	r3, #192	; 0xc0
 8006c3a:	d0d3      	beq.n	8006be4 <HAL_RCCEx_GetPeriphCLKFreq+0xa4>
 8006c3c:	f5b3 7f80 	cmp.w	r3, #256	; 0x100
 8006c40:	d197      	bne.n	8006b72 <HAL_RCCEx_GetPeriphCLKFreq+0x32>
 8006c42:	6cd3      	ldr	r3, [r2, #76]	; 0x4c
 8006c44:	f013 5340 	ands.w	r3, r3, #805306368	; 0x30000000
 8006c48:	d1ed      	bne.n	8006c26 <HAL_RCCEx_GetPeriphCLKFreq+0xe6>
 8006c4a:	4827      	ldr	r0, [pc, #156]	; (8006ce8 <HAL_RCCEx_GetPeriphCLKFreq+0x1a8>)
 8006c4c:	e792      	b.n	8006b74 <HAL_RCCEx_GetPeriphCLKFreq+0x34>
 8006c4e:	4a23      	ldr	r2, [pc, #140]	; (8006cdc <HAL_RCCEx_GetPeriphCLKFreq+0x19c>)
 8006c50:	6d13      	ldr	r3, [r2, #80]	; 0x50
 8006c52:	f403 43e0 	and.w	r3, r3, #28672	; 0x7000
 8006c56:	f5b3 5f00 	cmp.w	r3, #8192	; 0x2000
 8006c5a:	d0d8      	beq.n	8006c0e <HAL_RCCEx_GetPeriphCLKFreq+0xce>
 8006c5c:	d821      	bhi.n	8006ca2 <HAL_RCCEx_GetPeriphCLKFreq+0x162>
 8006c5e:	2b00      	cmp	r3, #0
 8006c60:	d0ce      	beq.n	8006c00 <HAL_RCCEx_GetPeriphCLKFreq+0xc0>
 8006c62:	f5b3 5f80 	cmp.w	r3, #4096	; 0x1000
 8006c66:	d093      	beq.n	8006b90 <HAL_RCCEx_GetPeriphCLKFreq+0x50>
 8006c68:	e783      	b.n	8006b72 <HAL_RCCEx_GetPeriphCLKFreq+0x32>
 8006c6a:	f1b3 7f40 	cmp.w	r3, #50331648	; 0x3000000
 8006c6e:	d0b9      	beq.n	8006be4 <HAL_RCCEx_GetPeriphCLKFreq+0xa4>
 8006c70:	f1b3 6f80 	cmp.w	r3, #67108864	; 0x4000000
 8006c74:	d0e5      	beq.n	8006c42 <HAL_RCCEx_GetPeriphCLKFreq+0x102>
 8006c76:	e77c      	b.n	8006b72 <HAL_RCCEx_GetPeriphCLKFreq+0x32>
 8006c78:	f5b3 0f00 	cmp.w	r3, #8388608	; 0x800000
 8006c7c:	d0e1      	beq.n	8006c42 <HAL_RCCEx_GetPeriphCLKFreq+0x102>
 8006c7e:	e778      	b.n	8006b72 <HAL_RCCEx_GetPeriphCLKFreq+0x32>
 8006c80:	f5b3 1f00 	cmp.w	r3, #2097152	; 0x200000
 8006c84:	d084      	beq.n	8006b90 <HAL_RCCEx_GetPeriphCLKFreq+0x50>
 8006c86:	e774      	b.n	8006b72 <HAL_RCCEx_GetPeriphCLKFreq+0x32>
 8006c88:	4b14      	ldr	r3, [pc, #80]	; (8006cdc <HAL_RCCEx_GetPeriphCLKFreq+0x19c>)
 8006c8a:	6cdb      	ldr	r3, [r3, #76]	; 0x4c
 8006c8c:	f413 3380 	ands.w	r3, r3, #65536	; 0x10000
 8006c90:	d0b6      	beq.n	8006c00 <HAL_RCCEx_GetPeriphCLKFreq+0xc0>
 8006c92:	2b00      	cmp	r3, #0
 8006c94:	f43f af6d 	beq.w	8006b72 <HAL_RCCEx_GetPeriphCLKFreq+0x32>
 8006c98:	a801      	add	r0, sp, #4
 8006c9a:	f7ff fd89 	bl	80067b0 <HAL_RCCEx_GetPLL2ClockFreq>
 8006c9e:	9803      	ldr	r0, [sp, #12]
 8006ca0:	e768      	b.n	8006b74 <HAL_RCCEx_GetPeriphCLKFreq+0x34>
 8006ca2:	f5b3 5f40 	cmp.w	r3, #12288	; 0x3000
 8006ca6:	d09d      	beq.n	8006be4 <HAL_RCCEx_GetPeriphCLKFreq+0xa4>
 8006ca8:	f5b3 4f80 	cmp.w	r3, #16384	; 0x4000
 8006cac:	d0c9      	beq.n	8006c42 <HAL_RCCEx_GetPeriphCLKFreq+0x102>
 8006cae:	e760      	b.n	8006b72 <HAL_RCCEx_GetPeriphCLKFreq+0x32>
 8006cb0:	4a0a      	ldr	r2, [pc, #40]	; (8006cdc <HAL_RCCEx_GetPeriphCLKFreq+0x19c>)
 8006cb2:	6d93      	ldr	r3, [r2, #88]	; 0x58
 8006cb4:	f403 3340 	and.w	r3, r3, #196608	; 0x30000
 8006cb8:	f5b3 3f80 	cmp.w	r3, #65536	; 0x10000
 8006cbc:	d008      	beq.n	8006cd0 <HAL_RCCEx_GetPeriphCLKFreq+0x190>
 8006cbe:	f5b3 3f00 	cmp.w	r3, #131072	; 0x20000
 8006cc2:	d0be      	beq.n	8006c42 <HAL_RCCEx_GetPeriphCLKFreq+0x102>
 8006cc4:	2b00      	cmp	r3, #0
 8006cc6:	f47f af54 	bne.w	8006b72 <HAL_RCCEx_GetPeriphCLKFreq+0x32>
 8006cca:	e761      	b.n	8006b90 <HAL_RCCEx_GetPeriphCLKFreq+0x50>
 8006ccc:	4807      	ldr	r0, [pc, #28]	; (8006cec <HAL_RCCEx_GetPeriphCLKFreq+0x1ac>)
 8006cce:	e751      	b.n	8006b74 <HAL_RCCEx_GetPeriphCLKFreq+0x34>
 8006cd0:	a801      	add	r0, sp, #4
 8006cd2:	f7ff fe05 	bl	80068e0 <HAL_RCCEx_GetPLL3ClockFreq>
 8006cd6:	9803      	ldr	r0, [sp, #12]
 8006cd8:	e74c      	b.n	8006b74 <HAL_RCCEx_GetPeriphCLKFreq+0x34>
 8006cda:	bf00      	nop
 8006cdc:	58024400 	.word	0x58024400
 8006ce0:	00bb8000 	.word	0x00bb8000
 8006ce4:	007a1200 	.word	0x007a1200
 8006ce8:	03d09000 	.word	0x03d09000
 8006cec:	003d0900 	.word	0x003d0900

08006cf0 <HAL_RCCEx_GetD1SysClockFreq>:
 8006cf0:	b508      	push	{r3, lr}
 8006cf2:	f7fe fa19 	bl	8005128 <HAL_RCC_GetSysClockFreq>
 8006cf6:	4b06      	ldr	r3, [pc, #24]	; (8006d10 <HAL_RCCEx_GetD1SysClockFreq+0x20>)
 8006cf8:	4906      	ldr	r1, [pc, #24]	; (8006d14 <HAL_RCCEx_GetD1SysClockFreq+0x24>)
 8006cfa:	699b      	ldr	r3, [r3, #24]
 8006cfc:	4a06      	ldr	r2, [pc, #24]	; (8006d18 <HAL_RCCEx_GetD1SysClockFreq+0x28>)
 8006cfe:	f3c3 2303 	ubfx	r3, r3, #8, #4
 8006d02:	5ccb      	ldrb	r3, [r1, r3]
 8006d04:	f003 031f 	and.w	r3, r3, #31
 8006d08:	40d8      	lsrs	r0, r3
 8006d0a:	6010      	str	r0, [r2, #0]
 8006d0c:	bd08      	pop	{r3, pc}
 8006d0e:	bf00      	nop
 8006d10:	58024400 	.word	0x58024400
 8006d14:	0800cf44 	.word	0x0800cf44
 8006d18:	24000000 	.word	0x24000000

08006d1c <TIM_OC1_SetConfig>:
 8006d1c:	6a02      	ldr	r2, [r0, #32]
 8006d1e:	4b3d      	ldr	r3, [pc, #244]	; (8006e14 <TIM_OC1_SetConfig+0xf8>)
 8006d20:	f022 0201 	bic.w	r2, r2, #1
 8006d24:	e92d 41f0 	stmdb	sp!, {r4, r5, r6, r7, r8, lr}
 8006d28:	460f      	mov	r7, r1
 8006d2a:	6889      	ldr	r1, [r1, #8]
 8006d2c:	4604      	mov	r4, r0
 8006d2e:	683e      	ldr	r6, [r7, #0]
 8006d30:	6202      	str	r2, [r0, #32]
 8006d32:	6a05      	ldr	r5, [r0, #32]
 8006d34:	f8d0 8004 	ldr.w	r8, [r0, #4]
 8006d38:	6982      	ldr	r2, [r0, #24]
 8006d3a:	f025 0502 	bic.w	r5, r5, #2
 8006d3e:	4013      	ands	r3, r2
 8006d40:	4a35      	ldr	r2, [pc, #212]	; (8006e18 <TIM_OC1_SetConfig+0xfc>)
 8006d42:	430d      	orrs	r5, r1
 8006d44:	4290      	cmp	r0, r2
 8006d46:	ea46 0603 	orr.w	r6, r6, r3
 8006d4a:	d03b      	beq.n	8006dc4 <TIM_OC1_SetConfig+0xa8>
 8006d4c:	4b33      	ldr	r3, [pc, #204]	; (8006e1c <TIM_OC1_SetConfig+0x100>)
 8006d4e:	4298      	cmp	r0, r3
 8006d50:	d038      	beq.n	8006dc4 <TIM_OC1_SetConfig+0xa8>
 8006d52:	f502 4280 	add.w	r2, r2, #16384	; 0x4000
 8006d56:	f503 4380 	add.w	r3, r3, #16384	; 0x4000
 8006d5a:	4298      	cmp	r0, r3
 8006d5c:	bf18      	it	ne
 8006d5e:	4290      	cmpne	r0, r2
 8006d60:	d003      	beq.n	8006d6a <TIM_OC1_SetConfig+0x4e>
 8006d62:	f503 6380 	add.w	r3, r3, #1024	; 0x400
 8006d66:	4298      	cmp	r0, r3
 8006d68:	d144      	bne.n	8006df4 <TIM_OC1_SetConfig+0xd8>
 8006d6a:	68fb      	ldr	r3, [r7, #12]
 8006d6c:	f025 0508 	bic.w	r5, r5, #8
 8006d70:	f033 0208 	bics.w	r2, r3, #8
 8006d74:	d02c      	beq.n	8006dd0 <TIM_OC1_SetConfig+0xb4>
 8006d76:	f641 0106 	movw	r1, #6150	; 0x1806
 8006d7a:	4829      	ldr	r0, [pc, #164]	; (8006e20 <TIM_OC1_SetConfig+0x104>)
 8006d7c:	f7fa f890 	bl	8000ea0 <assert_failed>
 8006d80:	68fb      	ldr	r3, [r7, #12]
 8006d82:	4a28      	ldr	r2, [pc, #160]	; (8006e24 <TIM_OC1_SetConfig+0x108>)
 8006d84:	431d      	orrs	r5, r3
 8006d86:	4b28      	ldr	r3, [pc, #160]	; (8006e28 <TIM_OC1_SetConfig+0x10c>)
 8006d88:	429c      	cmp	r4, r3
 8006d8a:	bf18      	it	ne
 8006d8c:	4294      	cmpne	r4, r2
 8006d8e:	f025 0504 	bic.w	r5, r5, #4
 8006d92:	d020      	beq.n	8006dd6 <TIM_OC1_SetConfig+0xba>
 8006d94:	f503 6380 	add.w	r3, r3, #1024	; 0x400
 8006d98:	429c      	cmp	r4, r3
 8006d9a:	d12b      	bne.n	8006df4 <TIM_OC1_SetConfig+0xd8>
 8006d9c:	69bb      	ldr	r3, [r7, #24]
 8006d9e:	f433 7300 	bics.w	r3, r3, #512	; 0x200
 8006da2:	d01c      	beq.n	8006dde <TIM_OC1_SetConfig+0xc2>
 8006da4:	f641 0113 	movw	r1, #6163	; 0x1813
 8006da8:	481d      	ldr	r0, [pc, #116]	; (8006e20 <TIM_OC1_SetConfig+0x104>)
 8006daa:	f7fa f879 	bl	8000ea0 <assert_failed>
 8006dae:	697b      	ldr	r3, [r7, #20]
 8006db0:	f433 7280 	bics.w	r2, r3, #256	; 0x100
 8006db4:	d017      	beq.n	8006de6 <TIM_OC1_SetConfig+0xca>
 8006db6:	f641 0114 	movw	r1, #6164	; 0x1814
 8006dba:	4819      	ldr	r0, [pc, #100]	; (8006e20 <TIM_OC1_SetConfig+0x104>)
 8006dbc:	f7fa f870 	bl	8000ea0 <assert_failed>
 8006dc0:	697b      	ldr	r3, [r7, #20]
 8006dc2:	e010      	b.n	8006de6 <TIM_OC1_SetConfig+0xca>
 8006dc4:	68fb      	ldr	r3, [r7, #12]
 8006dc6:	f025 0508 	bic.w	r5, r5, #8
 8006dca:	f033 0208 	bics.w	r2, r3, #8
 8006dce:	d119      	bne.n	8006e04 <TIM_OC1_SetConfig+0xe8>
 8006dd0:	431d      	orrs	r5, r3
 8006dd2:	f025 0504 	bic.w	r5, r5, #4
 8006dd6:	69bb      	ldr	r3, [r7, #24]
 8006dd8:	f433 7300 	bics.w	r3, r3, #512	; 0x200
 8006ddc:	d1e2      	bne.n	8006da4 <TIM_OC1_SetConfig+0x88>
 8006dde:	697b      	ldr	r3, [r7, #20]
 8006de0:	f433 7280 	bics.w	r2, r3, #256	; 0x100
 8006de4:	d1e7      	bne.n	8006db6 <TIM_OC1_SetConfig+0x9a>
 8006de6:	f428 7840 	bic.w	r8, r8, #768	; 0x300
 8006dea:	69ba      	ldr	r2, [r7, #24]
 8006dec:	ea48 0802 	orr.w	r8, r8, r2
 8006df0:	ea48 0803 	orr.w	r8, r8, r3
 8006df4:	687b      	ldr	r3, [r7, #4]
 8006df6:	f8c4 8004 	str.w	r8, [r4, #4]
 8006dfa:	61a6      	str	r6, [r4, #24]
 8006dfc:	6363      	str	r3, [r4, #52]	; 0x34
 8006dfe:	6225      	str	r5, [r4, #32]
 8006e00:	e8bd 81f0 	ldmia.w	sp!, {r4, r5, r6, r7, r8, pc}
 8006e04:	f641 0106 	movw	r1, #6150	; 0x1806
 8006e08:	4805      	ldr	r0, [pc, #20]	; (8006e20 <TIM_OC1_SetConfig+0x104>)
 8006e0a:	f7fa f849 	bl	8000ea0 <assert_failed>
 8006e0e:	68fb      	ldr	r3, [r7, #12]
 8006e10:	e7de      	b.n	8006dd0 <TIM_OC1_SetConfig+0xb4>
 8006e12:	bf00      	nop
 8006e14:	fffeff8c 	.word	0xfffeff8c
 8006e18:	40010000 	.word	0x40010000
 8006e1c:	40010400 	.word	0x40010400
 8006e20:	0800d1bc 	.word	0x0800d1bc
 8006e24:	40014000 	.word	0x40014000
 8006e28:	40014400 	.word	0x40014400

08006e2c <TIM_OC3_SetConfig>:
 8006e2c:	6a02      	ldr	r2, [r0, #32]
 8006e2e:	e92d 41f0 	stmdb	sp!, {r4, r5, r6, r7, r8, lr}
 8006e32:	f422 7280 	bic.w	r2, r2, #256	; 0x100
 8006e36:	4604      	mov	r4, r0
 8006e38:	460e      	mov	r6, r1
 8006e3a:	4930      	ldr	r1, [pc, #192]	; (8006efc <TIM_OC3_SetConfig+0xd0>)
 8006e3c:	f8d6 c008 	ldr.w	ip, [r6, #8]
 8006e40:	428c      	cmp	r4, r1
 8006e42:	6830      	ldr	r0, [r6, #0]
 8006e44:	6222      	str	r2, [r4, #32]
 8006e46:	6a25      	ldr	r5, [r4, #32]
 8006e48:	6867      	ldr	r7, [r4, #4]
 8006e4a:	69e3      	ldr	r3, [r4, #28]
 8006e4c:	f425 7500 	bic.w	r5, r5, #512	; 0x200
 8006e50:	f023 0373 	bic.w	r3, r3, #115	; 0x73
 8006e54:	ea45 250c 	orr.w	r5, r5, ip, lsl #8
 8006e58:	ea43 0800 	orr.w	r8, r3, r0
 8006e5c:	d023      	beq.n	8006ea6 <TIM_OC3_SetConfig+0x7a>
 8006e5e:	4b28      	ldr	r3, [pc, #160]	; (8006f00 <TIM_OC3_SetConfig+0xd4>)
 8006e60:	429c      	cmp	r4, r3
 8006e62:	d020      	beq.n	8006ea6 <TIM_OC3_SetConfig+0x7a>
 8006e64:	4a27      	ldr	r2, [pc, #156]	; (8006f04 <TIM_OC3_SetConfig+0xd8>)
 8006e66:	4b28      	ldr	r3, [pc, #160]	; (8006f08 <TIM_OC3_SetConfig+0xdc>)
 8006e68:	429c      	cmp	r4, r3
 8006e6a:	bf18      	it	ne
 8006e6c:	4294      	cmpne	r4, r2
 8006e6e:	d003      	beq.n	8006e78 <TIM_OC3_SetConfig+0x4c>
 8006e70:	f503 6380 	add.w	r3, r3, #1024	; 0x400
 8006e74:	429c      	cmp	r4, r3
 8006e76:	d10e      	bne.n	8006e96 <TIM_OC3_SetConfig+0x6a>
 8006e78:	69b3      	ldr	r3, [r6, #24]
 8006e7a:	f433 7300 	bics.w	r3, r3, #512	; 0x200
 8006e7e:	d120      	bne.n	8006ec2 <TIM_OC3_SetConfig+0x96>
 8006e80:	6972      	ldr	r2, [r6, #20]
 8006e82:	f432 7380 	bics.w	r3, r2, #256	; 0x100
 8006e86:	d125      	bne.n	8006ed4 <TIM_OC3_SetConfig+0xa8>
 8006e88:	f427 5740 	bic.w	r7, r7, #12288	; 0x3000
 8006e8c:	69b3      	ldr	r3, [r6, #24]
 8006e8e:	ea47 1703 	orr.w	r7, r7, r3, lsl #4
 8006e92:	ea47 1702 	orr.w	r7, r7, r2, lsl #4
 8006e96:	6872      	ldr	r2, [r6, #4]
 8006e98:	6067      	str	r7, [r4, #4]
 8006e9a:	f8c4 801c 	str.w	r8, [r4, #28]
 8006e9e:	63e2      	str	r2, [r4, #60]	; 0x3c
 8006ea0:	6225      	str	r5, [r4, #32]
 8006ea2:	e8bd 81f0 	ldmia.w	sp!, {r4, r5, r6, r7, r8, pc}
 8006ea6:	68f3      	ldr	r3, [r6, #12]
 8006ea8:	f033 0208 	bics.w	r2, r3, #8
 8006eac:	d119      	bne.n	8006ee2 <TIM_OC3_SetConfig+0xb6>
 8006eae:	f425 6500 	bic.w	r5, r5, #2048	; 0x800
 8006eb2:	ea45 2503 	orr.w	r5, r5, r3, lsl #8
 8006eb6:	f425 6580 	bic.w	r5, r5, #1024	; 0x400
 8006eba:	69b3      	ldr	r3, [r6, #24]
 8006ebc:	f433 7300 	bics.w	r3, r3, #512	; 0x200
 8006ec0:	d0de      	beq.n	8006e80 <TIM_OC3_SetConfig+0x54>
 8006ec2:	f641 01a9 	movw	r1, #6313	; 0x18a9
 8006ec6:	4811      	ldr	r0, [pc, #68]	; (8006f0c <TIM_OC3_SetConfig+0xe0>)
 8006ec8:	f7f9 ffea 	bl	8000ea0 <assert_failed>
 8006ecc:	6972      	ldr	r2, [r6, #20]
 8006ece:	f432 7380 	bics.w	r3, r2, #256	; 0x100
 8006ed2:	d0d9      	beq.n	8006e88 <TIM_OC3_SetConfig+0x5c>
 8006ed4:	f641 01aa 	movw	r1, #6314	; 0x18aa
 8006ed8:	480c      	ldr	r0, [pc, #48]	; (8006f0c <TIM_OC3_SetConfig+0xe0>)
 8006eda:	f7f9 ffe1 	bl	8000ea0 <assert_failed>
 8006ede:	6972      	ldr	r2, [r6, #20]
 8006ee0:	e7d2      	b.n	8006e88 <TIM_OC3_SetConfig+0x5c>
 8006ee2:	f641 019c 	movw	r1, #6300	; 0x189c
 8006ee6:	4809      	ldr	r0, [pc, #36]	; (8006f0c <TIM_OC3_SetConfig+0xe0>)
 8006ee8:	f7f9 ffda 	bl	8000ea0 <assert_failed>
 8006eec:	f425 6500 	bic.w	r5, r5, #2048	; 0x800
 8006ef0:	68f3      	ldr	r3, [r6, #12]
 8006ef2:	ea45 2503 	orr.w	r5, r5, r3, lsl #8
 8006ef6:	f425 6580 	bic.w	r5, r5, #1024	; 0x400
 8006efa:	e7de      	b.n	8006eba <TIM_OC3_SetConfig+0x8e>
 8006efc:	40010000 	.word	0x40010000
 8006f00:	40010400 	.word	0x40010400
 8006f04:	40014000 	.word	0x40014000
 8006f08:	40014400 	.word	0x40014400
 8006f0c:	0800d1bc 	.word	0x0800d1bc

08006f10 <HAL_TIM_Base_Init>:
 8006f10:	2800      	cmp	r0, #0
 8006f12:	f000 80dd 	beq.w	80070d0 <HAL_TIM_Base_Init+0x1c0>
 8006f16:	6802      	ldr	r2, [r0, #0]
 8006f18:	4b7f      	ldr	r3, [pc, #508]	; (8007118 <HAL_TIM_Base_Init+0x208>)
 8006f1a:	4980      	ldr	r1, [pc, #512]	; (800711c <HAL_TIM_Base_Init+0x20c>)
 8006f1c:	429a      	cmp	r2, r3
 8006f1e:	bf18      	it	ne
 8006f20:	f1b2 4f80 	cmpne.w	r2, #1073741824	; 0x40000000
 8006f24:	b570      	push	{r4, r5, r6, lr}
 8006f26:	bf14      	ite	ne
 8006f28:	2301      	movne	r3, #1
 8006f2a:	2300      	moveq	r3, #0
 8006f2c:	4604      	mov	r4, r0
 8006f2e:	487c      	ldr	r0, [pc, #496]	; (8007120 <HAL_TIM_Base_Init+0x210>)
 8006f30:	4d7c      	ldr	r5, [pc, #496]	; (8007124 <HAL_TIM_Base_Init+0x214>)
 8006f32:	4282      	cmp	r2, r0
 8006f34:	bf0c      	ite	eq
 8006f36:	2300      	moveq	r3, #0
 8006f38:	f003 0301 	andne.w	r3, r3, #1
 8006f3c:	f500 6040 	add.w	r0, r0, #3072	; 0xc00
 8006f40:	428a      	cmp	r2, r1
 8006f42:	bf0c      	ite	eq
 8006f44:	2300      	moveq	r3, #0
 8006f46:	f003 0301 	andne.w	r3, r3, #1
 8006f4a:	f501 6140 	add.w	r1, r1, #3072	; 0xc00
 8006f4e:	42aa      	cmp	r2, r5
 8006f50:	bf0c      	ite	eq
 8006f52:	2300      	moveq	r3, #0
 8006f54:	f003 0301 	andne.w	r3, r3, #1
 8006f58:	f505 4578 	add.w	r5, r5, #63488	; 0xf800
 8006f5c:	4282      	cmp	r2, r0
 8006f5e:	bf0c      	ite	eq
 8006f60:	2300      	moveq	r3, #0
 8006f62:	f003 0301 	andne.w	r3, r3, #1
 8006f66:	f500 6000 	add.w	r0, r0, #2048	; 0x800
 8006f6a:	428a      	cmp	r2, r1
 8006f6c:	bf0c      	ite	eq
 8006f6e:	2300      	moveq	r3, #0
 8006f70:	f003 0301 	andne.w	r3, r3, #1
 8006f74:	f501 6100 	add.w	r1, r1, #2048	; 0x800
 8006f78:	42aa      	cmp	r2, r5
 8006f7a:	bf0c      	ite	eq
 8006f7c:	2300      	moveq	r3, #0
 8006f7e:	f003 0301 	andne.w	r3, r3, #1
 8006f82:	f5a5 4564 	sub.w	r5, r5, #58368	; 0xe400
 8006f86:	4282      	cmp	r2, r0
 8006f88:	bf0c      	ite	eq
 8006f8a:	2300      	moveq	r3, #0
 8006f8c:	f003 0301 	andne.w	r3, r3, #1
 8006f90:	f500 3094 	add.w	r0, r0, #75776	; 0x12800
 8006f94:	428a      	cmp	r2, r1
 8006f96:	bf0c      	ite	eq
 8006f98:	2300      	moveq	r3, #0
 8006f9a:	f003 0301 	andne.w	r3, r3, #1
 8006f9e:	f501 3194 	add.w	r1, r1, #75776	; 0x12800
 8006fa2:	42aa      	cmp	r2, r5
 8006fa4:	bf0c      	ite	eq
 8006fa6:	2300      	moveq	r3, #0
 8006fa8:	f003 0301 	andne.w	r3, r3, #1
 8006fac:	4282      	cmp	r2, r0
 8006fae:	bf0c      	ite	eq
 8006fb0:	2300      	moveq	r3, #0
 8006fb2:	f003 0301 	andne.w	r3, r3, #1
 8006fb6:	428a      	cmp	r2, r1
 8006fb8:	bf0c      	ite	eq
 8006fba:	2300      	moveq	r3, #0
 8006fbc:	f003 0301 	andne.w	r3, r3, #1
 8006fc0:	b11b      	cbz	r3, 8006fca <HAL_TIM_Base_Init+0xba>
 8006fc2:	4b59      	ldr	r3, [pc, #356]	; (8007128 <HAL_TIM_Base_Init+0x218>)
 8006fc4:	429a      	cmp	r2, r3
 8006fc6:	f040 80a0 	bne.w	800710a <HAL_TIM_Base_Init+0x1fa>
 8006fca:	68a3      	ldr	r3, [r4, #8]
 8006fcc:	f023 0140 	bic.w	r1, r3, #64	; 0x40
 8006fd0:	f023 0210 	bic.w	r2, r3, #16
 8006fd4:	2920      	cmp	r1, #32
 8006fd6:	bf18      	it	ne
 8006fd8:	2a00      	cmpne	r2, #0
 8006fda:	d002      	beq.n	8006fe2 <HAL_TIM_Base_Init+0xd2>
 8006fdc:	2b40      	cmp	r3, #64	; 0x40
 8006fde:	f040 8083 	bne.w	80070e8 <HAL_TIM_Base_Init+0x1d8>
 8006fe2:	6923      	ldr	r3, [r4, #16]
 8006fe4:	f433 7280 	bics.w	r2, r3, #256	; 0x100
 8006fe8:	d002      	beq.n	8006ff0 <HAL_TIM_Base_Init+0xe0>
 8006fea:	f5b3 7f00 	cmp.w	r3, #512	; 0x200
 8006fee:	d171      	bne.n	80070d4 <HAL_TIM_Base_Init+0x1c4>
 8006ff0:	69a3      	ldr	r3, [r4, #24]
 8006ff2:	f033 0380 	bics.w	r3, r3, #128	; 0x80
 8006ff6:	d15f      	bne.n	80070b8 <HAL_TIM_Base_Init+0x1a8>
 8006ff8:	f894 303d 	ldrb.w	r3, [r4, #61]	; 0x3d
 8006ffc:	f003 02ff 	and.w	r2, r3, #255	; 0xff
 8007000:	2b00      	cmp	r3, #0
 8007002:	d053      	beq.n	80070ac <HAL_TIM_Base_Init+0x19c>
 8007004:	6822      	ldr	r2, [r4, #0]
 8007006:	2302      	movs	r3, #2
 8007008:	4943      	ldr	r1, [pc, #268]	; (8007118 <HAL_TIM_Base_Init+0x208>)
 800700a:	4e48      	ldr	r6, [pc, #288]	; (800712c <HAL_TIM_Base_Init+0x21c>)
 800700c:	f1b2 4f80 	cmp.w	r2, #1073741824	; 0x40000000
 8007010:	eba2 0101 	sub.w	r1, r2, r1
 8007014:	f884 303d 	strb.w	r3, [r4, #61]	; 0x3d
 8007018:	eba2 0606 	sub.w	r6, r2, r6
 800701c:	6813      	ldr	r3, [r2, #0]
 800701e:	fab1 f181 	clz	r1, r1
 8007022:	fab6 f686 	clz	r6, r6
 8007026:	ea4f 1151 	mov.w	r1, r1, lsr #5
 800702a:	ea4f 1656 	mov.w	r6, r6, lsr #5
 800702e:	d018      	beq.n	8007062 <HAL_TIM_Base_Init+0x152>
 8007030:	b9b9      	cbnz	r1, 8007062 <HAL_TIM_Base_Init+0x152>
 8007032:	483b      	ldr	r0, [pc, #236]	; (8007120 <HAL_TIM_Base_Init+0x210>)
 8007034:	4282      	cmp	r2, r0
 8007036:	d014      	beq.n	8007062 <HAL_TIM_Base_Init+0x152>
 8007038:	f500 6080 	add.w	r0, r0, #1024	; 0x400
 800703c:	4282      	cmp	r2, r0
 800703e:	d010      	beq.n	8007062 <HAL_TIM_Base_Init+0x152>
 8007040:	f500 6080 	add.w	r0, r0, #1024	; 0x400
 8007044:	4282      	cmp	r2, r0
 8007046:	d055      	beq.n	80070f4 <HAL_TIM_Base_Init+0x1e4>
 8007048:	2e00      	cmp	r6, #0
 800704a:	d153      	bne.n	80070f4 <HAL_TIM_Base_Init+0x1e4>
 800704c:	4d38      	ldr	r5, [pc, #224]	; (8007130 <HAL_TIM_Base_Init+0x220>)
 800704e:	4839      	ldr	r0, [pc, #228]	; (8007134 <HAL_TIM_Base_Init+0x224>)
 8007050:	4282      	cmp	r2, r0
 8007052:	bf18      	it	ne
 8007054:	42aa      	cmpne	r2, r5
 8007056:	d008      	beq.n	800706a <HAL_TIM_Base_Init+0x15a>
 8007058:	f500 6080 	add.w	r0, r0, #1024	; 0x400
 800705c:	4282      	cmp	r2, r0
 800705e:	d108      	bne.n	8007072 <HAL_TIM_Base_Init+0x162>
 8007060:	e003      	b.n	800706a <HAL_TIM_Base_Init+0x15a>
 8007062:	f023 0370 	bic.w	r3, r3, #112	; 0x70
 8007066:	68a0      	ldr	r0, [r4, #8]
 8007068:	4303      	orrs	r3, r0
 800706a:	f423 7340 	bic.w	r3, r3, #768	; 0x300
 800706e:	6920      	ldr	r0, [r4, #16]
 8007070:	4303      	orrs	r3, r0
 8007072:	69a0      	ldr	r0, [r4, #24]
 8007074:	f023 0380 	bic.w	r3, r3, #128	; 0x80
 8007078:	68e5      	ldr	r5, [r4, #12]
 800707a:	4303      	orrs	r3, r0
 800707c:	6860      	ldr	r0, [r4, #4]
 800707e:	6013      	str	r3, [r2, #0]
 8007080:	62d5      	str	r5, [r2, #44]	; 0x2c
 8007082:	6290      	str	r0, [r2, #40]	; 0x28
 8007084:	b951      	cbnz	r1, 800709c <HAL_TIM_Base_Init+0x18c>
 8007086:	b94e      	cbnz	r6, 800709c <HAL_TIM_Base_Init+0x18c>
 8007088:	4929      	ldr	r1, [pc, #164]	; (8007130 <HAL_TIM_Base_Init+0x220>)
 800708a:	4b2a      	ldr	r3, [pc, #168]	; (8007134 <HAL_TIM_Base_Init+0x224>)
 800708c:	429a      	cmp	r2, r3
 800708e:	bf18      	it	ne
 8007090:	428a      	cmpne	r2, r1
 8007092:	d003      	beq.n	800709c <HAL_TIM_Base_Init+0x18c>
 8007094:	f503 6380 	add.w	r3, r3, #1024	; 0x400
 8007098:	429a      	cmp	r2, r3
 800709a:	d101      	bne.n	80070a0 <HAL_TIM_Base_Init+0x190>
 800709c:	6963      	ldr	r3, [r4, #20]
 800709e:	6313      	str	r3, [r2, #48]	; 0x30
 80070a0:	2301      	movs	r3, #1
 80070a2:	2000      	movs	r0, #0
 80070a4:	6153      	str	r3, [r2, #20]
 80070a6:	f884 303d 	strb.w	r3, [r4, #61]	; 0x3d
 80070aa:	bd70      	pop	{r4, r5, r6, pc}
 80070ac:	f884 203c 	strb.w	r2, [r4, #60]	; 0x3c
 80070b0:	4620      	mov	r0, r4
 80070b2:	f7fa f8d1 	bl	8001258 <HAL_TIM_Base_MspInit>
 80070b6:	e7a5      	b.n	8007004 <HAL_TIM_Base_Init+0xf4>
 80070b8:	f44f 718c 	mov.w	r1, #280	; 0x118
 80070bc:	481e      	ldr	r0, [pc, #120]	; (8007138 <HAL_TIM_Base_Init+0x228>)
 80070be:	f7f9 feef 	bl	8000ea0 <assert_failed>
 80070c2:	f894 303d 	ldrb.w	r3, [r4, #61]	; 0x3d
 80070c6:	f003 02ff 	and.w	r2, r3, #255	; 0xff
 80070ca:	2b00      	cmp	r3, #0
 80070cc:	d19a      	bne.n	8007004 <HAL_TIM_Base_Init+0xf4>
 80070ce:	e7ed      	b.n	80070ac <HAL_TIM_Base_Init+0x19c>
 80070d0:	2001      	movs	r0, #1
 80070d2:	4770      	bx	lr
 80070d4:	f240 1117 	movw	r1, #279	; 0x117
 80070d8:	4817      	ldr	r0, [pc, #92]	; (8007138 <HAL_TIM_Base_Init+0x228>)
 80070da:	f7f9 fee1 	bl	8000ea0 <assert_failed>
 80070de:	69a3      	ldr	r3, [r4, #24]
 80070e0:	f033 0380 	bics.w	r3, r3, #128	; 0x80
 80070e4:	d088      	beq.n	8006ff8 <HAL_TIM_Base_Init+0xe8>
 80070e6:	e7e7      	b.n	80070b8 <HAL_TIM_Base_Init+0x1a8>
 80070e8:	f44f 718b 	mov.w	r1, #278	; 0x116
 80070ec:	4812      	ldr	r0, [pc, #72]	; (8007138 <HAL_TIM_Base_Init+0x228>)
 80070ee:	f7f9 fed7 	bl	8000ea0 <assert_failed>
 80070f2:	e776      	b.n	8006fe2 <HAL_TIM_Base_Init+0xd2>
 80070f4:	480b      	ldr	r0, [pc, #44]	; (8007124 <HAL_TIM_Base_Init+0x214>)
 80070f6:	f023 0370 	bic.w	r3, r3, #112	; 0x70
 80070fa:	68a5      	ldr	r5, [r4, #8]
 80070fc:	4282      	cmp	r2, r0
 80070fe:	ea43 0305 	orr.w	r3, r3, r5
 8007102:	d0b2      	beq.n	800706a <HAL_TIM_Base_Init+0x15a>
 8007104:	2e00      	cmp	r6, #0
 8007106:	d1b0      	bne.n	800706a <HAL_TIM_Base_Init+0x15a>
 8007108:	e7a0      	b.n	800704c <HAL_TIM_Base_Init+0x13c>
 800710a:	f240 1115 	movw	r1, #277	; 0x115
 800710e:	480a      	ldr	r0, [pc, #40]	; (8007138 <HAL_TIM_Base_Init+0x228>)
 8007110:	f7f9 fec6 	bl	8000ea0 <assert_failed>
 8007114:	e759      	b.n	8006fca <HAL_TIM_Base_Init+0xba>
 8007116:	bf00      	nop
 8007118:	40010000 	.word	0x40010000
 800711c:	40000800 	.word	0x40000800
 8007120:	40000400 	.word	0x40000400
 8007124:	40000c00 	.word	0x40000c00
 8007128:	40014800 	.word	0x40014800
 800712c:	40010400 	.word	0x40010400
 8007130:	40014000 	.word	0x40014000
 8007134:	40014400 	.word	0x40014400
 8007138:	0800d1bc 	.word	0x0800d1bc

0800713c <HAL_TIM_Base_Start>:
 800713c:	b538      	push	{r3, r4, r5, lr}
 800713e:	4604      	mov	r4, r0
 8007140:	4b38      	ldr	r3, [pc, #224]	; (8007224 <HAL_TIM_Base_Start+0xe8>)
 8007142:	4839      	ldr	r0, [pc, #228]	; (8007228 <HAL_TIM_Base_Start+0xec>)
 8007144:	6822      	ldr	r2, [r4, #0]
 8007146:	4939      	ldr	r1, [pc, #228]	; (800722c <HAL_TIM_Base_Start+0xf0>)
 8007148:	429a      	cmp	r2, r3
 800714a:	bf18      	it	ne
 800714c:	f1b2 4f80 	cmpne.w	r2, #1073741824	; 0x40000000
 8007150:	4d37      	ldr	r5, [pc, #220]	; (8007230 <HAL_TIM_Base_Start+0xf4>)
 8007152:	bf14      	ite	ne
 8007154:	2301      	movne	r3, #1
 8007156:	2300      	moveq	r3, #0
 8007158:	4282      	cmp	r2, r0
 800715a:	bf0c      	ite	eq
 800715c:	2300      	moveq	r3, #0
 800715e:	f003 0301 	andne.w	r3, r3, #1
 8007162:	f500 6040 	add.w	r0, r0, #3072	; 0xc00
 8007166:	428a      	cmp	r2, r1
 8007168:	bf0c      	ite	eq
 800716a:	2300      	moveq	r3, #0
 800716c:	f003 0301 	andne.w	r3, r3, #1
 8007170:	f501 6140 	add.w	r1, r1, #3072	; 0xc00
 8007174:	42aa      	cmp	r2, r5
 8007176:	bf0c      	ite	eq
 8007178:	2300      	moveq	r3, #0
 800717a:	f003 0301 	andne.w	r3, r3, #1
 800717e:	f505 4578 	add.w	r5, r5, #63488	; 0xf800
 8007182:	4282      	cmp	r2, r0
 8007184:	bf0c      	ite	eq
 8007186:	2300      	moveq	r3, #0
 8007188:	f003 0301 	andne.w	r3, r3, #1
 800718c:	f500 6000 	add.w	r0, r0, #2048	; 0x800
 8007190:	428a      	cmp	r2, r1
 8007192:	bf0c      	ite	eq
 8007194:	2300      	moveq	r3, #0
 8007196:	f003 0301 	andne.w	r3, r3, #1
 800719a:	f501 6100 	add.w	r1, r1, #2048	; 0x800
 800719e:	42aa      	cmp	r2, r5
 80071a0:	bf0c      	ite	eq
 80071a2:	2300      	moveq	r3, #0
 80071a4:	f003 0301 	andne.w	r3, r3, #1
 80071a8:	f5a5 4564 	sub.w	r5, r5, #58368	; 0xe400
 80071ac:	4282      	cmp	r2, r0
 80071ae:	bf0c      	ite	eq
 80071b0:	2300      	moveq	r3, #0
 80071b2:	f003 0301 	andne.w	r3, r3, #1
 80071b6:	f500 3094 	add.w	r0, r0, #75776	; 0x12800
 80071ba:	428a      	cmp	r2, r1
 80071bc:	bf0c      	ite	eq
 80071be:	2300      	moveq	r3, #0
 80071c0:	f003 0301 	andne.w	r3, r3, #1
 80071c4:	f501 3194 	add.w	r1, r1, #75776	; 0x12800
 80071c8:	42aa      	cmp	r2, r5
 80071ca:	bf0c      	ite	eq
 80071cc:	2300      	moveq	r3, #0
 80071ce:	f003 0301 	andne.w	r3, r3, #1
 80071d2:	4282      	cmp	r2, r0
 80071d4:	bf0c      	ite	eq
 80071d6:	2300      	moveq	r3, #0
 80071d8:	f003 0301 	andne.w	r3, r3, #1
 80071dc:	428a      	cmp	r2, r1
 80071de:	bf0c      	ite	eq
 80071e0:	2300      	moveq	r3, #0
 80071e2:	f003 0301 	andne.w	r3, r3, #1
 80071e6:	b113      	cbz	r3, 80071ee <HAL_TIM_Base_Start+0xb2>
 80071e8:	4b12      	ldr	r3, [pc, #72]	; (8007234 <HAL_TIM_Base_Start+0xf8>)
 80071ea:	429a      	cmp	r2, r3
 80071ec:	d113      	bne.n	8007216 <HAL_TIM_Base_Start+0xda>
 80071ee:	2102      	movs	r1, #2
 80071f0:	4b11      	ldr	r3, [pc, #68]	; (8007238 <HAL_TIM_Base_Start+0xfc>)
 80071f2:	f884 103d 	strb.w	r1, [r4, #61]	; 0x3d
 80071f6:	6891      	ldr	r1, [r2, #8]
 80071f8:	400b      	ands	r3, r1
 80071fa:	2b06      	cmp	r3, #6
 80071fc:	d006      	beq.n	800720c <HAL_TIM_Base_Start+0xd0>
 80071fe:	f5b3 3f80 	cmp.w	r3, #65536	; 0x10000
 8007202:	d003      	beq.n	800720c <HAL_TIM_Base_Start+0xd0>
 8007204:	6813      	ldr	r3, [r2, #0]
 8007206:	f043 0301 	orr.w	r3, r3, #1
 800720a:	6013      	str	r3, [r2, #0]
 800720c:	2301      	movs	r3, #1
 800720e:	2000      	movs	r0, #0
 8007210:	f884 303d 	strb.w	r3, [r4, #61]	; 0x3d
 8007214:	bd38      	pop	{r3, r4, r5, pc}
 8007216:	f44f 71c4 	mov.w	r1, #392	; 0x188
 800721a:	4808      	ldr	r0, [pc, #32]	; (800723c <HAL_TIM_Base_Start+0x100>)
 800721c:	f7f9 fe40 	bl	8000ea0 <assert_failed>
 8007220:	6822      	ldr	r2, [r4, #0]
 8007222:	e7e4      	b.n	80071ee <HAL_TIM_Base_Start+0xb2>
 8007224:	40010000 	.word	0x40010000
 8007228:	40000400 	.word	0x40000400
 800722c:	40000800 	.word	0x40000800
 8007230:	40000c00 	.word	0x40000c00
 8007234:	40014800 	.word	0x40014800
 8007238:	00010007 	.word	0x00010007
 800723c:	0800d1bc 	.word	0x0800d1bc

08007240 <HAL_TIM_Base_Start_IT>:
 8007240:	6802      	ldr	r2, [r0, #0]
 8007242:	4938      	ldr	r1, [pc, #224]	; (8007324 <HAL_TIM_Base_Start_IT+0xe4>)
 8007244:	b538      	push	{r3, r4, r5, lr}
 8007246:	4b38      	ldr	r3, [pc, #224]	; (8007328 <HAL_TIM_Base_Start_IT+0xe8>)
 8007248:	4c38      	ldr	r4, [pc, #224]	; (800732c <HAL_TIM_Base_Start_IT+0xec>)
 800724a:	429a      	cmp	r2, r3
 800724c:	bf18      	it	ne
 800724e:	f1b2 4f80 	cmpne.w	r2, #1073741824	; 0x40000000
 8007252:	4d37      	ldr	r5, [pc, #220]	; (8007330 <HAL_TIM_Base_Start_IT+0xf0>)
 8007254:	bf14      	ite	ne
 8007256:	2301      	movne	r3, #1
 8007258:	2300      	moveq	r3, #0
 800725a:	42a2      	cmp	r2, r4
 800725c:	bf0c      	ite	eq
 800725e:	2300      	moveq	r3, #0
 8007260:	f003 0301 	andne.w	r3, r3, #1
 8007264:	f504 6440 	add.w	r4, r4, #3072	; 0xc00
 8007268:	428a      	cmp	r2, r1
 800726a:	bf0c      	ite	eq
 800726c:	2300      	moveq	r3, #0
 800726e:	f003 0301 	andne.w	r3, r3, #1
 8007272:	f501 6140 	add.w	r1, r1, #3072	; 0xc00
 8007276:	42aa      	cmp	r2, r5
 8007278:	bf0c      	ite	eq
 800727a:	2300      	moveq	r3, #0
 800727c:	f003 0301 	andne.w	r3, r3, #1
 8007280:	f505 4578 	add.w	r5, r5, #63488	; 0xf800
 8007284:	42a2      	cmp	r2, r4
 8007286:	bf0c      	ite	eq
 8007288:	2300      	moveq	r3, #0
 800728a:	f003 0301 	andne.w	r3, r3, #1
 800728e:	f504 6400 	add.w	r4, r4, #2048	; 0x800
 8007292:	428a      	cmp	r2, r1
 8007294:	bf0c      	ite	eq
 8007296:	2300      	moveq	r3, #0
 8007298:	f003 0301 	andne.w	r3, r3, #1
 800729c:	f501 6100 	add.w	r1, r1, #2048	; 0x800
 80072a0:	42aa      	cmp	r2, r5
 80072a2:	bf0c      	ite	eq
 80072a4:	2300      	moveq	r3, #0
 80072a6:	f003 0301 	andne.w	r3, r3, #1
 80072aa:	f5a5 4564 	sub.w	r5, r5, #58368	; 0xe400
 80072ae:	42a2      	cmp	r2, r4
 80072b0:	bf0c      	ite	eq
 80072b2:	2300      	moveq	r3, #0
 80072b4:	f003 0301 	andne.w	r3, r3, #1
 80072b8:	f504 3494 	add.w	r4, r4, #75776	; 0x12800
 80072bc:	428a      	cmp	r2, r1
 80072be:	bf0c      	ite	eq
 80072c0:	2300      	moveq	r3, #0
 80072c2:	f003 0301 	andne.w	r3, r3, #1
 80072c6:	f501 3194 	add.w	r1, r1, #75776	; 0x12800
 80072ca:	42aa      	cmp	r2, r5
 80072cc:	bf0c      	ite	eq
 80072ce:	2300      	moveq	r3, #0
 80072d0:	f003 0301 	andne.w	r3, r3, #1
 80072d4:	42a2      	cmp	r2, r4
 80072d6:	bf0c      	ite	eq
 80072d8:	2300      	moveq	r3, #0
 80072da:	f003 0301 	andne.w	r3, r3, #1
 80072de:	428a      	cmp	r2, r1
 80072e0:	bf0c      	ite	eq
 80072e2:	2300      	moveq	r3, #0
 80072e4:	f003 0301 	andne.w	r3, r3, #1
 80072e8:	b113      	cbz	r3, 80072f0 <HAL_TIM_Base_Start_IT+0xb0>
 80072ea:	4b12      	ldr	r3, [pc, #72]	; (8007334 <HAL_TIM_Base_Start_IT+0xf4>)
 80072ec:	429a      	cmp	r2, r3
 80072ee:	d111      	bne.n	8007314 <HAL_TIM_Base_Start_IT+0xd4>
 80072f0:	68d1      	ldr	r1, [r2, #12]
 80072f2:	4b11      	ldr	r3, [pc, #68]	; (8007338 <HAL_TIM_Base_Start_IT+0xf8>)
 80072f4:	f041 0101 	orr.w	r1, r1, #1
 80072f8:	60d1      	str	r1, [r2, #12]
 80072fa:	6891      	ldr	r1, [r2, #8]
 80072fc:	400b      	ands	r3, r1
 80072fe:	2b06      	cmp	r3, #6
 8007300:	d006      	beq.n	8007310 <HAL_TIM_Base_Start_IT+0xd0>
 8007302:	f5b3 3f80 	cmp.w	r3, #65536	; 0x10000
 8007306:	d003      	beq.n	8007310 <HAL_TIM_Base_Start_IT+0xd0>
 8007308:	6813      	ldr	r3, [r2, #0]
 800730a:	f043 0301 	orr.w	r3, r3, #1
 800730e:	6013      	str	r3, [r2, #0]
 8007310:	2000      	movs	r0, #0
 8007312:	bd38      	pop	{r3, r4, r5, pc}
 8007314:	4604      	mov	r4, r0
 8007316:	f44f 71de 	mov.w	r1, #444	; 0x1bc
 800731a:	4808      	ldr	r0, [pc, #32]	; (800733c <HAL_TIM_Base_Start_IT+0xfc>)
 800731c:	f7f9 fdc0 	bl	8000ea0 <assert_failed>
 8007320:	6822      	ldr	r2, [r4, #0]
 8007322:	e7e5      	b.n	80072f0 <HAL_TIM_Base_Start_IT+0xb0>
 8007324:	40000800 	.word	0x40000800
 8007328:	40010000 	.word	0x40010000
 800732c:	40000400 	.word	0x40000400
 8007330:	40000c00 	.word	0x40000c00
 8007334:	40014800 	.word	0x40014800
 8007338:	00010007 	.word	0x00010007
 800733c:	0800d1bc 	.word	0x0800d1bc

08007340 <HAL_TIM_OC_Init>:
 8007340:	2800      	cmp	r0, #0
 8007342:	f000 80dd 	beq.w	8007500 <HAL_TIM_OC_Init+0x1c0>
 8007346:	6802      	ldr	r2, [r0, #0]
 8007348:	4b7f      	ldr	r3, [pc, #508]	; (8007548 <HAL_TIM_OC_Init+0x208>)
 800734a:	4980      	ldr	r1, [pc, #512]	; (800754c <HAL_TIM_OC_Init+0x20c>)
 800734c:	429a      	cmp	r2, r3
 800734e:	bf18      	it	ne
 8007350:	f1b2 4f80 	cmpne.w	r2, #1073741824	; 0x40000000
 8007354:	b570      	push	{r4, r5, r6, lr}
 8007356:	bf14      	ite	ne
 8007358:	2301      	movne	r3, #1
 800735a:	2300      	moveq	r3, #0
 800735c:	4604      	mov	r4, r0
 800735e:	487c      	ldr	r0, [pc, #496]	; (8007550 <HAL_TIM_OC_Init+0x210>)
 8007360:	4d7c      	ldr	r5, [pc, #496]	; (8007554 <HAL_TIM_OC_Init+0x214>)
 8007362:	4282      	cmp	r2, r0
 8007364:	bf0c      	ite	eq
 8007366:	2300      	moveq	r3, #0
 8007368:	f003 0301 	andne.w	r3, r3, #1
 800736c:	f500 6040 	add.w	r0, r0, #3072	; 0xc00
 8007370:	428a      	cmp	r2, r1
 8007372:	bf0c      	ite	eq
 8007374:	2300      	moveq	r3, #0
 8007376:	f003 0301 	andne.w	r3, r3, #1
 800737a:	f501 6140 	add.w	r1, r1, #3072	; 0xc00
 800737e:	42aa      	cmp	r2, r5
 8007380:	bf0c      	ite	eq
 8007382:	2300      	moveq	r3, #0
 8007384:	f003 0301 	andne.w	r3, r3, #1
 8007388:	f505 4578 	add.w	r5, r5, #63488	; 0xf800
 800738c:	4282      	cmp	r2, r0
 800738e:	bf0c      	ite	eq
 8007390:	2300      	moveq	r3, #0
 8007392:	f003 0301 	andne.w	r3, r3, #1
 8007396:	f500 6000 	add.w	r0, r0, #2048	; 0x800
 800739a:	428a      	cmp	r2, r1
 800739c:	bf0c      	ite	eq
 800739e:	2300      	moveq	r3, #0
 80073a0:	f003 0301 	andne.w	r3, r3, #1
 80073a4:	f501 6100 	add.w	r1, r1, #2048	; 0x800
 80073a8:	42aa      	cmp	r2, r5
 80073aa:	bf0c      	ite	eq
 80073ac:	2300      	moveq	r3, #0
 80073ae:	f003 0301 	andne.w	r3, r3, #1
 80073b2:	f5a5 4564 	sub.w	r5, r5, #58368	; 0xe400
 80073b6:	4282      	cmp	r2, r0
 80073b8:	bf0c      	ite	eq
 80073ba:	2300      	moveq	r3, #0
 80073bc:	f003 0301 	andne.w	r3, r3, #1
 80073c0:	f500 3094 	add.w	r0, r0, #75776	; 0x12800
 80073c4:	428a      	cmp	r2, r1
 80073c6:	bf0c      	ite	eq
 80073c8:	2300      	moveq	r3, #0
 80073ca:	f003 0301 	andne.w	r3, r3, #1
 80073ce:	f501 3194 	add.w	r1, r1, #75776	; 0x12800
 80073d2:	42aa      	cmp	r2, r5
 80073d4:	bf0c      	ite	eq
 80073d6:	2300      	moveq	r3, #0
 80073d8:	f003 0301 	andne.w	r3, r3, #1
 80073dc:	4282      	cmp	r2, r0
 80073de:	bf0c      	ite	eq
 80073e0:	2300      	moveq	r3, #0
 80073e2:	f003 0301 	andne.w	r3, r3, #1
 80073e6:	428a      	cmp	r2, r1
 80073e8:	bf0c      	ite	eq
 80073ea:	2300      	moveq	r3, #0
 80073ec:	f003 0301 	andne.w	r3, r3, #1
 80073f0:	b11b      	cbz	r3, 80073fa <HAL_TIM_OC_Init+0xba>
 80073f2:	4b59      	ldr	r3, [pc, #356]	; (8007558 <HAL_TIM_OC_Init+0x218>)
 80073f4:	429a      	cmp	r2, r3
 80073f6:	f040 80a0 	bne.w	800753a <HAL_TIM_OC_Init+0x1fa>
 80073fa:	68a3      	ldr	r3, [r4, #8]
 80073fc:	f023 0140 	bic.w	r1, r3, #64	; 0x40
 8007400:	f023 0210 	bic.w	r2, r3, #16
 8007404:	2920      	cmp	r1, #32
 8007406:	bf18      	it	ne
 8007408:	2a00      	cmpne	r2, #0
 800740a:	d002      	beq.n	8007412 <HAL_TIM_OC_Init+0xd2>
 800740c:	2b40      	cmp	r3, #64	; 0x40
 800740e:	f040 8083 	bne.w	8007518 <HAL_TIM_OC_Init+0x1d8>
 8007412:	6923      	ldr	r3, [r4, #16]
 8007414:	f433 7280 	bics.w	r2, r3, #256	; 0x100
 8007418:	d002      	beq.n	8007420 <HAL_TIM_OC_Init+0xe0>
 800741a:	f5b3 7f00 	cmp.w	r3, #512	; 0x200
 800741e:	d171      	bne.n	8007504 <HAL_TIM_OC_Init+0x1c4>
 8007420:	69a3      	ldr	r3, [r4, #24]
 8007422:	f033 0380 	bics.w	r3, r3, #128	; 0x80
 8007426:	d15f      	bne.n	80074e8 <HAL_TIM_OC_Init+0x1a8>
 8007428:	f894 303d 	ldrb.w	r3, [r4, #61]	; 0x3d
 800742c:	f003 02ff 	and.w	r2, r3, #255	; 0xff
 8007430:	2b00      	cmp	r3, #0
 8007432:	d053      	beq.n	80074dc <HAL_TIM_OC_Init+0x19c>
 8007434:	6822      	ldr	r2, [r4, #0]
 8007436:	2302      	movs	r3, #2
 8007438:	4943      	ldr	r1, [pc, #268]	; (8007548 <HAL_TIM_OC_Init+0x208>)
 800743a:	4e48      	ldr	r6, [pc, #288]	; (800755c <HAL_TIM_OC_Init+0x21c>)
 800743c:	f1b2 4f80 	cmp.w	r2, #1073741824	; 0x40000000
 8007440:	eba2 0101 	sub.w	r1, r2, r1
 8007444:	f884 303d 	strb.w	r3, [r4, #61]	; 0x3d
 8007448:	eba2 0606 	sub.w	r6, r2, r6
 800744c:	6813      	ldr	r3, [r2, #0]
 800744e:	fab1 f181 	clz	r1, r1
 8007452:	fab6 f686 	clz	r6, r6
 8007456:	ea4f 1151 	mov.w	r1, r1, lsr #5
 800745a:	ea4f 1656 	mov.w	r6, r6, lsr #5
 800745e:	d018      	beq.n	8007492 <HAL_TIM_OC_Init+0x152>
 8007460:	b9b9      	cbnz	r1, 8007492 <HAL_TIM_OC_Init+0x152>
 8007462:	483b      	ldr	r0, [pc, #236]	; (8007550 <HAL_TIM_OC_Init+0x210>)
 8007464:	4282      	cmp	r2, r0
 8007466:	d014      	beq.n	8007492 <HAL_TIM_OC_Init+0x152>
 8007468:	f500 6080 	add.w	r0, r0, #1024	; 0x400
 800746c:	4282      	cmp	r2, r0
 800746e:	d010      	beq.n	8007492 <HAL_TIM_OC_Init+0x152>
 8007470:	f500 6080 	add.w	r0, r0, #1024	; 0x400
 8007474:	4282      	cmp	r2, r0
 8007476:	d055      	beq.n	8007524 <HAL_TIM_OC_Init+0x1e4>
 8007478:	2e00      	cmp	r6, #0
 800747a:	d153      	bne.n	8007524 <HAL_TIM_OC_Init+0x1e4>
 800747c:	4d38      	ldr	r5, [pc, #224]	; (8007560 <HAL_TIM_OC_Init+0x220>)
 800747e:	4839      	ldr	r0, [pc, #228]	; (8007564 <HAL_TIM_OC_Init+0x224>)
 8007480:	4282      	cmp	r2, r0
 8007482:	bf18      	it	ne
 8007484:	42aa      	cmpne	r2, r5
 8007486:	d008      	beq.n	800749a <HAL_TIM_OC_Init+0x15a>
 8007488:	f500 6080 	add.w	r0, r0, #1024	; 0x400
 800748c:	4282      	cmp	r2, r0
 800748e:	d108      	bne.n	80074a2 <HAL_TIM_OC_Init+0x162>
 8007490:	e003      	b.n	800749a <HAL_TIM_OC_Init+0x15a>
 8007492:	f023 0370 	bic.w	r3, r3, #112	; 0x70
 8007496:	68a0      	ldr	r0, [r4, #8]
 8007498:	4303      	orrs	r3, r0
 800749a:	f423 7340 	bic.w	r3, r3, #768	; 0x300
 800749e:	6920      	ldr	r0, [r4, #16]
 80074a0:	4303      	orrs	r3, r0
 80074a2:	69a0      	ldr	r0, [r4, #24]
 80074a4:	f023 0380 	bic.w	r3, r3, #128	; 0x80
 80074a8:	68e5      	ldr	r5, [r4, #12]
 80074aa:	4303      	orrs	r3, r0
 80074ac:	6860      	ldr	r0, [r4, #4]
 80074ae:	6013      	str	r3, [r2, #0]
 80074b0:	62d5      	str	r5, [r2, #44]	; 0x2c
 80074b2:	6290      	str	r0, [r2, #40]	; 0x28
 80074b4:	b951      	cbnz	r1, 80074cc <HAL_TIM_OC_Init+0x18c>
 80074b6:	b94e      	cbnz	r6, 80074cc <HAL_TIM_OC_Init+0x18c>
 80074b8:	4929      	ldr	r1, [pc, #164]	; (8007560 <HAL_TIM_OC_Init+0x220>)
 80074ba:	4b2a      	ldr	r3, [pc, #168]	; (8007564 <HAL_TIM_OC_Init+0x224>)
 80074bc:	429a      	cmp	r2, r3
 80074be:	bf18      	it	ne
 80074c0:	428a      	cmpne	r2, r1
 80074c2:	d003      	beq.n	80074cc <HAL_TIM_OC_Init+0x18c>
 80074c4:	f503 6380 	add.w	r3, r3, #1024	; 0x400
 80074c8:	429a      	cmp	r2, r3
 80074ca:	d101      	bne.n	80074d0 <HAL_TIM_OC_Init+0x190>
 80074cc:	6963      	ldr	r3, [r4, #20]
 80074ce:	6313      	str	r3, [r2, #48]	; 0x30
 80074d0:	2301      	movs	r3, #1
 80074d2:	2000      	movs	r0, #0
 80074d4:	6153      	str	r3, [r2, #20]
 80074d6:	f884 303d 	strb.w	r3, [r4, #61]	; 0x3d
 80074da:	bd70      	pop	{r4, r5, r6, pc}
 80074dc:	f884 203c 	strb.w	r2, [r4, #60]	; 0x3c
 80074e0:	4620      	mov	r0, r4
 80074e2:	f7f9 fe81 	bl	80011e8 <HAL_TIM_OC_MspInit>
 80074e6:	e7a5      	b.n	8007434 <HAL_TIM_OC_Init+0xf4>
 80074e8:	f44f 7119 	mov.w	r1, #612	; 0x264
 80074ec:	481e      	ldr	r0, [pc, #120]	; (8007568 <HAL_TIM_OC_Init+0x228>)
 80074ee:	f7f9 fcd7 	bl	8000ea0 <assert_failed>
 80074f2:	f894 303d 	ldrb.w	r3, [r4, #61]	; 0x3d
 80074f6:	f003 02ff 	and.w	r2, r3, #255	; 0xff
 80074fa:	2b00      	cmp	r3, #0
 80074fc:	d19a      	bne.n	8007434 <HAL_TIM_OC_Init+0xf4>
 80074fe:	e7ed      	b.n	80074dc <HAL_TIM_OC_Init+0x19c>
 8007500:	2001      	movs	r0, #1
 8007502:	4770      	bx	lr
 8007504:	f240 2163 	movw	r1, #611	; 0x263
 8007508:	4817      	ldr	r0, [pc, #92]	; (8007568 <HAL_TIM_OC_Init+0x228>)
 800750a:	f7f9 fcc9 	bl	8000ea0 <assert_failed>
 800750e:	69a3      	ldr	r3, [r4, #24]
 8007510:	f033 0380 	bics.w	r3, r3, #128	; 0x80
 8007514:	d088      	beq.n	8007428 <HAL_TIM_OC_Init+0xe8>
 8007516:	e7e7      	b.n	80074e8 <HAL_TIM_OC_Init+0x1a8>
 8007518:	f240 2162 	movw	r1, #610	; 0x262
 800751c:	4812      	ldr	r0, [pc, #72]	; (8007568 <HAL_TIM_OC_Init+0x228>)
 800751e:	f7f9 fcbf 	bl	8000ea0 <assert_failed>
 8007522:	e776      	b.n	8007412 <HAL_TIM_OC_Init+0xd2>
 8007524:	480b      	ldr	r0, [pc, #44]	; (8007554 <HAL_TIM_OC_Init+0x214>)
 8007526:	f023 0370 	bic.w	r3, r3, #112	; 0x70
 800752a:	68a5      	ldr	r5, [r4, #8]
 800752c:	4282      	cmp	r2, r0
 800752e:	ea43 0305 	orr.w	r3, r3, r5
 8007532:	d0b2      	beq.n	800749a <HAL_TIM_OC_Init+0x15a>
 8007534:	2e00      	cmp	r6, #0
 8007536:	d1b0      	bne.n	800749a <HAL_TIM_OC_Init+0x15a>
 8007538:	e7a0      	b.n	800747c <HAL_TIM_OC_Init+0x13c>
 800753a:	f240 2161 	movw	r1, #609	; 0x261
 800753e:	480a      	ldr	r0, [pc, #40]	; (8007568 <HAL_TIM_OC_Init+0x228>)
 8007540:	f7f9 fcae 	bl	8000ea0 <assert_failed>
 8007544:	e759      	b.n	80073fa <HAL_TIM_OC_Init+0xba>
 8007546:	bf00      	nop
 8007548:	40010000 	.word	0x40010000
 800754c:	40000800 	.word	0x40000800
 8007550:	40000400 	.word	0x40000400
 8007554:	40000c00 	.word	0x40000c00
 8007558:	40014800 	.word	0x40014800
 800755c:	40010400 	.word	0x40010400
 8007560:	40014000 	.word	0x40014000
 8007564:	40014400 	.word	0x40014400
 8007568:	0800d1bc 	.word	0x0800d1bc

0800756c <HAL_TIM_OC_Start_IT>:
 800756c:	b5f8      	push	{r3, r4, r5, r6, r7, lr}
 800756e:	4ba7      	ldr	r3, [pc, #668]	; (800780c <HAL_TIM_OC_Start_IT+0x2a0>)
 8007570:	4607      	mov	r7, r0
 8007572:	6804      	ldr	r4, [r0, #0]
 8007574:	460d      	mov	r5, r1
 8007576:	429c      	cmp	r4, r3
 8007578:	f000 80b2 	beq.w	80076e0 <HAL_TIM_OC_Start_IT+0x174>
 800757c:	f1b4 4f80 	cmp.w	r4, #1073741824	; 0x40000000
 8007580:	f000 808b 	beq.w	800769a <HAL_TIM_OC_Start_IT+0x12e>
 8007584:	4ba2      	ldr	r3, [pc, #648]	; (8007810 <HAL_TIM_OC_Start_IT+0x2a4>)
 8007586:	429c      	cmp	r4, r3
 8007588:	f000 8096 	beq.w	80076b8 <HAL_TIM_OC_Start_IT+0x14c>
 800758c:	4ba1      	ldr	r3, [pc, #644]	; (8007814 <HAL_TIM_OC_Start_IT+0x2a8>)
 800758e:	429c      	cmp	r4, r3
 8007590:	f000 8092 	beq.w	80076b8 <HAL_TIM_OC_Start_IT+0x14c>
 8007594:	4ba0      	ldr	r3, [pc, #640]	; (8007818 <HAL_TIM_OC_Start_IT+0x2ac>)
 8007596:	429c      	cmp	r4, r3
 8007598:	f000 808e 	beq.w	80076b8 <HAL_TIM_OC_Start_IT+0x14c>
 800759c:	4b9f      	ldr	r3, [pc, #636]	; (800781c <HAL_TIM_OC_Start_IT+0x2b0>)
 800759e:	429c      	cmp	r4, r3
 80075a0:	f000 80a5 	beq.w	80076ee <HAL_TIM_OC_Start_IT+0x182>
 80075a4:	4b9e      	ldr	r3, [pc, #632]	; (8007820 <HAL_TIM_OC_Start_IT+0x2b4>)
 80075a6:	429c      	cmp	r4, r3
 80075a8:	f000 8124 	beq.w	80077f4 <HAL_TIM_OC_Start_IT+0x288>
 80075ac:	4b9d      	ldr	r3, [pc, #628]	; (8007824 <HAL_TIM_OC_Start_IT+0x2b8>)
 80075ae:	429c      	cmp	r4, r3
 80075b0:	f040 8106 	bne.w	80077c0 <HAL_TIM_OC_Start_IT+0x254>
 80075b4:	2d00      	cmp	r5, #0
 80075b6:	f040 8082 	bne.w	80076be <HAL_TIM_OC_Start_IT+0x152>
 80075ba:	2600      	movs	r6, #0
 80075bc:	68e3      	ldr	r3, [r4, #12]
 80075be:	f043 0302 	orr.w	r3, r3, #2
 80075c2:	60e3      	str	r3, [r4, #12]
 80075c4:	4b91      	ldr	r3, [pc, #580]	; (800780c <HAL_TIM_OC_Start_IT+0x2a0>)
 80075c6:	429c      	cmp	r4, r3
 80075c8:	d02e      	beq.n	8007628 <HAL_TIM_OC_Start_IT+0xbc>
 80075ca:	f1b4 4f80 	cmp.w	r4, #1073741824	; 0x40000000
 80075ce:	d02b      	beq.n	8007628 <HAL_TIM_OC_Start_IT+0xbc>
 80075d0:	4b8f      	ldr	r3, [pc, #572]	; (8007810 <HAL_TIM_OC_Start_IT+0x2a4>)
 80075d2:	429c      	cmp	r4, r3
 80075d4:	d028      	beq.n	8007628 <HAL_TIM_OC_Start_IT+0xbc>
 80075d6:	f503 6380 	add.w	r3, r3, #1024	; 0x400
 80075da:	429c      	cmp	r4, r3
 80075dc:	d024      	beq.n	8007628 <HAL_TIM_OC_Start_IT+0xbc>
 80075de:	f503 6380 	add.w	r3, r3, #1024	; 0x400
 80075e2:	429c      	cmp	r4, r3
 80075e4:	d020      	beq.n	8007628 <HAL_TIM_OC_Start_IT+0xbc>
 80075e6:	f503 4378 	add.w	r3, r3, #63488	; 0xf800
 80075ea:	429c      	cmp	r4, r3
 80075ec:	d01c      	beq.n	8007628 <HAL_TIM_OC_Start_IT+0xbc>
 80075ee:	f5a3 436c 	sub.w	r3, r3, #60416	; 0xec00
 80075f2:	429c      	cmp	r4, r3
 80075f4:	d018      	beq.n	8007628 <HAL_TIM_OC_Start_IT+0xbc>
 80075f6:	f503 6380 	add.w	r3, r3, #1024	; 0x400
 80075fa:	429c      	cmp	r4, r3
 80075fc:	d014      	beq.n	8007628 <HAL_TIM_OC_Start_IT+0xbc>
 80075fe:	f503 6380 	add.w	r3, r3, #1024	; 0x400
 8007602:	429c      	cmp	r4, r3
 8007604:	d010      	beq.n	8007628 <HAL_TIM_OC_Start_IT+0xbc>
 8007606:	f503 3390 	add.w	r3, r3, #73728	; 0x12000
 800760a:	429c      	cmp	r4, r3
 800760c:	d00c      	beq.n	8007628 <HAL_TIM_OC_Start_IT+0xbc>
 800760e:	f503 6380 	add.w	r3, r3, #1024	; 0x400
 8007612:	429c      	cmp	r4, r3
 8007614:	d008      	beq.n	8007628 <HAL_TIM_OC_Start_IT+0xbc>
 8007616:	f503 6380 	add.w	r3, r3, #1024	; 0x400
 800761a:	429c      	cmp	r4, r3
 800761c:	d004      	beq.n	8007628 <HAL_TIM_OC_Start_IT+0xbc>
 800761e:	f641 3147 	movw	r1, #6983	; 0x1b47
 8007622:	4881      	ldr	r0, [pc, #516]	; (8007828 <HAL_TIM_OC_Start_IT+0x2bc>)
 8007624:	f7f9 fc3c 	bl	8000ea0 <assert_failed>
 8007628:	2e00      	cmp	r6, #0
 800762a:	f040 8097 	bne.w	800775c <HAL_TIM_OC_Start_IT+0x1f0>
 800762e:	683b      	ldr	r3, [r7, #0]
 8007630:	2201      	movs	r2, #1
 8007632:	f005 051f 	and.w	r5, r5, #31
 8007636:	4879      	ldr	r0, [pc, #484]	; (800781c <HAL_TIM_OC_Start_IT+0x2b0>)
 8007638:	fa02 f505 	lsl.w	r5, r2, r5
 800763c:	4a73      	ldr	r2, [pc, #460]	; (800780c <HAL_TIM_OC_Start_IT+0x2a0>)
 800763e:	6a21      	ldr	r1, [r4, #32]
 8007640:	4283      	cmp	r3, r0
 8007642:	bf18      	it	ne
 8007644:	4293      	cmpne	r3, r2
 8007646:	f500 5070 	add.w	r0, r0, #15360	; 0x3c00
 800764a:	ea21 0105 	bic.w	r1, r1, r5
 800764e:	bf0c      	ite	eq
 8007650:	2201      	moveq	r2, #1
 8007652:	2200      	movne	r2, #0
 8007654:	6221      	str	r1, [r4, #32]
 8007656:	4283      	cmp	r3, r0
 8007658:	bf08      	it	eq
 800765a:	f042 0201 	orreq.w	r2, r2, #1
 800765e:	4973      	ldr	r1, [pc, #460]	; (800782c <HAL_TIM_OC_Start_IT+0x2c0>)
 8007660:	6a20      	ldr	r0, [r4, #32]
 8007662:	428b      	cmp	r3, r1
 8007664:	bf08      	it	eq
 8007666:	f042 0201 	orreq.w	r2, r2, #1
 800766a:	4305      	orrs	r5, r0
 800766c:	6225      	str	r5, [r4, #32]
 800766e:	b912      	cbnz	r2, 8007676 <HAL_TIM_OC_Start_IT+0x10a>
 8007670:	4a6f      	ldr	r2, [pc, #444]	; (8007830 <HAL_TIM_OC_Start_IT+0x2c4>)
 8007672:	4293      	cmp	r3, r2
 8007674:	d103      	bne.n	800767e <HAL_TIM_OC_Start_IT+0x112>
 8007676:	6c5a      	ldr	r2, [r3, #68]	; 0x44
 8007678:	f442 4200 	orr.w	r2, r2, #32768	; 0x8000
 800767c:	645a      	str	r2, [r3, #68]	; 0x44
 800767e:	6899      	ldr	r1, [r3, #8]
 8007680:	4a6c      	ldr	r2, [pc, #432]	; (8007834 <HAL_TIM_OC_Start_IT+0x2c8>)
 8007682:	400a      	ands	r2, r1
 8007684:	2a06      	cmp	r2, #6
 8007686:	d006      	beq.n	8007696 <HAL_TIM_OC_Start_IT+0x12a>
 8007688:	f5b2 3f80 	cmp.w	r2, #65536	; 0x10000
 800768c:	d003      	beq.n	8007696 <HAL_TIM_OC_Start_IT+0x12a>
 800768e:	681a      	ldr	r2, [r3, #0]
 8007690:	f042 0201 	orr.w	r2, r2, #1
 8007694:	601a      	str	r2, [r3, #0]
 8007696:	2000      	movs	r0, #0
 8007698:	bdf8      	pop	{r3, r4, r5, r6, r7, pc}
 800769a:	f031 030c 	bics.w	r3, r1, #12
 800769e:	d10e      	bne.n	80076be <HAL_TIM_OC_Start_IT+0x152>
 80076a0:	2d0c      	cmp	r5, #12
 80076a2:	f200 80ac 	bhi.w	80077fe <HAL_TIM_OC_Start_IT+0x292>
 80076a6:	e8df f005 	tbb	[pc, r5]
 80076aa:	aa9e      	.short	0xaa9e
 80076ac:	aa70aaaa 	.word	0xaa70aaaa
 80076b0:	aa4caaaa 	.word	0xaa4caaaa
 80076b4:	aaaa      	.short	0xaaaa
 80076b6:	69          	.byte	0x69
 80076b7:	00          	.byte	0x00
 80076b8:	f035 030c 	bics.w	r3, r5, #12
 80076bc:	d01d      	beq.n	80076fa <HAL_TIM_OC_Start_IT+0x18e>
 80076be:	f240 3123 	movw	r1, #803	; 0x323
 80076c2:	4859      	ldr	r0, [pc, #356]	; (8007828 <HAL_TIM_OC_Start_IT+0x2bc>)
 80076c4:	f7f9 fbec 	bl	8000ea0 <assert_failed>
 80076c8:	2d0c      	cmp	r5, #12
 80076ca:	f200 809b 	bhi.w	8007804 <HAL_TIM_OC_Start_IT+0x298>
 80076ce:	e8df f005 	tbb	[pc, r5]
 80076d2:	998d      	.short	0x998d
 80076d4:	99629999 	.word	0x99629999
 80076d8:	99379999 	.word	0x99379999
 80076dc:	9999      	.short	0x9999
 80076de:	54          	.byte	0x54
 80076df:	00          	.byte	0x00
 80076e0:	2914      	cmp	r1, #20
 80076e2:	d8ec      	bhi.n	80076be <HAL_TIM_OC_Start_IT+0x152>
 80076e4:	4b54      	ldr	r3, [pc, #336]	; (8007838 <HAL_TIM_OC_Start_IT+0x2cc>)
 80076e6:	40cb      	lsrs	r3, r1
 80076e8:	07da      	lsls	r2, r3, #31
 80076ea:	d4d9      	bmi.n	80076a0 <HAL_TIM_OC_Start_IT+0x134>
 80076ec:	e7e7      	b.n	80076be <HAL_TIM_OC_Start_IT+0x152>
 80076ee:	2914      	cmp	r1, #20
 80076f0:	d8e5      	bhi.n	80076be <HAL_TIM_OC_Start_IT+0x152>
 80076f2:	4b51      	ldr	r3, [pc, #324]	; (8007838 <HAL_TIM_OC_Start_IT+0x2cc>)
 80076f4:	40cb      	lsrs	r3, r1
 80076f6:	07db      	lsls	r3, r3, #31
 80076f8:	d5e1      	bpl.n	80076be <HAL_TIM_OC_Start_IT+0x152>
 80076fa:	f025 0604 	bic.w	r6, r5, #4
 80076fe:	2d0c      	cmp	r5, #12
 8007700:	f63f af66 	bhi.w	80075d0 <HAL_TIM_OC_Start_IT+0x64>
 8007704:	a301      	add	r3, pc, #4	; (adr r3, 800770c <HAL_TIM_OC_Start_IT+0x1a0>)
 8007706:	f853 f025 	ldr.w	pc, [r3, r5, lsl #2]
 800770a:	bf00      	nop
 800770c:	080075bd 	.word	0x080075bd
 8007710:	080075d1 	.word	0x080075d1
 8007714:	080075d1 	.word	0x080075d1
 8007718:	080075d1 	.word	0x080075d1
 800771c:	080077b7 	.word	0x080077b7
 8007720:	080075d1 	.word	0x080075d1
 8007724:	080075d1 	.word	0x080075d1
 8007728:	080075d1 	.word	0x080075d1
 800772c:	08007747 	.word	0x08007747
 8007730:	080075d1 	.word	0x080075d1
 8007734:	080075d1 	.word	0x080075d1
 8007738:	080075d1 	.word	0x080075d1
 800773c:	08007781 	.word	0x08007781
 8007740:	683c      	ldr	r4, [r7, #0]
 8007742:	f025 0604 	bic.w	r6, r5, #4
 8007746:	68e3      	ldr	r3, [r4, #12]
 8007748:	f043 0308 	orr.w	r3, r3, #8
 800774c:	60e3      	str	r3, [r4, #12]
 800774e:	4b2f      	ldr	r3, [pc, #188]	; (800780c <HAL_TIM_OC_Start_IT+0x2a0>)
 8007750:	429c      	cmp	r4, r3
 8007752:	d003      	beq.n	800775c <HAL_TIM_OC_Start_IT+0x1f0>
 8007754:	f1b4 4f80 	cmp.w	r4, #1073741824	; 0x40000000
 8007758:	f47f af3a 	bne.w	80075d0 <HAL_TIM_OC_Start_IT+0x64>
 800775c:	2e08      	cmp	r6, #8
 800775e:	f43f af66 	beq.w	800762e <HAL_TIM_OC_Start_IT+0xc2>
 8007762:	2e10      	cmp	r6, #16
 8007764:	f43f af63 	beq.w	800762e <HAL_TIM_OC_Start_IT+0xc2>
 8007768:	2d3c      	cmp	r5, #60	; 0x3c
 800776a:	f43f af60 	beq.w	800762e <HAL_TIM_OC_Start_IT+0xc2>
 800776e:	f641 3148 	movw	r1, #6984	; 0x1b48
 8007772:	482d      	ldr	r0, [pc, #180]	; (8007828 <HAL_TIM_OC_Start_IT+0x2bc>)
 8007774:	f7f9 fb94 	bl	8000ea0 <assert_failed>
 8007778:	e759      	b.n	800762e <HAL_TIM_OC_Start_IT+0xc2>
 800777a:	683c      	ldr	r4, [r7, #0]
 800777c:	f025 0604 	bic.w	r6, r5, #4
 8007780:	68e3      	ldr	r3, [r4, #12]
 8007782:	f043 0310 	orr.w	r3, r3, #16
 8007786:	60e3      	str	r3, [r4, #12]
 8007788:	e7e1      	b.n	800774e <HAL_TIM_OC_Start_IT+0x1e2>
 800778a:	68e2      	ldr	r2, [r4, #12]
 800778c:	4623      	mov	r3, r4
 800778e:	f042 0204 	orr.w	r2, r2, #4
 8007792:	60e2      	str	r2, [r4, #12]
 8007794:	e74c      	b.n	8007630 <HAL_TIM_OC_Start_IT+0xc4>
 8007796:	683c      	ldr	r4, [r7, #0]
 8007798:	4a1c      	ldr	r2, [pc, #112]	; (800780c <HAL_TIM_OC_Start_IT+0x2a0>)
 800779a:	68e3      	ldr	r3, [r4, #12]
 800779c:	4294      	cmp	r4, r2
 800779e:	f043 0304 	orr.w	r3, r3, #4
 80077a2:	60e3      	str	r3, [r4, #12]
 80077a4:	d005      	beq.n	80077b2 <HAL_TIM_OC_Start_IT+0x246>
 80077a6:	f1b4 4f80 	cmp.w	r4, #1073741824	; 0x40000000
 80077aa:	d002      	beq.n	80077b2 <HAL_TIM_OC_Start_IT+0x246>
 80077ac:	f025 0604 	bic.w	r6, r5, #4
 80077b0:	e70e      	b.n	80075d0 <HAL_TIM_OC_Start_IT+0x64>
 80077b2:	4623      	mov	r3, r4
 80077b4:	e73c      	b.n	8007630 <HAL_TIM_OC_Start_IT+0xc4>
 80077b6:	68e3      	ldr	r3, [r4, #12]
 80077b8:	f043 0304 	orr.w	r3, r3, #4
 80077bc:	60e3      	str	r3, [r4, #12]
 80077be:	e707      	b.n	80075d0 <HAL_TIM_OC_Start_IT+0x64>
 80077c0:	4b1e      	ldr	r3, [pc, #120]	; (800783c <HAL_TIM_OC_Start_IT+0x2d0>)
 80077c2:	429c      	cmp	r4, r3
 80077c4:	f43f aef6 	beq.w	80075b4 <HAL_TIM_OC_Start_IT+0x48>
 80077c8:	4b1d      	ldr	r3, [pc, #116]	; (8007840 <HAL_TIM_OC_Start_IT+0x2d4>)
 80077ca:	429c      	cmp	r4, r3
 80077cc:	d012      	beq.n	80077f4 <HAL_TIM_OC_Start_IT+0x288>
 80077ce:	4b17      	ldr	r3, [pc, #92]	; (800782c <HAL_TIM_OC_Start_IT+0x2c0>)
 80077d0:	429c      	cmp	r4, r3
 80077d2:	f43f aeef 	beq.w	80075b4 <HAL_TIM_OC_Start_IT+0x48>
 80077d6:	4b16      	ldr	r3, [pc, #88]	; (8007830 <HAL_TIM_OC_Start_IT+0x2c4>)
 80077d8:	429c      	cmp	r4, r3
 80077da:	f47f af70 	bne.w	80076be <HAL_TIM_OC_Start_IT+0x152>
 80077de:	461c      	mov	r4, r3
 80077e0:	2900      	cmp	r1, #0
 80077e2:	f47f af6c 	bne.w	80076be <HAL_TIM_OC_Start_IT+0x152>
 80077e6:	f025 0604 	bic.w	r6, r5, #4
 80077ea:	e6e7      	b.n	80075bc <HAL_TIM_OC_Start_IT+0x50>
 80077ec:	683c      	ldr	r4, [r7, #0]
 80077ee:	f025 0604 	bic.w	r6, r5, #4
 80077f2:	e6e3      	b.n	80075bc <HAL_TIM_OC_Start_IT+0x50>
 80077f4:	f035 0604 	bics.w	r6, r5, #4
 80077f8:	f47f af61 	bne.w	80076be <HAL_TIM_OC_Start_IT+0x152>
 80077fc:	e77f      	b.n	80076fe <HAL_TIM_OC_Start_IT+0x192>
 80077fe:	f025 0604 	bic.w	r6, r5, #4
 8007802:	e711      	b.n	8007628 <HAL_TIM_OC_Start_IT+0xbc>
 8007804:	683c      	ldr	r4, [r7, #0]
 8007806:	f025 0604 	bic.w	r6, r5, #4
 800780a:	e6db      	b.n	80075c4 <HAL_TIM_OC_Start_IT+0x58>
 800780c:	40010000 	.word	0x40010000
 8007810:	40000400 	.word	0x40000400
 8007814:	40000800 	.word	0x40000800
 8007818:	40000c00 	.word	0x40000c00
 800781c:	40010400 	.word	0x40010400
 8007820:	40001800 	.word	0x40001800
 8007824:	40001c00 	.word	0x40001c00
 8007828:	0800d1bc 	.word	0x0800d1bc
 800782c:	40014400 	.word	0x40014400
 8007830:	40014800 	.word	0x40014800
 8007834:	00010007 	.word	0x00010007
 8007838:	00111111 	.word	0x00111111
 800783c:	40002000 	.word	0x40002000
 8007840:	40014000 	.word	0x40014000

08007844 <HAL_TIM_OC_DelayElapsedCallback>:
 8007844:	4770      	bx	lr
 8007846:	bf00      	nop

08007848 <HAL_TIM_IC_CaptureCallback>:
 8007848:	4770      	bx	lr
 800784a:	bf00      	nop

0800784c <HAL_TIM_PWM_PulseFinishedCallback>:
 800784c:	4770      	bx	lr
 800784e:	bf00      	nop

08007850 <HAL_TIM_TriggerCallback>:
 8007850:	4770      	bx	lr
 8007852:	bf00      	nop

08007854 <HAL_TIM_IRQHandler>:
 8007854:	6803      	ldr	r3, [r0, #0]
 8007856:	691a      	ldr	r2, [r3, #16]
 8007858:	0791      	lsls	r1, r2, #30
 800785a:	b510      	push	{r4, lr}
 800785c:	4604      	mov	r4, r0
 800785e:	d502      	bpl.n	8007866 <HAL_TIM_IRQHandler+0x12>
 8007860:	68da      	ldr	r2, [r3, #12]
 8007862:	0792      	lsls	r2, r2, #30
 8007864:	d468      	bmi.n	8007938 <HAL_TIM_IRQHandler+0xe4>
 8007866:	691a      	ldr	r2, [r3, #16]
 8007868:	0752      	lsls	r2, r2, #29
 800786a:	d502      	bpl.n	8007872 <HAL_TIM_IRQHandler+0x1e>
 800786c:	68da      	ldr	r2, [r3, #12]
 800786e:	0750      	lsls	r0, r2, #29
 8007870:	d44f      	bmi.n	8007912 <HAL_TIM_IRQHandler+0xbe>
 8007872:	691a      	ldr	r2, [r3, #16]
 8007874:	0711      	lsls	r1, r2, #28
 8007876:	d502      	bpl.n	800787e <HAL_TIM_IRQHandler+0x2a>
 8007878:	68da      	ldr	r2, [r3, #12]
 800787a:	0712      	lsls	r2, r2, #28
 800787c:	d437      	bmi.n	80078ee <HAL_TIM_IRQHandler+0x9a>
 800787e:	691a      	ldr	r2, [r3, #16]
 8007880:	06d0      	lsls	r0, r2, #27
 8007882:	d502      	bpl.n	800788a <HAL_TIM_IRQHandler+0x36>
 8007884:	68da      	ldr	r2, [r3, #12]
 8007886:	06d1      	lsls	r1, r2, #27
 8007888:	d41e      	bmi.n	80078c8 <HAL_TIM_IRQHandler+0x74>
 800788a:	691a      	ldr	r2, [r3, #16]
 800788c:	07d2      	lsls	r2, r2, #31
 800788e:	d502      	bpl.n	8007896 <HAL_TIM_IRQHandler+0x42>
 8007890:	68da      	ldr	r2, [r3, #12]
 8007892:	07d0      	lsls	r0, r2, #31
 8007894:	d469      	bmi.n	800796a <HAL_TIM_IRQHandler+0x116>
 8007896:	691a      	ldr	r2, [r3, #16]
 8007898:	0611      	lsls	r1, r2, #24
 800789a:	d502      	bpl.n	80078a2 <HAL_TIM_IRQHandler+0x4e>
 800789c:	68da      	ldr	r2, [r3, #12]
 800789e:	0612      	lsls	r2, r2, #24
 80078a0:	d46b      	bmi.n	800797a <HAL_TIM_IRQHandler+0x126>
 80078a2:	691a      	ldr	r2, [r3, #16]
 80078a4:	05d0      	lsls	r0, r2, #23
 80078a6:	d502      	bpl.n	80078ae <HAL_TIM_IRQHandler+0x5a>
 80078a8:	68da      	ldr	r2, [r3, #12]
 80078aa:	0611      	lsls	r1, r2, #24
 80078ac:	d46d      	bmi.n	800798a <HAL_TIM_IRQHandler+0x136>
 80078ae:	691a      	ldr	r2, [r3, #16]
 80078b0:	0652      	lsls	r2, r2, #25
 80078b2:	d502      	bpl.n	80078ba <HAL_TIM_IRQHandler+0x66>
 80078b4:	68da      	ldr	r2, [r3, #12]
 80078b6:	0650      	lsls	r0, r2, #25
 80078b8:	d46f      	bmi.n	800799a <HAL_TIM_IRQHandler+0x146>
 80078ba:	691a      	ldr	r2, [r3, #16]
 80078bc:	0691      	lsls	r1, r2, #26
 80078be:	d502      	bpl.n	80078c6 <HAL_TIM_IRQHandler+0x72>
 80078c0:	68da      	ldr	r2, [r3, #12]
 80078c2:	0692      	lsls	r2, r2, #26
 80078c4:	d449      	bmi.n	800795a <HAL_TIM_IRQHandler+0x106>
 80078c6:	bd10      	pop	{r4, pc}
 80078c8:	f06f 0110 	mvn.w	r1, #16
 80078cc:	2208      	movs	r2, #8
 80078ce:	4620      	mov	r0, r4
 80078d0:	6119      	str	r1, [r3, #16]
 80078d2:	69db      	ldr	r3, [r3, #28]
 80078d4:	7722      	strb	r2, [r4, #28]
 80078d6:	f413 7f40 	tst.w	r3, #768	; 0x300
 80078da:	d16f      	bne.n	80079bc <HAL_TIM_IRQHandler+0x168>
 80078dc:	f7ff ffb2 	bl	8007844 <HAL_TIM_OC_DelayElapsedCallback>
 80078e0:	4620      	mov	r0, r4
 80078e2:	f7ff ffb3 	bl	800784c <HAL_TIM_PWM_PulseFinishedCallback>
 80078e6:	2200      	movs	r2, #0
 80078e8:	6823      	ldr	r3, [r4, #0]
 80078ea:	7722      	strb	r2, [r4, #28]
 80078ec:	e7cd      	b.n	800788a <HAL_TIM_IRQHandler+0x36>
 80078ee:	f06f 0108 	mvn.w	r1, #8
 80078f2:	2204      	movs	r2, #4
 80078f4:	4620      	mov	r0, r4
 80078f6:	6119      	str	r1, [r3, #16]
 80078f8:	69db      	ldr	r3, [r3, #28]
 80078fa:	7722      	strb	r2, [r4, #28]
 80078fc:	079b      	lsls	r3, r3, #30
 80078fe:	d15a      	bne.n	80079b6 <HAL_TIM_IRQHandler+0x162>
 8007900:	f7ff ffa0 	bl	8007844 <HAL_TIM_OC_DelayElapsedCallback>
 8007904:	4620      	mov	r0, r4
 8007906:	f7ff ffa1 	bl	800784c <HAL_TIM_PWM_PulseFinishedCallback>
 800790a:	2200      	movs	r2, #0
 800790c:	6823      	ldr	r3, [r4, #0]
 800790e:	7722      	strb	r2, [r4, #28]
 8007910:	e7b5      	b.n	800787e <HAL_TIM_IRQHandler+0x2a>
 8007912:	f06f 0104 	mvn.w	r1, #4
 8007916:	2202      	movs	r2, #2
 8007918:	4620      	mov	r0, r4
 800791a:	6119      	str	r1, [r3, #16]
 800791c:	699b      	ldr	r3, [r3, #24]
 800791e:	7722      	strb	r2, [r4, #28]
 8007920:	f413 7f40 	tst.w	r3, #768	; 0x300
 8007924:	d144      	bne.n	80079b0 <HAL_TIM_IRQHandler+0x15c>
 8007926:	f7ff ff8d 	bl	8007844 <HAL_TIM_OC_DelayElapsedCallback>
 800792a:	4620      	mov	r0, r4
 800792c:	f7ff ff8e 	bl	800784c <HAL_TIM_PWM_PulseFinishedCallback>
 8007930:	2200      	movs	r2, #0
 8007932:	6823      	ldr	r3, [r4, #0]
 8007934:	7722      	strb	r2, [r4, #28]
 8007936:	e79c      	b.n	8007872 <HAL_TIM_IRQHandler+0x1e>
 8007938:	f06f 0102 	mvn.w	r1, #2
 800793c:	2201      	movs	r2, #1
 800793e:	6119      	str	r1, [r3, #16]
 8007940:	699b      	ldr	r3, [r3, #24]
 8007942:	7702      	strb	r2, [r0, #28]
 8007944:	0799      	lsls	r1, r3, #30
 8007946:	d130      	bne.n	80079aa <HAL_TIM_IRQHandler+0x156>
 8007948:	f7ff ff7c 	bl	8007844 <HAL_TIM_OC_DelayElapsedCallback>
 800794c:	4620      	mov	r0, r4
 800794e:	f7ff ff7d 	bl	800784c <HAL_TIM_PWM_PulseFinishedCallback>
 8007952:	2200      	movs	r2, #0
 8007954:	6823      	ldr	r3, [r4, #0]
 8007956:	7722      	strb	r2, [r4, #28]
 8007958:	e785      	b.n	8007866 <HAL_TIM_IRQHandler+0x12>
 800795a:	f06f 0220 	mvn.w	r2, #32
 800795e:	4620      	mov	r0, r4
 8007960:	611a      	str	r2, [r3, #16]
 8007962:	e8bd 4010 	ldmia.w	sp!, {r4, lr}
 8007966:	f000 bc5f 	b.w	8008228 <HAL_TIMEx_CommutCallback>
 800796a:	f06f 0201 	mvn.w	r2, #1
 800796e:	4620      	mov	r0, r4
 8007970:	611a      	str	r2, [r3, #16]
 8007972:	f002 fd3f 	bl	800a3f4 <HAL_TIM_PeriodElapsedCallback>
 8007976:	6823      	ldr	r3, [r4, #0]
 8007978:	e78d      	b.n	8007896 <HAL_TIM_IRQHandler+0x42>
 800797a:	f06f 0280 	mvn.w	r2, #128	; 0x80
 800797e:	4620      	mov	r0, r4
 8007980:	611a      	str	r2, [r3, #16]
 8007982:	f000 fc53 	bl	800822c <HAL_TIMEx_BreakCallback>
 8007986:	6823      	ldr	r3, [r4, #0]
 8007988:	e78b      	b.n	80078a2 <HAL_TIM_IRQHandler+0x4e>
 800798a:	f46f 7280 	mvn.w	r2, #256	; 0x100
 800798e:	4620      	mov	r0, r4
 8007990:	611a      	str	r2, [r3, #16]
 8007992:	f000 fc4d 	bl	8008230 <HAL_TIMEx_Break2Callback>
 8007996:	6823      	ldr	r3, [r4, #0]
 8007998:	e789      	b.n	80078ae <HAL_TIM_IRQHandler+0x5a>
 800799a:	f06f 0240 	mvn.w	r2, #64	; 0x40
 800799e:	4620      	mov	r0, r4
 80079a0:	611a      	str	r2, [r3, #16]
 80079a2:	f7ff ff55 	bl	8007850 <HAL_TIM_TriggerCallback>
 80079a6:	6823      	ldr	r3, [r4, #0]
 80079a8:	e787      	b.n	80078ba <HAL_TIM_IRQHandler+0x66>
 80079aa:	f7ff ff4d 	bl	8007848 <HAL_TIM_IC_CaptureCallback>
 80079ae:	e7d0      	b.n	8007952 <HAL_TIM_IRQHandler+0xfe>
 80079b0:	f7ff ff4a 	bl	8007848 <HAL_TIM_IC_CaptureCallback>
 80079b4:	e7bc      	b.n	8007930 <HAL_TIM_IRQHandler+0xdc>
 80079b6:	f7ff ff47 	bl	8007848 <HAL_TIM_IC_CaptureCallback>
 80079ba:	e7a6      	b.n	800790a <HAL_TIM_IRQHandler+0xb6>
 80079bc:	f7ff ff44 	bl	8007848 <HAL_TIM_IC_CaptureCallback>
 80079c0:	e791      	b.n	80078e6 <HAL_TIM_IRQHandler+0x92>
 80079c2:	bf00      	nop

080079c4 <TIM_OC2_SetConfig>:
 80079c4:	6a02      	ldr	r2, [r0, #32]
 80079c6:	4b33      	ldr	r3, [pc, #204]	; (8007a94 <TIM_OC2_SetConfig+0xd0>)
 80079c8:	f022 0210 	bic.w	r2, r2, #16
 80079cc:	e92d 41f0 	stmdb	sp!, {r4, r5, r6, r7, r8, lr}
 80079d0:	4604      	mov	r4, r0
 80079d2:	460e      	mov	r6, r1
 80079d4:	6888      	ldr	r0, [r1, #8]
 80079d6:	6809      	ldr	r1, [r1, #0]
 80079d8:	6222      	str	r2, [r4, #32]
 80079da:	6a25      	ldr	r5, [r4, #32]
 80079dc:	6867      	ldr	r7, [r4, #4]
 80079de:	69a2      	ldr	r2, [r4, #24]
 80079e0:	f025 0520 	bic.w	r5, r5, #32
 80079e4:	4013      	ands	r3, r2
 80079e6:	4a2c      	ldr	r2, [pc, #176]	; (8007a98 <TIM_OC2_SetConfig+0xd4>)
 80079e8:	ea45 1500 	orr.w	r5, r5, r0, lsl #4
 80079ec:	4294      	cmp	r4, r2
 80079ee:	ea43 2801 	orr.w	r8, r3, r1, lsl #8
 80079f2:	d023      	beq.n	8007a3c <TIM_OC2_SetConfig+0x78>
 80079f4:	4b29      	ldr	r3, [pc, #164]	; (8007a9c <TIM_OC2_SetConfig+0xd8>)
 80079f6:	429c      	cmp	r4, r3
 80079f8:	d020      	beq.n	8007a3c <TIM_OC2_SetConfig+0x78>
 80079fa:	4a29      	ldr	r2, [pc, #164]	; (8007aa0 <TIM_OC2_SetConfig+0xdc>)
 80079fc:	4b29      	ldr	r3, [pc, #164]	; (8007aa4 <TIM_OC2_SetConfig+0xe0>)
 80079fe:	429c      	cmp	r4, r3
 8007a00:	bf18      	it	ne
 8007a02:	4294      	cmpne	r4, r2
 8007a04:	d003      	beq.n	8007a0e <TIM_OC2_SetConfig+0x4a>
 8007a06:	f503 6380 	add.w	r3, r3, #1024	; 0x400
 8007a0a:	429c      	cmp	r4, r3
 8007a0c:	d10e      	bne.n	8007a2c <TIM_OC2_SetConfig+0x68>
 8007a0e:	69b3      	ldr	r3, [r6, #24]
 8007a10:	f433 7300 	bics.w	r3, r3, #512	; 0x200
 8007a14:	d120      	bne.n	8007a58 <TIM_OC2_SetConfig+0x94>
 8007a16:	6971      	ldr	r1, [r6, #20]
 8007a18:	f431 7380 	bics.w	r3, r1, #256	; 0x100
 8007a1c:	d125      	bne.n	8007a6a <TIM_OC2_SetConfig+0xa6>
 8007a1e:	f427 6240 	bic.w	r2, r7, #3072	; 0xc00
 8007a22:	69b3      	ldr	r3, [r6, #24]
 8007a24:	ea42 0283 	orr.w	r2, r2, r3, lsl #2
 8007a28:	ea42 0781 	orr.w	r7, r2, r1, lsl #2
 8007a2c:	6871      	ldr	r1, [r6, #4]
 8007a2e:	6067      	str	r7, [r4, #4]
 8007a30:	f8c4 8018 	str.w	r8, [r4, #24]
 8007a34:	63a1      	str	r1, [r4, #56]	; 0x38
 8007a36:	6225      	str	r5, [r4, #32]
 8007a38:	e8bd 81f0 	ldmia.w	sp!, {r4, r5, r6, r7, r8, pc}
 8007a3c:	68f3      	ldr	r3, [r6, #12]
 8007a3e:	f033 0208 	bics.w	r2, r3, #8
 8007a42:	d119      	bne.n	8007a78 <TIM_OC2_SetConfig+0xb4>
 8007a44:	f025 0580 	bic.w	r5, r5, #128	; 0x80
 8007a48:	ea45 1503 	orr.w	r5, r5, r3, lsl #4
 8007a4c:	f025 0540 	bic.w	r5, r5, #64	; 0x40
 8007a50:	69b3      	ldr	r3, [r6, #24]
 8007a52:	f433 7300 	bics.w	r3, r3, #512	; 0x200
 8007a56:	d0de      	beq.n	8007a16 <TIM_OC2_SetConfig+0x52>
 8007a58:	f641 015f 	movw	r1, #6239	; 0x185f
 8007a5c:	4812      	ldr	r0, [pc, #72]	; (8007aa8 <TIM_OC2_SetConfig+0xe4>)
 8007a5e:	f7f9 fa1f 	bl	8000ea0 <assert_failed>
 8007a62:	6971      	ldr	r1, [r6, #20]
 8007a64:	f431 7380 	bics.w	r3, r1, #256	; 0x100
 8007a68:	d0d9      	beq.n	8007a1e <TIM_OC2_SetConfig+0x5a>
 8007a6a:	f44f 51c3 	mov.w	r1, #6240	; 0x1860
 8007a6e:	480e      	ldr	r0, [pc, #56]	; (8007aa8 <TIM_OC2_SetConfig+0xe4>)
 8007a70:	f7f9 fa16 	bl	8000ea0 <assert_failed>
 8007a74:	6971      	ldr	r1, [r6, #20]
 8007a76:	e7d2      	b.n	8007a1e <TIM_OC2_SetConfig+0x5a>
 8007a78:	f641 0151 	movw	r1, #6225	; 0x1851
 8007a7c:	480a      	ldr	r0, [pc, #40]	; (8007aa8 <TIM_OC2_SetConfig+0xe4>)
 8007a7e:	f7f9 fa0f 	bl	8000ea0 <assert_failed>
 8007a82:	f025 0580 	bic.w	r5, r5, #128	; 0x80
 8007a86:	68f3      	ldr	r3, [r6, #12]
 8007a88:	ea45 1503 	orr.w	r5, r5, r3, lsl #4
 8007a8c:	f025 0540 	bic.w	r5, r5, #64	; 0x40
 8007a90:	e7de      	b.n	8007a50 <TIM_OC2_SetConfig+0x8c>
 8007a92:	bf00      	nop
 8007a94:	feff8cff 	.word	0xfeff8cff
 8007a98:	40010000 	.word	0x40010000
 8007a9c:	40010400 	.word	0x40010400
 8007aa0:	40014000 	.word	0x40014000
 8007aa4:	40014400 	.word	0x40014400
 8007aa8:	0800d1bc 	.word	0x0800d1bc

08007aac <HAL_TIM_OC_ConfigChannel>:
 8007aac:	2a14      	cmp	r2, #20
 8007aae:	e92d 43f8 	stmdb	sp!, {r3, r4, r5, r6, r7, r8, r9, lr}
 8007ab2:	4615      	mov	r5, r2
 8007ab4:	4604      	mov	r4, r0
 8007ab6:	460e      	mov	r6, r1
 8007ab8:	f240 8090 	bls.w	8007bdc <HAL_TIM_OC_ConfigChannel+0x130>
 8007abc:	2a3c      	cmp	r2, #60	; 0x3c
 8007abe:	f040 8092 	bne.w	8007be6 <HAL_TIM_OC_ConfigChannel+0x13a>
 8007ac2:	6833      	ldr	r3, [r6, #0]
 8007ac4:	f023 0210 	bic.w	r2, r3, #16
 8007ac8:	f023 0330 	bic.w	r3, r3, #48	; 0x30
 8007acc:	2a40      	cmp	r2, #64	; 0x40
 8007ace:	bf18      	it	ne
 8007ad0:	2b00      	cmpne	r3, #0
 8007ad2:	d003      	beq.n	8007adc <HAL_TIM_OC_ConfigChannel+0x30>
 8007ad4:	f5b2 3f80 	cmp.w	r2, #65536	; 0x10000
 8007ad8:	f040 81d3 	bne.w	8007e82 <HAL_TIM_OC_ConfigChannel+0x3d6>
 8007adc:	68b3      	ldr	r3, [r6, #8]
 8007ade:	f033 0302 	bics.w	r3, r3, #2
 8007ae2:	f040 8086 	bne.w	8007bf2 <HAL_TIM_OC_ConfigChannel+0x146>
 8007ae6:	f894 303c 	ldrb.w	r3, [r4, #60]	; 0x3c
 8007aea:	2b01      	cmp	r3, #1
 8007aec:	f000 808b 	beq.w	8007c06 <HAL_TIM_OC_ConfigChannel+0x15a>
 8007af0:	2201      	movs	r2, #1
 8007af2:	2302      	movs	r3, #2
 8007af4:	f884 203c 	strb.w	r2, [r4, #60]	; 0x3c
 8007af8:	f884 303d 	strb.w	r3, [r4, #61]	; 0x3d
 8007afc:	2d14      	cmp	r5, #20
 8007afe:	d864      	bhi.n	8007bca <HAL_TIM_OC_ConfigChannel+0x11e>
 8007b00:	e8df f015 	tbh	[pc, r5, lsl #1]
 8007b04:	00630015 	.word	0x00630015
 8007b08:	00630063 	.word	0x00630063
 8007b0c:	00630084 	.word	0x00630084
 8007b10:	00630063 	.word	0x00630063
 8007b14:	006300b7 	.word	0x006300b7
 8007b18:	00630063 	.word	0x00630063
 8007b1c:	006300dc 	.word	0x006300dc
 8007b20:	00630063 	.word	0x00630063
 8007b24:	00630132 	.word	0x00630132
 8007b28:	00630063 	.word	0x00630063
 8007b2c:	017a      	.short	0x017a
 8007b2e:	6820      	ldr	r0, [r4, #0]
 8007b30:	4ba9      	ldr	r3, [pc, #676]	; (8007dd8 <HAL_TIM_OC_ConfigChannel+0x32c>)
 8007b32:	4aaa      	ldr	r2, [pc, #680]	; (8007ddc <HAL_TIM_OC_ConfigChannel+0x330>)
 8007b34:	4298      	cmp	r0, r3
 8007b36:	bf18      	it	ne
 8007b38:	f1b0 4f80 	cmpne.w	r0, #1073741824	; 0x40000000
 8007b3c:	49a8      	ldr	r1, [pc, #672]	; (8007de0 <HAL_TIM_OC_ConfigChannel+0x334>)
 8007b3e:	bf14      	ite	ne
 8007b40:	2301      	movne	r3, #1
 8007b42:	2300      	moveq	r3, #0
 8007b44:	4290      	cmp	r0, r2
 8007b46:	bf0c      	ite	eq
 8007b48:	2300      	moveq	r3, #0
 8007b4a:	f003 0301 	andne.w	r3, r3, #1
 8007b4e:	f502 6200 	add.w	r2, r2, #2048	; 0x800
 8007b52:	4288      	cmp	r0, r1
 8007b54:	bf0c      	ite	eq
 8007b56:	2300      	moveq	r3, #0
 8007b58:	f003 0301 	andne.w	r3, r3, #1
 8007b5c:	f501 417c 	add.w	r1, r1, #64512	; 0xfc00
 8007b60:	4290      	cmp	r0, r2
 8007b62:	bf0c      	ite	eq
 8007b64:	2300      	moveq	r3, #0
 8007b66:	f003 0301 	andne.w	r3, r3, #1
 8007b6a:	f502 6240 	add.w	r2, r2, #3072	; 0xc00
 8007b6e:	4288      	cmp	r0, r1
 8007b70:	bf0c      	ite	eq
 8007b72:	2300      	moveq	r3, #0
 8007b74:	f003 0301 	andne.w	r3, r3, #1
 8007b78:	f5a1 4168 	sub.w	r1, r1, #59392	; 0xe800
 8007b7c:	4290      	cmp	r0, r2
 8007b7e:	bf0c      	ite	eq
 8007b80:	2300      	moveq	r3, #0
 8007b82:	f003 0301 	andne.w	r3, r3, #1
 8007b86:	f502 6200 	add.w	r2, r2, #2048	; 0x800
 8007b8a:	4288      	cmp	r0, r1
 8007b8c:	bf0c      	ite	eq
 8007b8e:	2300      	moveq	r3, #0
 8007b90:	f003 0301 	andne.w	r3, r3, #1
 8007b94:	f501 3192 	add.w	r1, r1, #74752	; 0x12400
 8007b98:	4290      	cmp	r0, r2
 8007b9a:	bf0c      	ite	eq
 8007b9c:	2300      	moveq	r3, #0
 8007b9e:	f003 0301 	andne.w	r3, r3, #1
 8007ba2:	f502 3292 	add.w	r2, r2, #74752	; 0x12400
 8007ba6:	4288      	cmp	r0, r1
 8007ba8:	bf0c      	ite	eq
 8007baa:	2300      	moveq	r3, #0
 8007bac:	f003 0301 	andne.w	r3, r3, #1
 8007bb0:	4290      	cmp	r0, r2
 8007bb2:	bf0c      	ite	eq
 8007bb4:	2300      	moveq	r3, #0
 8007bb6:	f003 0301 	andne.w	r3, r3, #1
 8007bba:	b11b      	cbz	r3, 8007bc4 <HAL_TIM_OC_ConfigChannel+0x118>
 8007bbc:	4b89      	ldr	r3, [pc, #548]	; (8007de4 <HAL_TIM_OC_ConfigChannel+0x338>)
 8007bbe:	4298      	cmp	r0, r3
 8007bc0:	f040 8181 	bne.w	8007ec6 <HAL_TIM_OC_ConfigChannel+0x41a>
 8007bc4:	4631      	mov	r1, r6
 8007bc6:	f7ff f8a9 	bl	8006d1c <TIM_OC1_SetConfig>
 8007bca:	2300      	movs	r3, #0
 8007bcc:	2201      	movs	r2, #1
 8007bce:	4618      	mov	r0, r3
 8007bd0:	f884 203d 	strb.w	r2, [r4, #61]	; 0x3d
 8007bd4:	f884 303c 	strb.w	r3, [r4, #60]	; 0x3c
 8007bd8:	e8bd 83f8 	ldmia.w	sp!, {r3, r4, r5, r6, r7, r8, r9, pc}
 8007bdc:	4b82      	ldr	r3, [pc, #520]	; (8007de8 <HAL_TIM_OC_ConfigChannel+0x33c>)
 8007bde:	40d3      	lsrs	r3, r2
 8007be0:	07db      	lsls	r3, r3, #31
 8007be2:	f53f af6e 	bmi.w	8007ac2 <HAL_TIM_OC_ConfigChannel+0x16>
 8007be6:	f640 5155 	movw	r1, #3413	; 0xd55
 8007bea:	4880      	ldr	r0, [pc, #512]	; (8007dec <HAL_TIM_OC_ConfigChannel+0x340>)
 8007bec:	f7f9 f958 	bl	8000ea0 <assert_failed>
 8007bf0:	e767      	b.n	8007ac2 <HAL_TIM_OC_ConfigChannel+0x16>
 8007bf2:	f640 5157 	movw	r1, #3415	; 0xd57
 8007bf6:	487d      	ldr	r0, [pc, #500]	; (8007dec <HAL_TIM_OC_ConfigChannel+0x340>)
 8007bf8:	f7f9 f952 	bl	8000ea0 <assert_failed>
 8007bfc:	f894 303c 	ldrb.w	r3, [r4, #60]	; 0x3c
 8007c00:	2b01      	cmp	r3, #1
 8007c02:	f47f af75 	bne.w	8007af0 <HAL_TIM_OC_ConfigChannel+0x44>
 8007c06:	2002      	movs	r0, #2
 8007c08:	e8bd 83f8 	ldmia.w	sp!, {r3, r4, r5, r6, r7, r8, r9, pc}
 8007c0c:	6820      	ldr	r0, [r4, #0]
 8007c0e:	4b72      	ldr	r3, [pc, #456]	; (8007dd8 <HAL_TIM_OC_ConfigChannel+0x32c>)
 8007c10:	4a72      	ldr	r2, [pc, #456]	; (8007ddc <HAL_TIM_OC_ConfigChannel+0x330>)
 8007c12:	4298      	cmp	r0, r3
 8007c14:	bf18      	it	ne
 8007c16:	f1b0 4f80 	cmpne.w	r0, #1073741824	; 0x40000000
 8007c1a:	4971      	ldr	r1, [pc, #452]	; (8007de0 <HAL_TIM_OC_ConfigChannel+0x334>)
 8007c1c:	bf14      	ite	ne
 8007c1e:	2301      	movne	r3, #1
 8007c20:	2300      	moveq	r3, #0
 8007c22:	4290      	cmp	r0, r2
 8007c24:	bf0c      	ite	eq
 8007c26:	2300      	moveq	r3, #0
 8007c28:	f003 0301 	andne.w	r3, r3, #1
 8007c2c:	f502 6200 	add.w	r2, r2, #2048	; 0x800
 8007c30:	4288      	cmp	r0, r1
 8007c32:	bf0c      	ite	eq
 8007c34:	2300      	moveq	r3, #0
 8007c36:	f003 0301 	andne.w	r3, r3, #1
 8007c3a:	f501 417c 	add.w	r1, r1, #64512	; 0xfc00
 8007c3e:	4290      	cmp	r0, r2
 8007c40:	bf0c      	ite	eq
 8007c42:	2300      	moveq	r3, #0
 8007c44:	f003 0301 	andne.w	r3, r3, #1
 8007c48:	f502 6240 	add.w	r2, r2, #3072	; 0xc00
 8007c4c:	4288      	cmp	r0, r1
 8007c4e:	bf0c      	ite	eq
 8007c50:	2300      	moveq	r3, #0
 8007c52:	f003 0301 	andne.w	r3, r3, #1
 8007c56:	4290      	cmp	r0, r2
 8007c58:	bf0c      	ite	eq
 8007c5a:	2300      	moveq	r3, #0
 8007c5c:	f003 0301 	andne.w	r3, r3, #1
 8007c60:	b11b      	cbz	r3, 8007c6a <HAL_TIM_OC_ConfigChannel+0x1be>
 8007c62:	4b63      	ldr	r3, [pc, #396]	; (8007df0 <HAL_TIM_OC_ConfigChannel+0x344>)
 8007c64:	4298      	cmp	r0, r3
 8007c66:	f040 8127 	bne.w	8007eb8 <HAL_TIM_OC_ConfigChannel+0x40c>
 8007c6a:	4631      	mov	r1, r6
 8007c6c:	f7ff feaa 	bl	80079c4 <TIM_OC2_SetConfig>
 8007c70:	e7ab      	b.n	8007bca <HAL_TIM_OC_ConfigChannel+0x11e>
 8007c72:	6820      	ldr	r0, [r4, #0]
 8007c74:	4b58      	ldr	r3, [pc, #352]	; (8007dd8 <HAL_TIM_OC_ConfigChannel+0x32c>)
 8007c76:	4a59      	ldr	r2, [pc, #356]	; (8007ddc <HAL_TIM_OC_ConfigChannel+0x330>)
 8007c78:	4298      	cmp	r0, r3
 8007c7a:	bf18      	it	ne
 8007c7c:	f1b0 4f80 	cmpne.w	r0, #1073741824	; 0x40000000
 8007c80:	4957      	ldr	r1, [pc, #348]	; (8007de0 <HAL_TIM_OC_ConfigChannel+0x334>)
 8007c82:	bf14      	ite	ne
 8007c84:	2301      	movne	r3, #1
 8007c86:	2300      	moveq	r3, #0
 8007c88:	4290      	cmp	r0, r2
 8007c8a:	bf0c      	ite	eq
 8007c8c:	2300      	moveq	r3, #0
 8007c8e:	f003 0301 	andne.w	r3, r3, #1
 8007c92:	f502 6200 	add.w	r2, r2, #2048	; 0x800
 8007c96:	4288      	cmp	r0, r1
 8007c98:	bf0c      	ite	eq
 8007c9a:	2300      	moveq	r3, #0
 8007c9c:	f003 0301 	andne.w	r3, r3, #1
 8007ca0:	4290      	cmp	r0, r2
 8007ca2:	bf0c      	ite	eq
 8007ca4:	2300      	moveq	r3, #0
 8007ca6:	f003 0301 	andne.w	r3, r3, #1
 8007caa:	b11b      	cbz	r3, 8007cb4 <HAL_TIM_OC_ConfigChannel+0x208>
 8007cac:	4b51      	ldr	r3, [pc, #324]	; (8007df4 <HAL_TIM_OC_ConfigChannel+0x348>)
 8007cae:	4298      	cmp	r0, r3
 8007cb0:	f040 80fb 	bne.w	8007eaa <HAL_TIM_OC_ConfigChannel+0x3fe>
 8007cb4:	4631      	mov	r1, r6
 8007cb6:	f7ff f8b9 	bl	8006e2c <TIM_OC3_SetConfig>
 8007cba:	e786      	b.n	8007bca <HAL_TIM_OC_ConfigChannel+0x11e>
 8007cbc:	6825      	ldr	r5, [r4, #0]
 8007cbe:	4b46      	ldr	r3, [pc, #280]	; (8007dd8 <HAL_TIM_OC_ConfigChannel+0x32c>)
 8007cc0:	4a46      	ldr	r2, [pc, #280]	; (8007ddc <HAL_TIM_OC_ConfigChannel+0x330>)
 8007cc2:	429d      	cmp	r5, r3
 8007cc4:	bf18      	it	ne
 8007cc6:	f1b5 4f80 	cmpne.w	r5, #1073741824	; 0x40000000
 8007cca:	4945      	ldr	r1, [pc, #276]	; (8007de0 <HAL_TIM_OC_ConfigChannel+0x334>)
 8007ccc:	bf14      	ite	ne
 8007cce:	2301      	movne	r3, #1
 8007cd0:	2300      	moveq	r3, #0
 8007cd2:	4295      	cmp	r5, r2
 8007cd4:	bf0c      	ite	eq
 8007cd6:	2300      	moveq	r3, #0
 8007cd8:	f003 0301 	andne.w	r3, r3, #1
 8007cdc:	f502 6200 	add.w	r2, r2, #2048	; 0x800
 8007ce0:	428d      	cmp	r5, r1
 8007ce2:	bf0c      	ite	eq
 8007ce4:	2300      	moveq	r3, #0
 8007ce6:	f003 0301 	andne.w	r3, r3, #1
 8007cea:	4295      	cmp	r5, r2
 8007cec:	bf0c      	ite	eq
 8007cee:	2300      	moveq	r3, #0
 8007cf0:	f003 0301 	andne.w	r3, r3, #1
 8007cf4:	b11b      	cbz	r3, 8007cfe <HAL_TIM_OC_ConfigChannel+0x252>
 8007cf6:	4b3f      	ldr	r3, [pc, #252]	; (8007df4 <HAL_TIM_OC_ConfigChannel+0x348>)
 8007cf8:	429d      	cmp	r5, r3
 8007cfa:	f040 80cf 	bne.w	8007e9c <HAL_TIM_OC_ConfigChannel+0x3f0>
 8007cfe:	6a2b      	ldr	r3, [r5, #32]
 8007d00:	68b0      	ldr	r0, [r6, #8]
 8007d02:	f423 5380 	bic.w	r3, r3, #4096	; 0x1000
 8007d06:	6831      	ldr	r1, [r6, #0]
 8007d08:	4a33      	ldr	r2, [pc, #204]	; (8007dd8 <HAL_TIM_OC_ConfigChannel+0x32c>)
 8007d0a:	622b      	str	r3, [r5, #32]
 8007d0c:	6a2f      	ldr	r7, [r5, #32]
 8007d0e:	4295      	cmp	r5, r2
 8007d10:	f8d5 9004 	ldr.w	r9, [r5, #4]
 8007d14:	69eb      	ldr	r3, [r5, #28]
 8007d16:	f427 5700 	bic.w	r7, r7, #8192	; 0x2000
 8007d1a:	f423 48e6 	bic.w	r8, r3, #29440	; 0x7300
 8007d1e:	ea47 3700 	orr.w	r7, r7, r0, lsl #12
 8007d22:	ea48 2801 	orr.w	r8, r8, r1, lsl #8
 8007d26:	d00e      	beq.n	8007d46 <HAL_TIM_OC_ConfigChannel+0x29a>
 8007d28:	4b32      	ldr	r3, [pc, #200]	; (8007df4 <HAL_TIM_OC_ConfigChannel+0x348>)
 8007d2a:	429d      	cmp	r5, r3
 8007d2c:	d00b      	beq.n	8007d46 <HAL_TIM_OC_ConfigChannel+0x29a>
 8007d2e:	f502 4280 	add.w	r2, r2, #16384	; 0x4000
 8007d32:	f503 4380 	add.w	r3, r3, #16384	; 0x4000
 8007d36:	429d      	cmp	r5, r3
 8007d38:	bf18      	it	ne
 8007d3a:	4295      	cmpne	r5, r2
 8007d3c:	d003      	beq.n	8007d46 <HAL_TIM_OC_ConfigChannel+0x29a>
 8007d3e:	f503 6380 	add.w	r3, r3, #1024	; 0x400
 8007d42:	429d      	cmp	r5, r3
 8007d44:	d108      	bne.n	8007d58 <HAL_TIM_OC_ConfigChannel+0x2ac>
 8007d46:	6973      	ldr	r3, [r6, #20]
 8007d48:	f433 7280 	bics.w	r2, r3, #256	; 0x100
 8007d4c:	f040 809f 	bne.w	8007e8e <HAL_TIM_OC_ConfigChannel+0x3e2>
 8007d50:	f429 4980 	bic.w	r9, r9, #16384	; 0x4000
 8007d54:	ea49 1983 	orr.w	r9, r9, r3, lsl #6
 8007d58:	6873      	ldr	r3, [r6, #4]
 8007d5a:	f8c5 9004 	str.w	r9, [r5, #4]
 8007d5e:	f8c5 801c 	str.w	r8, [r5, #28]
 8007d62:	642b      	str	r3, [r5, #64]	; 0x40
 8007d64:	622f      	str	r7, [r5, #32]
 8007d66:	e730      	b.n	8007bca <HAL_TIM_OC_ConfigChannel+0x11e>
 8007d68:	6823      	ldr	r3, [r4, #0]
 8007d6a:	4a1b      	ldr	r2, [pc, #108]	; (8007dd8 <HAL_TIM_OC_ConfigChannel+0x32c>)
 8007d6c:	4293      	cmp	r3, r2
 8007d6e:	d003      	beq.n	8007d78 <HAL_TIM_OC_ConfigChannel+0x2cc>
 8007d70:	f502 6280 	add.w	r2, r2, #1024	; 0x400
 8007d74:	4293      	cmp	r3, r2
 8007d76:	d17d      	bne.n	8007e74 <HAL_TIM_OC_ConfigChannel+0x3c8>
 8007d78:	6a18      	ldr	r0, [r3, #32]
 8007d7a:	f8d6 c008 	ldr.w	ip, [r6, #8]
 8007d7e:	f420 3080 	bic.w	r0, r0, #65536	; 0x10000
 8007d82:	6837      	ldr	r7, [r6, #0]
 8007d84:	4d14      	ldr	r5, [pc, #80]	; (8007dd8 <HAL_TIM_OC_ConfigChannel+0x32c>)
 8007d86:	6218      	str	r0, [r3, #32]
 8007d88:	6a1a      	ldr	r2, [r3, #32]
 8007d8a:	42ab      	cmp	r3, r5
 8007d8c:	6858      	ldr	r0, [r3, #4]
 8007d8e:	6d59      	ldr	r1, [r3, #84]	; 0x54
 8007d90:	f422 3200 	bic.w	r2, r2, #131072	; 0x20000
 8007d94:	f021 0170 	bic.w	r1, r1, #112	; 0x70
 8007d98:	ea42 420c 	orr.w	r2, r2, ip, lsl #16
 8007d9c:	ea41 0107 	orr.w	r1, r1, r7
 8007da0:	d00e      	beq.n	8007dc0 <HAL_TIM_OC_ConfigChannel+0x314>
 8007da2:	f505 6580 	add.w	r5, r5, #1024	; 0x400
 8007da6:	42ab      	cmp	r3, r5
 8007da8:	d00a      	beq.n	8007dc0 <HAL_TIM_OC_ConfigChannel+0x314>
 8007daa:	4f11      	ldr	r7, [pc, #68]	; (8007df0 <HAL_TIM_OC_ConfigChannel+0x344>)
 8007dac:	f505 4580 	add.w	r5, r5, #16384	; 0x4000
 8007db0:	42ab      	cmp	r3, r5
 8007db2:	bf18      	it	ne
 8007db4:	42bb      	cmpne	r3, r7
 8007db6:	d003      	beq.n	8007dc0 <HAL_TIM_OC_ConfigChannel+0x314>
 8007db8:	f505 6580 	add.w	r5, r5, #1024	; 0x400
 8007dbc:	42ab      	cmp	r3, r5
 8007dbe:	d104      	bne.n	8007dca <HAL_TIM_OC_ConfigChannel+0x31e>
 8007dc0:	f420 3080 	bic.w	r0, r0, #65536	; 0x10000
 8007dc4:	6975      	ldr	r5, [r6, #20]
 8007dc6:	ea40 2005 	orr.w	r0, r0, r5, lsl #8
 8007dca:	6875      	ldr	r5, [r6, #4]
 8007dcc:	6058      	str	r0, [r3, #4]
 8007dce:	6559      	str	r1, [r3, #84]	; 0x54
 8007dd0:	659d      	str	r5, [r3, #88]	; 0x58
 8007dd2:	621a      	str	r2, [r3, #32]
 8007dd4:	e6f9      	b.n	8007bca <HAL_TIM_OC_ConfigChannel+0x11e>
 8007dd6:	bf00      	nop
 8007dd8:	40010000 	.word	0x40010000
 8007ddc:	40000400 	.word	0x40000400
 8007de0:	40000800 	.word	0x40000800
 8007de4:	40014800 	.word	0x40014800
 8007de8:	00111111 	.word	0x00111111
 8007dec:	0800d1bc 	.word	0x0800d1bc
 8007df0:	40014000 	.word	0x40014000
 8007df4:	40010400 	.word	0x40010400
 8007df8:	6823      	ldr	r3, [r4, #0]
 8007dfa:	4a36      	ldr	r2, [pc, #216]	; (8007ed4 <HAL_TIM_OC_ConfigChannel+0x428>)
 8007dfc:	4293      	cmp	r3, r2
 8007dfe:	d003      	beq.n	8007e08 <HAL_TIM_OC_ConfigChannel+0x35c>
 8007e00:	f502 6280 	add.w	r2, r2, #1024	; 0x400
 8007e04:	4293      	cmp	r3, r2
 8007e06:	d12e      	bne.n	8007e66 <HAL_TIM_OC_ConfigChannel+0x3ba>
 8007e08:	6a18      	ldr	r0, [r3, #32]
 8007e0a:	f8d6 c008 	ldr.w	ip, [r6, #8]
 8007e0e:	f420 1080 	bic.w	r0, r0, #1048576	; 0x100000
 8007e12:	6837      	ldr	r7, [r6, #0]
 8007e14:	4d2f      	ldr	r5, [pc, #188]	; (8007ed4 <HAL_TIM_OC_ConfigChannel+0x428>)
 8007e16:	6218      	str	r0, [r3, #32]
 8007e18:	6a1a      	ldr	r2, [r3, #32]
 8007e1a:	42ab      	cmp	r3, r5
 8007e1c:	6858      	ldr	r0, [r3, #4]
 8007e1e:	6d59      	ldr	r1, [r3, #84]	; 0x54
 8007e20:	f422 1200 	bic.w	r2, r2, #2097152	; 0x200000
 8007e24:	f421 41e0 	bic.w	r1, r1, #28672	; 0x7000
 8007e28:	ea42 520c 	orr.w	r2, r2, ip, lsl #20
 8007e2c:	ea41 2107 	orr.w	r1, r1, r7, lsl #8
 8007e30:	d00e      	beq.n	8007e50 <HAL_TIM_OC_ConfigChannel+0x3a4>
 8007e32:	f505 6580 	add.w	r5, r5, #1024	; 0x400
 8007e36:	42ab      	cmp	r3, r5
 8007e38:	d00a      	beq.n	8007e50 <HAL_TIM_OC_ConfigChannel+0x3a4>
 8007e3a:	4f27      	ldr	r7, [pc, #156]	; (8007ed8 <HAL_TIM_OC_ConfigChannel+0x42c>)
 8007e3c:	f505 4580 	add.w	r5, r5, #16384	; 0x4000
 8007e40:	42ab      	cmp	r3, r5
 8007e42:	bf18      	it	ne
 8007e44:	42bb      	cmpne	r3, r7
 8007e46:	d003      	beq.n	8007e50 <HAL_TIM_OC_ConfigChannel+0x3a4>
 8007e48:	f505 6580 	add.w	r5, r5, #1024	; 0x400
 8007e4c:	42ab      	cmp	r3, r5
 8007e4e:	d104      	bne.n	8007e5a <HAL_TIM_OC_ConfigChannel+0x3ae>
 8007e50:	f420 3000 	bic.w	r0, r0, #131072	; 0x20000
 8007e54:	6975      	ldr	r5, [r6, #20]
 8007e56:	ea40 2085 	orr.w	r0, r0, r5, lsl #10
 8007e5a:	6875      	ldr	r5, [r6, #4]
 8007e5c:	6058      	str	r0, [r3, #4]
 8007e5e:	6559      	str	r1, [r3, #84]	; 0x54
 8007e60:	65dd      	str	r5, [r3, #92]	; 0x5c
 8007e62:	621a      	str	r2, [r3, #32]
 8007e64:	e6b1      	b.n	8007bca <HAL_TIM_OC_ConfigChannel+0x11e>
 8007e66:	f640 5195 	movw	r1, #3477	; 0xd95
 8007e6a:	481c      	ldr	r0, [pc, #112]	; (8007edc <HAL_TIM_OC_ConfigChannel+0x430>)
 8007e6c:	f7f9 f818 	bl	8000ea0 <assert_failed>
 8007e70:	6823      	ldr	r3, [r4, #0]
 8007e72:	e7c9      	b.n	8007e08 <HAL_TIM_OC_ConfigChannel+0x35c>
 8007e74:	f640 518b 	movw	r1, #3467	; 0xd8b
 8007e78:	4818      	ldr	r0, [pc, #96]	; (8007edc <HAL_TIM_OC_ConfigChannel+0x430>)
 8007e7a:	f7f9 f811 	bl	8000ea0 <assert_failed>
 8007e7e:	6823      	ldr	r3, [r4, #0]
 8007e80:	e77a      	b.n	8007d78 <HAL_TIM_OC_ConfigChannel+0x2cc>
 8007e82:	f640 5156 	movw	r1, #3414	; 0xd56
 8007e86:	4815      	ldr	r0, [pc, #84]	; (8007edc <HAL_TIM_OC_ConfigChannel+0x430>)
 8007e88:	f7f9 f80a 	bl	8000ea0 <assert_failed>
 8007e8c:	e626      	b.n	8007adc <HAL_TIM_OC_ConfigChannel+0x30>
 8007e8e:	f641 01e8 	movw	r1, #6376	; 0x18e8
 8007e92:	4812      	ldr	r0, [pc, #72]	; (8007edc <HAL_TIM_OC_ConfigChannel+0x430>)
 8007e94:	f7f9 f804 	bl	8000ea0 <assert_failed>
 8007e98:	6973      	ldr	r3, [r6, #20]
 8007e9a:	e759      	b.n	8007d50 <HAL_TIM_OC_ConfigChannel+0x2a4>
 8007e9c:	f640 5181 	movw	r1, #3457	; 0xd81
 8007ea0:	480e      	ldr	r0, [pc, #56]	; (8007edc <HAL_TIM_OC_ConfigChannel+0x430>)
 8007ea2:	f7f8 fffd 	bl	8000ea0 <assert_failed>
 8007ea6:	6825      	ldr	r5, [r4, #0]
 8007ea8:	e729      	b.n	8007cfe <HAL_TIM_OC_ConfigChannel+0x252>
 8007eaa:	480c      	ldr	r0, [pc, #48]	; (8007edc <HAL_TIM_OC_ConfigChannel+0x430>)
 8007eac:	f640 5177 	movw	r1, #3447	; 0xd77
 8007eb0:	f7f8 fff6 	bl	8000ea0 <assert_failed>
 8007eb4:	6820      	ldr	r0, [r4, #0]
 8007eb6:	e6fd      	b.n	8007cb4 <HAL_TIM_OC_ConfigChannel+0x208>
 8007eb8:	4808      	ldr	r0, [pc, #32]	; (8007edc <HAL_TIM_OC_ConfigChannel+0x430>)
 8007eba:	f640 516d 	movw	r1, #3437	; 0xd6d
 8007ebe:	f7f8 ffef 	bl	8000ea0 <assert_failed>
 8007ec2:	6820      	ldr	r0, [r4, #0]
 8007ec4:	e6d1      	b.n	8007c6a <HAL_TIM_OC_ConfigChannel+0x1be>
 8007ec6:	4805      	ldr	r0, [pc, #20]	; (8007edc <HAL_TIM_OC_ConfigChannel+0x430>)
 8007ec8:	f640 5163 	movw	r1, #3427	; 0xd63
 8007ecc:	f7f8 ffe8 	bl	8000ea0 <assert_failed>
 8007ed0:	6820      	ldr	r0, [r4, #0]
 8007ed2:	e677      	b.n	8007bc4 <HAL_TIM_OC_ConfigChannel+0x118>
 8007ed4:	40010000 	.word	0x40010000
 8007ed8:	40014000 	.word	0x40014000
 8007edc:	0800d1bc 	.word	0x0800d1bc

08007ee0 <HAL_TIMEx_MasterConfigSynchronization>:
 8007ee0:	b5f8      	push	{r3, r4, r5, r6, r7, lr}
 8007ee2:	4604      	mov	r4, r0
 8007ee4:	4b48      	ldr	r3, [pc, #288]	; (8008008 <HAL_TIMEx_MasterConfigSynchronization+0x128>)
 8007ee6:	4849      	ldr	r0, [pc, #292]	; (800800c <HAL_TIMEx_MasterConfigSynchronization+0x12c>)
 8007ee8:	460d      	mov	r5, r1
 8007eea:	6822      	ldr	r2, [r4, #0]
 8007eec:	4948      	ldr	r1, [pc, #288]	; (8008010 <HAL_TIMEx_MasterConfigSynchronization+0x130>)
 8007eee:	429a      	cmp	r2, r3
 8007ef0:	bf18      	it	ne
 8007ef2:	f1b2 4f80 	cmpne.w	r2, #1073741824	; 0x40000000
 8007ef6:	4e47      	ldr	r6, [pc, #284]	; (8008014 <HAL_TIMEx_MasterConfigSynchronization+0x134>)
 8007ef8:	bf14      	ite	ne
 8007efa:	2301      	movne	r3, #1
 8007efc:	2300      	moveq	r3, #0
 8007efe:	4282      	cmp	r2, r0
 8007f00:	bf0c      	ite	eq
 8007f02:	2300      	moveq	r3, #0
 8007f04:	f003 0301 	andne.w	r3, r3, #1
 8007f08:	f500 3080 	add.w	r0, r0, #65536	; 0x10000
 8007f0c:	428a      	cmp	r2, r1
 8007f0e:	bf0c      	ite	eq
 8007f10:	2300      	moveq	r3, #0
 8007f12:	f003 0301 	andne.w	r3, r3, #1
 8007f16:	f501 5180 	add.w	r1, r1, #4096	; 0x1000
 8007f1a:	42b2      	cmp	r2, r6
 8007f1c:	bf0c      	ite	eq
 8007f1e:	2300      	moveq	r3, #0
 8007f20:	f003 0301 	andne.w	r3, r3, #1
 8007f24:	4282      	cmp	r2, r0
 8007f26:	bf0c      	ite	eq
 8007f28:	2300      	moveq	r3, #0
 8007f2a:	f003 0301 	andne.w	r3, r3, #1
 8007f2e:	428a      	cmp	r2, r1
 8007f30:	bf0c      	ite	eq
 8007f32:	2300      	moveq	r3, #0
 8007f34:	f003 0301 	andne.w	r3, r3, #1
 8007f38:	b113      	cbz	r3, 8007f40 <HAL_TIMEx_MasterConfigSynchronization+0x60>
 8007f3a:	4b37      	ldr	r3, [pc, #220]	; (8008018 <HAL_TIMEx_MasterConfigSynchronization+0x138>)
 8007f3c:	429a      	cmp	r2, r3
 8007f3e:	d14e      	bne.n	8007fde <HAL_TIMEx_MasterConfigSynchronization+0xfe>
 8007f40:	682b      	ldr	r3, [r5, #0]
 8007f42:	f023 0330 	bic.w	r3, r3, #48	; 0x30
 8007f46:	2b40      	cmp	r3, #64	; 0x40
 8007f48:	d001      	beq.n	8007f4e <HAL_TIMEx_MasterConfigSynchronization+0x6e>
 8007f4a:	2b00      	cmp	r3, #0
 8007f4c:	d14d      	bne.n	8007fea <HAL_TIMEx_MasterConfigSynchronization+0x10a>
 8007f4e:	68ab      	ldr	r3, [r5, #8]
 8007f50:	f033 0380 	bics.w	r3, r3, #128	; 0x80
 8007f54:	d13d      	bne.n	8007fd2 <HAL_TIMEx_MasterConfigSynchronization+0xf2>
 8007f56:	f894 303c 	ldrb.w	r3, [r4, #60]	; 0x3c
 8007f5a:	2002      	movs	r0, #2
 8007f5c:	2b01      	cmp	r3, #1
 8007f5e:	d01f      	beq.n	8007fa0 <HAL_TIMEx_MasterConfigSynchronization+0xc0>
 8007f60:	6823      	ldr	r3, [r4, #0]
 8007f62:	2101      	movs	r1, #1
 8007f64:	4a28      	ldr	r2, [pc, #160]	; (8008008 <HAL_TIMEx_MasterConfigSynchronization+0x128>)
 8007f66:	f884 003d 	strb.w	r0, [r4, #61]	; 0x3d
 8007f6a:	4293      	cmp	r3, r2
 8007f6c:	685e      	ldr	r6, [r3, #4]
 8007f6e:	f884 103c 	strb.w	r1, [r4, #60]	; 0x3c
 8007f72:	689f      	ldr	r7, [r3, #8]
 8007f74:	d015      	beq.n	8007fa2 <HAL_TIMEx_MasterConfigSynchronization+0xc2>
 8007f76:	f502 6280 	add.w	r2, r2, #1024	; 0x400
 8007f7a:	4293      	cmp	r3, r2
 8007f7c:	d011      	beq.n	8007fa2 <HAL_TIMEx_MasterConfigSynchronization+0xc2>
 8007f7e:	682a      	ldr	r2, [r5, #0]
 8007f80:	f026 0670 	bic.w	r6, r6, #112	; 0x70
 8007f84:	68a8      	ldr	r0, [r5, #8]
 8007f86:	f027 0780 	bic.w	r7, r7, #128	; 0x80
 8007f8a:	4316      	orrs	r6, r2
 8007f8c:	2200      	movs	r2, #0
 8007f8e:	4307      	orrs	r7, r0
 8007f90:	2101      	movs	r1, #1
 8007f92:	4610      	mov	r0, r2
 8007f94:	605e      	str	r6, [r3, #4]
 8007f96:	609f      	str	r7, [r3, #8]
 8007f98:	f884 103d 	strb.w	r1, [r4, #61]	; 0x3d
 8007f9c:	f884 203c 	strb.w	r2, [r4, #60]	; 0x3c
 8007fa0:	bdf8      	pop	{r3, r4, r5, r6, r7, pc}
 8007fa2:	6868      	ldr	r0, [r5, #4]
 8007fa4:	f420 1240 	bic.w	r2, r0, #3145728	; 0x300000
 8007fa8:	f5b2 0f80 	cmp.w	r2, #4194304	; 0x400000
 8007fac:	bf18      	it	ne
 8007fae:	2a00      	cmpne	r2, #0
 8007fb0:	bf14      	ite	ne
 8007fb2:	2101      	movne	r1, #1
 8007fb4:	2100      	moveq	r1, #0
 8007fb6:	f5b2 0f00 	cmp.w	r2, #8388608	; 0x800000
 8007fba:	bf0c      	ite	eq
 8007fbc:	2100      	moveq	r1, #0
 8007fbe:	f001 0101 	andne.w	r1, r1, #1
 8007fc2:	b111      	cbz	r1, 8007fca <HAL_TIMEx_MasterConfigSynchronization+0xea>
 8007fc4:	f5b2 0f40 	cmp.w	r2, #12582912	; 0xc00000
 8007fc8:	d115      	bne.n	8007ff6 <HAL_TIMEx_MasterConfigSynchronization+0x116>
 8007fca:	f426 0670 	bic.w	r6, r6, #15728640	; 0xf00000
 8007fce:	4306      	orrs	r6, r0
 8007fd0:	e7d5      	b.n	8007f7e <HAL_TIMEx_MasterConfigSynchronization+0x9e>
 8007fd2:	f240 6169 	movw	r1, #1641	; 0x669
 8007fd6:	4811      	ldr	r0, [pc, #68]	; (800801c <HAL_TIMEx_MasterConfigSynchronization+0x13c>)
 8007fd8:	f7f8 ff62 	bl	8000ea0 <assert_failed>
 8007fdc:	e7bb      	b.n	8007f56 <HAL_TIMEx_MasterConfigSynchronization+0x76>
 8007fde:	f240 6167 	movw	r1, #1639	; 0x667
 8007fe2:	480e      	ldr	r0, [pc, #56]	; (800801c <HAL_TIMEx_MasterConfigSynchronization+0x13c>)
 8007fe4:	f7f8 ff5c 	bl	8000ea0 <assert_failed>
 8007fe8:	e7aa      	b.n	8007f40 <HAL_TIMEx_MasterConfigSynchronization+0x60>
 8007fea:	f44f 61cd 	mov.w	r1, #1640	; 0x668
 8007fee:	480b      	ldr	r0, [pc, #44]	; (800801c <HAL_TIMEx_MasterConfigSynchronization+0x13c>)
 8007ff0:	f7f8 ff56 	bl	8000ea0 <assert_failed>
 8007ff4:	e7ab      	b.n	8007f4e <HAL_TIMEx_MasterConfigSynchronization+0x6e>
 8007ff6:	4809      	ldr	r0, [pc, #36]	; (800801c <HAL_TIMEx_MasterConfigSynchronization+0x13c>)
 8007ff8:	f240 617b 	movw	r1, #1659	; 0x67b
 8007ffc:	f7f8 ff50 	bl	8000ea0 <assert_failed>
 8008000:	6868      	ldr	r0, [r5, #4]
 8008002:	6823      	ldr	r3, [r4, #0]
 8008004:	e7e1      	b.n	8007fca <HAL_TIMEx_MasterConfigSynchronization+0xea>
 8008006:	bf00      	nop
 8008008:	40010000 	.word	0x40010000
 800800c:	40000400 	.word	0x40000400
 8008010:	40000800 	.word	0x40000800
 8008014:	40000c00 	.word	0x40000c00
 8008018:	40014000 	.word	0x40014000
 800801c:	0800d1f4 	.word	0x0800d1f4

08008020 <HAL_TIMEx_ConfigBreakDeadTime>:
 8008020:	b5f8      	push	{r3, r4, r5, r6, r7, lr}
 8008022:	6802      	ldr	r2, [r0, #0]
 8008024:	4605      	mov	r5, r0
 8008026:	4b7a      	ldr	r3, [pc, #488]	; (8008210 <HAL_TIMEx_ConfigBreakDeadTime+0x1f0>)
 8008028:	460e      	mov	r6, r1
 800802a:	4c7a      	ldr	r4, [pc, #488]	; (8008214 <HAL_TIMEx_ConfigBreakDeadTime+0x1f4>)
 800802c:	487a      	ldr	r0, [pc, #488]	; (8008218 <HAL_TIMEx_ConfigBreakDeadTime+0x1f8>)
 800802e:	429a      	cmp	r2, r3
 8008030:	bf18      	it	ne
 8008032:	42a2      	cmpne	r2, r4
 8008034:	4979      	ldr	r1, [pc, #484]	; (800821c <HAL_TIMEx_ConfigBreakDeadTime+0x1fc>)
 8008036:	bf14      	ite	ne
 8008038:	2301      	movne	r3, #1
 800803a:	2300      	moveq	r3, #0
 800803c:	4282      	cmp	r2, r0
 800803e:	bf0c      	ite	eq
 8008040:	2300      	moveq	r3, #0
 8008042:	f003 0301 	andne.w	r3, r3, #1
 8008046:	428a      	cmp	r2, r1
 8008048:	bf0c      	ite	eq
 800804a:	2300      	moveq	r3, #0
 800804c:	f003 0301 	andne.w	r3, r3, #1
 8008050:	b11b      	cbz	r3, 800805a <HAL_TIMEx_ConfigBreakDeadTime+0x3a>
 8008052:	4b73      	ldr	r3, [pc, #460]	; (8008220 <HAL_TIMEx_ConfigBreakDeadTime+0x200>)
 8008054:	429a      	cmp	r2, r3
 8008056:	f040 80c1 	bne.w	80081dc <HAL_TIMEx_ConfigBreakDeadTime+0x1bc>
 800805a:	6833      	ldr	r3, [r6, #0]
 800805c:	f433 6300 	bics.w	r3, r3, #2048	; 0x800
 8008060:	d16f      	bne.n	8008142 <HAL_TIMEx_ConfigBreakDeadTime+0x122>
 8008062:	6873      	ldr	r3, [r6, #4]
 8008064:	f433 6380 	bics.w	r3, r3, #1024	; 0x400
 8008068:	d174      	bne.n	8008154 <HAL_TIMEx_ConfigBreakDeadTime+0x134>
 800806a:	68b3      	ldr	r3, [r6, #8]
 800806c:	f433 7340 	bics.w	r3, r3, #768	; 0x300
 8008070:	d179      	bne.n	8008166 <HAL_TIMEx_ConfigBreakDeadTime+0x146>
 8008072:	68f3      	ldr	r3, [r6, #12]
 8008074:	2bff      	cmp	r3, #255	; 0xff
 8008076:	d87e      	bhi.n	8008176 <HAL_TIMEx_ConfigBreakDeadTime+0x156>
 8008078:	6933      	ldr	r3, [r6, #16]
 800807a:	f433 5380 	bics.w	r3, r3, #4096	; 0x1000
 800807e:	f040 8084 	bne.w	800818a <HAL_TIMEx_ConfigBreakDeadTime+0x16a>
 8008082:	6973      	ldr	r3, [r6, #20]
 8008084:	f433 5300 	bics.w	r3, r3, #8192	; 0x2000
 8008088:	f040 8089 	bne.w	800819e <HAL_TIMEx_ConfigBreakDeadTime+0x17e>
 800808c:	69b3      	ldr	r3, [r6, #24]
 800808e:	2b0f      	cmp	r3, #15
 8008090:	f200 808e 	bhi.w	80081b0 <HAL_TIMEx_ConfigBreakDeadTime+0x190>
 8008094:	6ab3      	ldr	r3, [r6, #40]	; 0x28
 8008096:	f433 4380 	bics.w	r3, r3, #16384	; 0x4000
 800809a:	f040 8093 	bne.w	80081c4 <HAL_TIMEx_ConfigBreakDeadTime+0x1a4>
 800809e:	f895 303c 	ldrb.w	r3, [r5, #60]	; 0x3c
 80080a2:	2b01      	cmp	r3, #1
 80080a4:	f000 8098 	beq.w	80081d8 <HAL_TIMEx_ConfigBreakDeadTime+0x1b8>
 80080a8:	68f3      	ldr	r3, [r6, #12]
 80080aa:	2201      	movs	r2, #1
 80080ac:	68b1      	ldr	r1, [r6, #8]
 80080ae:	f423 7440 	bic.w	r4, r3, #768	; 0x300
 80080b2:	f885 203c 	strb.w	r2, [r5, #60]	; 0x3c
 80080b6:	6872      	ldr	r2, [r6, #4]
 80080b8:	430c      	orrs	r4, r1
 80080ba:	6837      	ldr	r7, [r6, #0]
 80080bc:	6930      	ldr	r0, [r6, #16]
 80080be:	f424 6480 	bic.w	r4, r4, #1024	; 0x400
 80080c2:	6971      	ldr	r1, [r6, #20]
 80080c4:	69b3      	ldr	r3, [r6, #24]
 80080c6:	4314      	orrs	r4, r2
 80080c8:	6ab2      	ldr	r2, [r6, #40]	; 0x28
 80080ca:	f424 6400 	bic.w	r4, r4, #2048	; 0x800
 80080ce:	433c      	orrs	r4, r7
 80080d0:	f424 5480 	bic.w	r4, r4, #4096	; 0x1000
 80080d4:	4304      	orrs	r4, r0
 80080d6:	6828      	ldr	r0, [r5, #0]
 80080d8:	f424 5400 	bic.w	r4, r4, #8192	; 0x2000
 80080dc:	430c      	orrs	r4, r1
 80080de:	494c      	ldr	r1, [pc, #304]	; (8008210 <HAL_TIMEx_ConfigBreakDeadTime+0x1f0>)
 80080e0:	f424 4480 	bic.w	r4, r4, #16384	; 0x4000
 80080e4:	4288      	cmp	r0, r1
 80080e6:	ea44 0402 	orr.w	r4, r4, r2
 80080ea:	f424 2470 	bic.w	r4, r4, #983040	; 0xf0000
 80080ee:	ea44 4403 	orr.w	r4, r4, r3, lsl #16
 80080f2:	d008      	beq.n	8008106 <HAL_TIMEx_ConfigBreakDeadTime+0xe6>
 80080f4:	4b47      	ldr	r3, [pc, #284]	; (8008214 <HAL_TIMEx_ConfigBreakDeadTime+0x1f4>)
 80080f6:	4298      	cmp	r0, r3
 80080f8:	d005      	beq.n	8008106 <HAL_TIMEx_ConfigBreakDeadTime+0xe6>
 80080fa:	2300      	movs	r3, #0
 80080fc:	6444      	str	r4, [r0, #68]	; 0x44
 80080fe:	4618      	mov	r0, r3
 8008100:	f885 303c 	strb.w	r3, [r5, #60]	; 0x3c
 8008104:	bdf8      	pop	{r3, r4, r5, r6, r7, pc}
 8008106:	69f3      	ldr	r3, [r6, #28]
 8008108:	f033 7380 	bics.w	r3, r3, #16777216	; 0x1000000
 800810c:	d179      	bne.n	8008202 <HAL_TIMEx_ConfigBreakDeadTime+0x1e2>
 800810e:	6a33      	ldr	r3, [r6, #32]
 8008110:	f033 7300 	bics.w	r3, r3, #33554432	; 0x2000000
 8008114:	d16f      	bne.n	80081f6 <HAL_TIMEx_ConfigBreakDeadTime+0x1d6>
 8008116:	6a73      	ldr	r3, [r6, #36]	; 0x24
 8008118:	2b0f      	cmp	r3, #15
 800811a:	d865      	bhi.n	80081e8 <HAL_TIMEx_ConfigBreakDeadTime+0x1c8>
 800811c:	f424 0470 	bic.w	r4, r4, #15728640	; 0xf00000
 8008120:	6828      	ldr	r0, [r5, #0]
 8008122:	ea44 5403 	orr.w	r4, r4, r3, lsl #20
 8008126:	2300      	movs	r3, #0
 8008128:	e9d6 1207 	ldrd	r1, r2, [r6, #28]
 800812c:	f024 7480 	bic.w	r4, r4, #16777216	; 0x1000000
 8008130:	430c      	orrs	r4, r1
 8008132:	f024 7400 	bic.w	r4, r4, #33554432	; 0x2000000
 8008136:	4314      	orrs	r4, r2
 8008138:	6444      	str	r4, [r0, #68]	; 0x44
 800813a:	4618      	mov	r0, r3
 800813c:	f885 303c 	strb.w	r3, [r5, #60]	; 0x3c
 8008140:	e7e0      	b.n	8008104 <HAL_TIMEx_ConfigBreakDeadTime+0xe4>
 8008142:	f240 61ae 	movw	r1, #1710	; 0x6ae
 8008146:	4837      	ldr	r0, [pc, #220]	; (8008224 <HAL_TIMEx_ConfigBreakDeadTime+0x204>)
 8008148:	f7f8 feaa 	bl	8000ea0 <assert_failed>
 800814c:	6873      	ldr	r3, [r6, #4]
 800814e:	f433 6380 	bics.w	r3, r3, #1024	; 0x400
 8008152:	d08a      	beq.n	800806a <HAL_TIMEx_ConfigBreakDeadTime+0x4a>
 8008154:	f240 61af 	movw	r1, #1711	; 0x6af
 8008158:	4832      	ldr	r0, [pc, #200]	; (8008224 <HAL_TIMEx_ConfigBreakDeadTime+0x204>)
 800815a:	f7f8 fea1 	bl	8000ea0 <assert_failed>
 800815e:	68b3      	ldr	r3, [r6, #8]
 8008160:	f433 7340 	bics.w	r3, r3, #768	; 0x300
 8008164:	d085      	beq.n	8008072 <HAL_TIMEx_ConfigBreakDeadTime+0x52>
 8008166:	f44f 61d6 	mov.w	r1, #1712	; 0x6b0
 800816a:	482e      	ldr	r0, [pc, #184]	; (8008224 <HAL_TIMEx_ConfigBreakDeadTime+0x204>)
 800816c:	f7f8 fe98 	bl	8000ea0 <assert_failed>
 8008170:	68f3      	ldr	r3, [r6, #12]
 8008172:	2bff      	cmp	r3, #255	; 0xff
 8008174:	d980      	bls.n	8008078 <HAL_TIMEx_ConfigBreakDeadTime+0x58>
 8008176:	f240 61b1 	movw	r1, #1713	; 0x6b1
 800817a:	482a      	ldr	r0, [pc, #168]	; (8008224 <HAL_TIMEx_ConfigBreakDeadTime+0x204>)
 800817c:	f7f8 fe90 	bl	8000ea0 <assert_failed>
 8008180:	6933      	ldr	r3, [r6, #16]
 8008182:	f433 5380 	bics.w	r3, r3, #4096	; 0x1000
 8008186:	f43f af7c 	beq.w	8008082 <HAL_TIMEx_ConfigBreakDeadTime+0x62>
 800818a:	f240 61b2 	movw	r1, #1714	; 0x6b2
 800818e:	4825      	ldr	r0, [pc, #148]	; (8008224 <HAL_TIMEx_ConfigBreakDeadTime+0x204>)
 8008190:	f7f8 fe86 	bl	8000ea0 <assert_failed>
 8008194:	6973      	ldr	r3, [r6, #20]
 8008196:	f433 5300 	bics.w	r3, r3, #8192	; 0x2000
 800819a:	f43f af77 	beq.w	800808c <HAL_TIMEx_ConfigBreakDeadTime+0x6c>
 800819e:	f240 61b3 	movw	r1, #1715	; 0x6b3
 80081a2:	4820      	ldr	r0, [pc, #128]	; (8008224 <HAL_TIMEx_ConfigBreakDeadTime+0x204>)
 80081a4:	f7f8 fe7c 	bl	8000ea0 <assert_failed>
 80081a8:	69b3      	ldr	r3, [r6, #24]
 80081aa:	2b0f      	cmp	r3, #15
 80081ac:	f67f af72 	bls.w	8008094 <HAL_TIMEx_ConfigBreakDeadTime+0x74>
 80081b0:	f240 61b4 	movw	r1, #1716	; 0x6b4
 80081b4:	481b      	ldr	r0, [pc, #108]	; (8008224 <HAL_TIMEx_ConfigBreakDeadTime+0x204>)
 80081b6:	f7f8 fe73 	bl	8000ea0 <assert_failed>
 80081ba:	6ab3      	ldr	r3, [r6, #40]	; 0x28
 80081bc:	f433 4380 	bics.w	r3, r3, #16384	; 0x4000
 80081c0:	f43f af6d 	beq.w	800809e <HAL_TIMEx_ConfigBreakDeadTime+0x7e>
 80081c4:	f240 61b5 	movw	r1, #1717	; 0x6b5
 80081c8:	4816      	ldr	r0, [pc, #88]	; (8008224 <HAL_TIMEx_ConfigBreakDeadTime+0x204>)
 80081ca:	f7f8 fe69 	bl	8000ea0 <assert_failed>
 80081ce:	f895 303c 	ldrb.w	r3, [r5, #60]	; 0x3c
 80081d2:	2b01      	cmp	r3, #1
 80081d4:	f47f af68 	bne.w	80080a8 <HAL_TIMEx_ConfigBreakDeadTime+0x88>
 80081d8:	2002      	movs	r0, #2
 80081da:	bdf8      	pop	{r3, r4, r5, r6, r7, pc}
 80081dc:	f240 61ad 	movw	r1, #1709	; 0x6ad
 80081e0:	4810      	ldr	r0, [pc, #64]	; (8008224 <HAL_TIMEx_ConfigBreakDeadTime+0x204>)
 80081e2:	f7f8 fe5d 	bl	8000ea0 <assert_failed>
 80081e6:	e738      	b.n	800805a <HAL_TIMEx_ConfigBreakDeadTime+0x3a>
 80081e8:	f240 61cc 	movw	r1, #1740	; 0x6cc
 80081ec:	480d      	ldr	r0, [pc, #52]	; (8008224 <HAL_TIMEx_ConfigBreakDeadTime+0x204>)
 80081ee:	f7f8 fe57 	bl	8000ea0 <assert_failed>
 80081f2:	6a73      	ldr	r3, [r6, #36]	; 0x24
 80081f4:	e792      	b.n	800811c <HAL_TIMEx_ConfigBreakDeadTime+0xfc>
 80081f6:	f240 61cb 	movw	r1, #1739	; 0x6cb
 80081fa:	480a      	ldr	r0, [pc, #40]	; (8008224 <HAL_TIMEx_ConfigBreakDeadTime+0x204>)
 80081fc:	f7f8 fe50 	bl	8000ea0 <assert_failed>
 8008200:	e789      	b.n	8008116 <HAL_TIMEx_ConfigBreakDeadTime+0xf6>
 8008202:	f240 61ca 	movw	r1, #1738	; 0x6ca
 8008206:	4807      	ldr	r0, [pc, #28]	; (8008224 <HAL_TIMEx_ConfigBreakDeadTime+0x204>)
 8008208:	f7f8 fe4a 	bl	8000ea0 <assert_failed>
 800820c:	e77f      	b.n	800810e <HAL_TIMEx_ConfigBreakDeadTime+0xee>
 800820e:	bf00      	nop
 8008210:	40010000 	.word	0x40010000
 8008214:	40010400 	.word	0x40010400
 8008218:	40014000 	.word	0x40014000
 800821c:	40014400 	.word	0x40014400
 8008220:	40014800 	.word	0x40014800
 8008224:	0800d1f4 	.word	0x0800d1f4

08008228 <HAL_TIMEx_CommutCallback>:
 8008228:	4770      	bx	lr
 800822a:	bf00      	nop

0800822c <HAL_TIMEx_BreakCallback>:
 800822c:	4770      	bx	lr
 800822e:	bf00      	nop

08008230 <HAL_TIMEx_Break2Callback>:
 8008230:	4770      	bx	lr
 8008232:	bf00      	nop

08008234 <HAL_UART_Transmit>:
 8008234:	e92d 43f0 	stmdb	sp!, {r4, r5, r6, r7, r8, r9, lr}
 8008238:	461e      	mov	r6, r3
 800823a:	f8d0 3080 	ldr.w	r3, [r0, #128]	; 0x80
 800823e:	b083      	sub	sp, #12
 8008240:	2b20      	cmp	r3, #32
 8008242:	d14a      	bne.n	80082da <HAL_UART_Transmit+0xa6>
 8008244:	4689      	mov	r9, r1
 8008246:	2900      	cmp	r1, #0
 8008248:	d04b      	beq.n	80082e2 <HAL_UART_Transmit+0xae>
 800824a:	fab2 f782 	clz	r7, r2
 800824e:	9201      	str	r2, [sp, #4]
 8008250:	097f      	lsrs	r7, r7, #5
 8008252:	2f00      	cmp	r7, #0
 8008254:	d145      	bne.n	80082e2 <HAL_UART_Transmit+0xae>
 8008256:	f890 307c 	ldrb.w	r3, [r0, #124]	; 0x7c
 800825a:	4605      	mov	r5, r0
 800825c:	2b01      	cmp	r3, #1
 800825e:	d03c      	beq.n	80082da <HAL_UART_Transmit+0xa6>
 8008260:	2321      	movs	r3, #33	; 0x21
 8008262:	2101      	movs	r1, #1
 8008264:	f8c0 7088 	str.w	r7, [r0, #136]	; 0x88
 8008268:	f880 107c 	strb.w	r1, [r0, #124]	; 0x7c
 800826c:	f8c0 3080 	str.w	r3, [r0, #128]	; 0x80
 8008270:	f7f9 f91a 	bl	80014a8 <HAL_GetTick>
 8008274:	68ab      	ldr	r3, [r5, #8]
 8008276:	9a01      	ldr	r2, [sp, #4]
 8008278:	4680      	mov	r8, r0
 800827a:	f5b3 5f80 	cmp.w	r3, #4096	; 0x1000
 800827e:	f8a5 2054 	strh.w	r2, [r5, #84]	; 0x54
 8008282:	f8a5 2056 	strh.w	r2, [r5, #86]	; 0x56
 8008286:	f000 8089 	beq.w	800839c <HAL_UART_Transmit+0x168>
 800828a:	f8b5 3056 	ldrh.w	r3, [r5, #86]	; 0x56
 800828e:	682c      	ldr	r4, [r5, #0]
 8008290:	b29b      	uxth	r3, r3
 8008292:	b1ab      	cbz	r3, 80082c0 <HAL_UART_Transmit+0x8c>
 8008294:	1c71      	adds	r1, r6, #1
 8008296:	d128      	bne.n	80082ea <HAL_UART_Transmit+0xb6>
 8008298:	69e2      	ldr	r2, [r4, #28]
 800829a:	0612      	lsls	r2, r2, #24
 800829c:	d5fc      	bpl.n	8008298 <HAL_UART_Transmit+0x64>
 800829e:	f1b9 0f00 	cmp.w	r9, #0
 80082a2:	d038      	beq.n	8008316 <HAL_UART_Transmit+0xe2>
 80082a4:	f819 3b01 	ldrb.w	r3, [r9], #1
 80082a8:	62a3      	str	r3, [r4, #40]	; 0x28
 80082aa:	f8b5 3056 	ldrh.w	r3, [r5, #86]	; 0x56
 80082ae:	3b01      	subs	r3, #1
 80082b0:	b29b      	uxth	r3, r3
 80082b2:	f8a5 3056 	strh.w	r3, [r5, #86]	; 0x56
 80082b6:	f8b5 3056 	ldrh.w	r3, [r5, #86]	; 0x56
 80082ba:	b29b      	uxth	r3, r3
 80082bc:	2b00      	cmp	r3, #0
 80082be:	d1e9      	bne.n	8008294 <HAL_UART_Transmit+0x60>
 80082c0:	1c71      	adds	r1, r6, #1
 80082c2:	d12d      	bne.n	8008320 <HAL_UART_Transmit+0xec>
 80082c4:	69e3      	ldr	r3, [r4, #28]
 80082c6:	065a      	lsls	r2, r3, #25
 80082c8:	d5fc      	bpl.n	80082c4 <HAL_UART_Transmit+0x90>
 80082ca:	2300      	movs	r3, #0
 80082cc:	2220      	movs	r2, #32
 80082ce:	4618      	mov	r0, r3
 80082d0:	f8c5 2080 	str.w	r2, [r5, #128]	; 0x80
 80082d4:	f885 307c 	strb.w	r3, [r5, #124]	; 0x7c
 80082d8:	e000      	b.n	80082dc <HAL_UART_Transmit+0xa8>
 80082da:	2002      	movs	r0, #2
 80082dc:	b003      	add	sp, #12
 80082de:	e8bd 83f0 	ldmia.w	sp!, {r4, r5, r6, r7, r8, r9, pc}
 80082e2:	2001      	movs	r0, #1
 80082e4:	b003      	add	sp, #12
 80082e6:	e8bd 83f0 	ldmia.w	sp!, {r4, r5, r6, r7, r8, r9, pc}
 80082ea:	69e3      	ldr	r3, [r4, #28]
 80082ec:	061b      	lsls	r3, r3, #24
 80082ee:	d4d6      	bmi.n	800829e <HAL_UART_Transmit+0x6a>
 80082f0:	f7f9 f8da 	bl	80014a8 <HAL_GetTick>
 80082f4:	eba0 0008 	sub.w	r0, r0, r8
 80082f8:	4286      	cmp	r6, r0
 80082fa:	d33c      	bcc.n	8008376 <HAL_UART_Transmit+0x142>
 80082fc:	fab6 f386 	clz	r3, r6
 8008300:	095b      	lsrs	r3, r3, #5
 8008302:	2b00      	cmp	r3, #0
 8008304:	d137      	bne.n	8008376 <HAL_UART_Transmit+0x142>
 8008306:	682c      	ldr	r4, [r5, #0]
 8008308:	6822      	ldr	r2, [r4, #0]
 800830a:	0752      	lsls	r2, r2, #29
 800830c:	d5c2      	bpl.n	8008294 <HAL_UART_Transmit+0x60>
 800830e:	69e2      	ldr	r2, [r4, #28]
 8008310:	0510      	lsls	r0, r2, #20
 8008312:	d5bf      	bpl.n	8008294 <HAL_UART_Transmit+0x60>
 8008314:	e019      	b.n	800834a <HAL_UART_Transmit+0x116>
 8008316:	f837 3b02 	ldrh.w	r3, [r7], #2
 800831a:	f3c3 0308 	ubfx	r3, r3, #0, #9
 800831e:	e7c3      	b.n	80082a8 <HAL_UART_Transmit+0x74>
 8008320:	69e3      	ldr	r3, [r4, #28]
 8008322:	065b      	lsls	r3, r3, #25
 8008324:	d4d1      	bmi.n	80082ca <HAL_UART_Transmit+0x96>
 8008326:	f7f9 f8bf 	bl	80014a8 <HAL_GetTick>
 800832a:	eba0 0008 	sub.w	r0, r0, r8
 800832e:	fab6 f386 	clz	r3, r6
 8008332:	4286      	cmp	r6, r0
 8008334:	ea4f 1353 	mov.w	r3, r3, lsr #5
 8008338:	d31d      	bcc.n	8008376 <HAL_UART_Transmit+0x142>
 800833a:	b9e3      	cbnz	r3, 8008376 <HAL_UART_Transmit+0x142>
 800833c:	682c      	ldr	r4, [r5, #0]
 800833e:	6822      	ldr	r2, [r4, #0]
 8008340:	0757      	lsls	r7, r2, #29
 8008342:	d5bd      	bpl.n	80082c0 <HAL_UART_Transmit+0x8c>
 8008344:	69e2      	ldr	r2, [r4, #28]
 8008346:	0510      	lsls	r0, r2, #20
 8008348:	d5ba      	bpl.n	80082c0 <HAL_UART_Transmit+0x8c>
 800834a:	f44f 6100 	mov.w	r1, #2048	; 0x800
 800834e:	2220      	movs	r2, #32
 8008350:	2003      	movs	r0, #3
 8008352:	6221      	str	r1, [r4, #32]
 8008354:	6821      	ldr	r1, [r4, #0]
 8008356:	f421 71d0 	bic.w	r1, r1, #416	; 0x1a0
 800835a:	6021      	str	r1, [r4, #0]
 800835c:	68a1      	ldr	r1, [r4, #8]
 800835e:	f021 0101 	bic.w	r1, r1, #1
 8008362:	60a1      	str	r1, [r4, #8]
 8008364:	f8c5 2080 	str.w	r2, [r5, #128]	; 0x80
 8008368:	f885 307c 	strb.w	r3, [r5, #124]	; 0x7c
 800836c:	f8c5 2084 	str.w	r2, [r5, #132]	; 0x84
 8008370:	f8c5 2088 	str.w	r2, [r5, #136]	; 0x88
 8008374:	e7b2      	b.n	80082dc <HAL_UART_Transmit+0xa8>
 8008376:	682b      	ldr	r3, [r5, #0]
 8008378:	2120      	movs	r1, #32
 800837a:	2400      	movs	r4, #0
 800837c:	2003      	movs	r0, #3
 800837e:	681a      	ldr	r2, [r3, #0]
 8008380:	f422 72d0 	bic.w	r2, r2, #416	; 0x1a0
 8008384:	601a      	str	r2, [r3, #0]
 8008386:	689a      	ldr	r2, [r3, #8]
 8008388:	f022 0201 	bic.w	r2, r2, #1
 800838c:	609a      	str	r2, [r3, #8]
 800838e:	f8c5 1080 	str.w	r1, [r5, #128]	; 0x80
 8008392:	f885 407c 	strb.w	r4, [r5, #124]	; 0x7c
 8008396:	f8c5 1084 	str.w	r1, [r5, #132]	; 0x84
 800839a:	e79f      	b.n	80082dc <HAL_UART_Transmit+0xa8>
 800839c:	692b      	ldr	r3, [r5, #16]
 800839e:	2b00      	cmp	r3, #0
 80083a0:	f47f af73 	bne.w	800828a <HAL_UART_Transmit+0x56>
 80083a4:	464f      	mov	r7, r9
 80083a6:	4699      	mov	r9, r3
 80083a8:	e76f      	b.n	800828a <HAL_UART_Transmit+0x56>
 80083aa:	bf00      	nop

080083ac <HAL_UART_GetState>:
 80083ac:	f8d0 2080 	ldr.w	r2, [r0, #128]	; 0x80
 80083b0:	f8d0 0084 	ldr.w	r0, [r0, #132]	; 0x84
 80083b4:	4310      	orrs	r0, r2
 80083b6:	4770      	bx	lr

080083b8 <UART_SetConfig>:
 80083b8:	4b9a      	ldr	r3, [pc, #616]	; (8008624 <UART_SetConfig+0x26c>)
 80083ba:	6842      	ldr	r2, [r0, #4]
 80083bc:	429a      	cmp	r2, r3
 80083be:	e92d 43f0 	stmdb	sp!, {r4, r5, r6, r7, r8, r9, lr}
 80083c2:	4604      	mov	r4, r0
 80083c4:	b087      	sub	sp, #28
 80083c6:	f200 8126 	bhi.w	8008616 <UART_SetConfig+0x25e>
 80083ca:	68a3      	ldr	r3, [r4, #8]
 80083cc:	f433 5280 	bics.w	r2, r3, #4096	; 0x1000
 80083d0:	d003      	beq.n	80083da <UART_SetConfig+0x22>
 80083d2:	f1b3 5f80 	cmp.w	r3, #268435456	; 0x10000000
 80083d6:	f040 80f2 	bne.w	80085be <UART_SetConfig+0x206>
 80083da:	4a93      	ldr	r2, [pc, #588]	; (8008628 <UART_SetConfig+0x270>)
 80083dc:	6821      	ldr	r1, [r4, #0]
 80083de:	68e3      	ldr	r3, [r4, #12]
 80083e0:	4291      	cmp	r1, r2
 80083e2:	f000 80f7 	beq.w	80085d4 <UART_SetConfig+0x21c>
 80083e6:	f433 5340 	bics.w	r3, r3, #12288	; 0x3000
 80083ea:	f040 8368 	bne.w	8008abe <UART_SetConfig+0x706>
 80083ee:	6a23      	ldr	r3, [r4, #32]
 80083f0:	f433 6300 	bics.w	r3, r3, #2048	; 0x800
 80083f4:	f040 80f8 	bne.w	80085e8 <UART_SetConfig+0x230>
 80083f8:	6923      	ldr	r3, [r4, #16]
 80083fa:	f433 6280 	bics.w	r2, r3, #1024	; 0x400
 80083fe:	d003      	beq.n	8008408 <UART_SetConfig+0x50>
 8008400:	f5b3 6fc0 	cmp.w	r3, #1536	; 0x600
 8008404:	f040 80d5 	bne.w	80085b2 <UART_SetConfig+0x1fa>
 8008408:	6963      	ldr	r3, [r4, #20]
 800840a:	f033 020c 	bics.w	r2, r3, #12
 800840e:	d15d      	bne.n	80084cc <UART_SetConfig+0x114>
 8008410:	2b00      	cmp	r3, #0
 8008412:	d05b      	beq.n	80084cc <UART_SetConfig+0x114>
 8008414:	69a3      	ldr	r3, [r4, #24]
 8008416:	f433 7340 	bics.w	r3, r3, #768	; 0x300
 800841a:	d160      	bne.n	80084de <UART_SetConfig+0x126>
 800841c:	69e3      	ldr	r3, [r4, #28]
 800841e:	f433 4300 	bics.w	r3, r3, #32768	; 0x8000
 8008422:	d165      	bne.n	80084f0 <UART_SetConfig+0x138>
 8008424:	6a61      	ldr	r1, [r4, #36]	; 0x24
 8008426:	290b      	cmp	r1, #11
 8008428:	d86a      	bhi.n	8008500 <UART_SetConfig+0x148>
 800842a:	68a3      	ldr	r3, [r4, #8]
 800842c:	69e0      	ldr	r0, [r4, #28]
 800842e:	6e66      	ldr	r6, [r4, #100]	; 0x64
 8008430:	e9d4 2504 	ldrd	r2, r5, [r4, #16]
 8008434:	4313      	orrs	r3, r2
 8008436:	6822      	ldr	r2, [r4, #0]
 8008438:	432b      	orrs	r3, r5
 800843a:	6817      	ldr	r7, [r2, #0]
 800843c:	4d7b      	ldr	r5, [pc, #492]	; (800862c <UART_SetConfig+0x274>)
 800843e:	4303      	orrs	r3, r0
 8008440:	403d      	ands	r5, r7
 8008442:	68e7      	ldr	r7, [r4, #12]
 8008444:	4333      	orrs	r3, r6
 8008446:	69a6      	ldr	r6, [r4, #24]
 8008448:	432b      	orrs	r3, r5
 800844a:	4d77      	ldr	r5, [pc, #476]	; (8008628 <UART_SetConfig+0x270>)
 800844c:	6013      	str	r3, [r2, #0]
 800844e:	42aa      	cmp	r2, r5
 8008450:	6853      	ldr	r3, [r2, #4]
 8008452:	f423 5340 	bic.w	r3, r3, #12288	; 0x3000
 8008456:	ea43 0307 	orr.w	r3, r3, r7
 800845a:	6053      	str	r3, [r2, #4]
 800845c:	f000 8102 	beq.w	8008664 <UART_SetConfig+0x2ac>
 8008460:	6897      	ldr	r7, [r2, #8]
 8008462:	6a23      	ldr	r3, [r4, #32]
 8008464:	4d72      	ldr	r5, [pc, #456]	; (8008630 <UART_SetConfig+0x278>)
 8008466:	4333      	orrs	r3, r6
 8008468:	403d      	ands	r5, r7
 800846a:	4f72      	ldr	r7, [pc, #456]	; (8008634 <UART_SetConfig+0x27c>)
 800846c:	432b      	orrs	r3, r5
 800846e:	42ba      	cmp	r2, r7
 8008470:	6093      	str	r3, [r2, #8]
 8008472:	6ad3      	ldr	r3, [r2, #44]	; 0x2c
 8008474:	f023 030f 	bic.w	r3, r3, #15
 8008478:	ea43 0301 	orr.w	r3, r3, r1
 800847c:	62d3      	str	r3, [r2, #44]	; 0x2c
 800847e:	d046      	beq.n	800850e <UART_SetConfig+0x156>
 8008480:	4b6d      	ldr	r3, [pc, #436]	; (8008638 <UART_SetConfig+0x280>)
 8008482:	429a      	cmp	r2, r3
 8008484:	f000 80b6 	beq.w	80085f4 <UART_SetConfig+0x23c>
 8008488:	4b6c      	ldr	r3, [pc, #432]	; (800863c <UART_SetConfig+0x284>)
 800848a:	429a      	cmp	r2, r3
 800848c:	f000 8226 	beq.w	80088dc <UART_SetConfig+0x524>
 8008490:	4b6b      	ldr	r3, [pc, #428]	; (8008640 <UART_SetConfig+0x288>)
 8008492:	429a      	cmp	r2, r3
 8008494:	f000 8486 	beq.w	8008da4 <UART_SetConfig+0x9ec>
 8008498:	4b6a      	ldr	r3, [pc, #424]	; (8008644 <UART_SetConfig+0x28c>)
 800849a:	429a      	cmp	r2, r3
 800849c:	f000 848d 	beq.w	8008dba <UART_SetConfig+0xa02>
 80084a0:	4b69      	ldr	r3, [pc, #420]	; (8008648 <UART_SetConfig+0x290>)
 80084a2:	429a      	cmp	r2, r3
 80084a4:	f000 8494 	beq.w	8008dd0 <UART_SetConfig+0xa18>
 80084a8:	4b68      	ldr	r3, [pc, #416]	; (800864c <UART_SetConfig+0x294>)
 80084aa:	429a      	cmp	r2, r3
 80084ac:	f000 8508 	beq.w	8008ec0 <UART_SetConfig+0xb08>
 80084b0:	4b67      	ldr	r3, [pc, #412]	; (8008650 <UART_SetConfig+0x298>)
 80084b2:	429a      	cmp	r2, r3
 80084b4:	f040 80a5 	bne.w	8008602 <UART_SetConfig+0x24a>
 80084b8:	4b66      	ldr	r3, [pc, #408]	; (8008654 <UART_SetConfig+0x29c>)
 80084ba:	6d5b      	ldr	r3, [r3, #84]	; 0x54
 80084bc:	f003 0307 	and.w	r3, r3, #7
 80084c0:	2b05      	cmp	r3, #5
 80084c2:	f200 809e 	bhi.w	8008602 <UART_SetConfig+0x24a>
 80084c6:	4a64      	ldr	r2, [pc, #400]	; (8008658 <UART_SetConfig+0x2a0>)
 80084c8:	5cd3      	ldrb	r3, [r2, r3]
 80084ca:	e028      	b.n	800851e <UART_SetConfig+0x166>
 80084cc:	f640 3141 	movw	r1, #2881	; 0xb41
 80084d0:	4862      	ldr	r0, [pc, #392]	; (800865c <UART_SetConfig+0x2a4>)
 80084d2:	f7f8 fce5 	bl	8000ea0 <assert_failed>
 80084d6:	69a3      	ldr	r3, [r4, #24]
 80084d8:	f433 7340 	bics.w	r3, r3, #768	; 0x300
 80084dc:	d09e      	beq.n	800841c <UART_SetConfig+0x64>
 80084de:	f640 3142 	movw	r1, #2882	; 0xb42
 80084e2:	485e      	ldr	r0, [pc, #376]	; (800865c <UART_SetConfig+0x2a4>)
 80084e4:	f7f8 fcdc 	bl	8000ea0 <assert_failed>
 80084e8:	69e3      	ldr	r3, [r4, #28]
 80084ea:	f433 4300 	bics.w	r3, r3, #32768	; 0x8000
 80084ee:	d099      	beq.n	8008424 <UART_SetConfig+0x6c>
 80084f0:	f640 3143 	movw	r1, #2883	; 0xb43
 80084f4:	4859      	ldr	r0, [pc, #356]	; (800865c <UART_SetConfig+0x2a4>)
 80084f6:	f7f8 fcd3 	bl	8000ea0 <assert_failed>
 80084fa:	6a61      	ldr	r1, [r4, #36]	; 0x24
 80084fc:	290b      	cmp	r1, #11
 80084fe:	d994      	bls.n	800842a <UART_SetConfig+0x72>
 8008500:	f640 3144 	movw	r1, #2884	; 0xb44
 8008504:	4855      	ldr	r0, [pc, #340]	; (800865c <UART_SetConfig+0x2a4>)
 8008506:	f7f8 fccb 	bl	8000ea0 <assert_failed>
 800850a:	6a61      	ldr	r1, [r4, #36]	; 0x24
 800850c:	e78d      	b.n	800842a <UART_SetConfig+0x72>
 800850e:	4b51      	ldr	r3, [pc, #324]	; (8008654 <UART_SetConfig+0x29c>)
 8008510:	6d5b      	ldr	r3, [r3, #84]	; 0x54
 8008512:	f003 0338 	and.w	r3, r3, #56	; 0x38
 8008516:	2b28      	cmp	r3, #40	; 0x28
 8008518:	d873      	bhi.n	8008602 <UART_SetConfig+0x24a>
 800851a:	4a51      	ldr	r2, [pc, #324]	; (8008660 <UART_SetConfig+0x2a8>)
 800851c:	5cd3      	ldrb	r3, [r2, r3]
 800851e:	f5b0 4f00 	cmp.w	r0, #32768	; 0x8000
 8008522:	f000 8152 	beq.w	80087ca <UART_SetConfig+0x412>
 8008526:	2b40      	cmp	r3, #64	; 0x40
 8008528:	f201 811a 	bhi.w	8009760 <UART_SetConfig+0x13a8>
 800852c:	e8df f013 	tbh	[pc, r3, lsl #1]
 8008530:	02b702bf 	.word	0x02b702bf
 8008534:	09180918 	.word	0x09180918
 8008538:	091802ae 	.word	0x091802ae
 800853c:	09180918 	.word	0x09180918
 8008540:	09180283 	.word	0x09180283
 8008544:	09180918 	.word	0x09180918
 8008548:	09180918 	.word	0x09180918
 800854c:	09180918 	.word	0x09180918
 8008550:	09180250 	.word	0x09180250
 8008554:	09180918 	.word	0x09180918
 8008558:	09180918 	.word	0x09180918
 800855c:	09180918 	.word	0x09180918
 8008560:	09180918 	.word	0x09180918
 8008564:	09180918 	.word	0x09180918
 8008568:	09180918 	.word	0x09180918
 800856c:	09180918 	.word	0x09180918
 8008570:	09180217 	.word	0x09180217
 8008574:	09180918 	.word	0x09180918
 8008578:	09180918 	.word	0x09180918
 800857c:	09180918 	.word	0x09180918
 8008580:	09180918 	.word	0x09180918
 8008584:	09180918 	.word	0x09180918
 8008588:	09180918 	.word	0x09180918
 800858c:	09180918 	.word	0x09180918
 8008590:	09180918 	.word	0x09180918
 8008594:	09180918 	.word	0x09180918
 8008598:	09180918 	.word	0x09180918
 800859c:	09180918 	.word	0x09180918
 80085a0:	09180918 	.word	0x09180918
 80085a4:	09180918 	.word	0x09180918
 80085a8:	09180918 	.word	0x09180918
 80085ac:	09180918 	.word	0x09180918
 80085b0:	01e0      	.short	0x01e0
 80085b2:	f44f 6134 	mov.w	r1, #2880	; 0xb40
 80085b6:	4829      	ldr	r0, [pc, #164]	; (800865c <UART_SetConfig+0x2a4>)
 80085b8:	f7f8 fc72 	bl	8000ea0 <assert_failed>
 80085bc:	e724      	b.n	8008408 <UART_SetConfig+0x50>
 80085be:	f640 3135 	movw	r1, #2869	; 0xb35
 80085c2:	4826      	ldr	r0, [pc, #152]	; (800865c <UART_SetConfig+0x2a4>)
 80085c4:	f7f8 fc6c 	bl	8000ea0 <assert_failed>
 80085c8:	4a17      	ldr	r2, [pc, #92]	; (8008628 <UART_SetConfig+0x270>)
 80085ca:	6821      	ldr	r1, [r4, #0]
 80085cc:	68e3      	ldr	r3, [r4, #12]
 80085ce:	4291      	cmp	r1, r2
 80085d0:	f47f af09 	bne.w	80083e6 <UART_SetConfig+0x2e>
 80085d4:	f433 5300 	bics.w	r3, r3, #8192	; 0x2000
 80085d8:	f43f af0e 	beq.w	80083f8 <UART_SetConfig+0x40>
 80085dc:	f640 3138 	movw	r1, #2872	; 0xb38
 80085e0:	481e      	ldr	r0, [pc, #120]	; (800865c <UART_SetConfig+0x2a4>)
 80085e2:	f7f8 fc5d 	bl	8000ea0 <assert_failed>
 80085e6:	e707      	b.n	80083f8 <UART_SetConfig+0x40>
 80085e8:	f640 313d 	movw	r1, #2877	; 0xb3d
 80085ec:	481b      	ldr	r0, [pc, #108]	; (800865c <UART_SetConfig+0x2a4>)
 80085ee:	f7f8 fc57 	bl	8000ea0 <assert_failed>
 80085f2:	e701      	b.n	80083f8 <UART_SetConfig+0x40>
 80085f4:	4b17      	ldr	r3, [pc, #92]	; (8008654 <UART_SetConfig+0x29c>)
 80085f6:	6d5b      	ldr	r3, [r3, #84]	; 0x54
 80085f8:	f003 0307 	and.w	r3, r3, #7
 80085fc:	2b05      	cmp	r3, #5
 80085fe:	f240 80de 	bls.w	80087be <UART_SetConfig+0x406>
 8008602:	2001      	movs	r0, #1
 8008604:	2300      	movs	r3, #0
 8008606:	f04f 1201 	mov.w	r2, #65537	; 0x10001
 800860a:	e9c4 231a 	strd	r2, r3, [r4, #104]	; 0x68
 800860e:	6723      	str	r3, [r4, #112]	; 0x70
 8008610:	b007      	add	sp, #28
 8008612:	e8bd 83f0 	ldmia.w	sp!, {r4, r5, r6, r7, r8, r9, pc}
 8008616:	f640 3134 	movw	r1, #2868	; 0xb34
 800861a:	4810      	ldr	r0, [pc, #64]	; (800865c <UART_SetConfig+0x2a4>)
 800861c:	f7f8 fc40 	bl	8000ea0 <assert_failed>
 8008620:	e6d3      	b.n	80083ca <UART_SetConfig+0x12>
 8008622:	bf00      	nop
 8008624:	00bebc20 	.word	0x00bebc20
 8008628:	58000c00 	.word	0x58000c00
 800862c:	cfff69f3 	.word	0xcfff69f3
 8008630:	11fff4ff 	.word	0x11fff4ff
 8008634:	40011000 	.word	0x40011000
 8008638:	40004400 	.word	0x40004400
 800863c:	40004800 	.word	0x40004800
 8008640:	40004c00 	.word	0x40004c00
 8008644:	40005000 	.word	0x40005000
 8008648:	40011400 	.word	0x40011400
 800864c:	40007800 	.word	0x40007800
 8008650:	40007c00 	.word	0x40007c00
 8008654:	58024400 	.word	0x58024400
 8008658:	0800d25c 	.word	0x0800d25c
 800865c:	0800d26c 	.word	0x0800d26c
 8008660:	0800d230 	.word	0x0800d230
 8008664:	6895      	ldr	r5, [r2, #8]
 8008666:	4bd2      	ldr	r3, [pc, #840]	; (80089b0 <UART_SetConfig+0x5f8>)
 8008668:	48d2      	ldr	r0, [pc, #840]	; (80089b4 <UART_SetConfig+0x5fc>)
 800866a:	402b      	ands	r3, r5
 800866c:	4333      	orrs	r3, r6
 800866e:	6093      	str	r3, [r2, #8]
 8008670:	6ad3      	ldr	r3, [r2, #44]	; 0x2c
 8008672:	f023 030f 	bic.w	r3, r3, #15
 8008676:	430b      	orrs	r3, r1
 8008678:	62d3      	str	r3, [r2, #44]	; 0x2c
 800867a:	6d83      	ldr	r3, [r0, #88]	; 0x58
 800867c:	f003 0307 	and.w	r3, r3, #7
 8008680:	2b05      	cmp	r3, #5
 8008682:	d8be      	bhi.n	8008602 <UART_SetConfig+0x24a>
 8008684:	4acc      	ldr	r2, [pc, #816]	; (80089b8 <UART_SetConfig+0x600>)
 8008686:	5cd5      	ldrb	r5, [r2, r3]
 8008688:	2d08      	cmp	r5, #8
 800868a:	f000 83e8 	beq.w	8008e5e <UART_SetConfig+0xaa6>
 800868e:	f240 83aa 	bls.w	8008de6 <UART_SetConfig+0xa2e>
 8008692:	2d20      	cmp	r5, #32
 8008694:	f000 8246 	beq.w	8008b24 <UART_SetConfig+0x76c>
 8008698:	2d40      	cmp	r5, #64	; 0x40
 800869a:	f000 83eb 	beq.w	8008e74 <UART_SetConfig+0xabc>
 800869e:	2d10      	cmp	r5, #16
 80086a0:	d1af      	bne.n	8008602 <UART_SetConfig+0x24a>
 80086a2:	6803      	ldr	r3, [r0, #0]
 80086a4:	069e      	lsls	r6, r3, #26
 80086a6:	f140 8429 	bpl.w	8008efc <UART_SetConfig+0xb44>
 80086aa:	6800      	ldr	r0, [r0, #0]
 80086ac:	4bc3      	ldr	r3, [pc, #780]	; (80089bc <UART_SetConfig+0x604>)
 80086ae:	f3c0 00c1 	ubfx	r0, r0, #3, #2
 80086b2:	fa23 f000 	lsr.w	r0, r3, r0
 80086b6:	b301      	cbz	r1, 80086fa <UART_SetConfig+0x342>
 80086b8:	2901      	cmp	r1, #1
 80086ba:	f000 85ac 	beq.w	8009216 <UART_SetConfig+0xe5e>
 80086be:	2902      	cmp	r1, #2
 80086c0:	f000 859e 	beq.w	8009200 <UART_SetConfig+0xe48>
 80086c4:	2903      	cmp	r1, #3
 80086c6:	f000 8598 	beq.w	80091fa <UART_SetConfig+0xe42>
 80086ca:	2904      	cmp	r1, #4
 80086cc:	f000 8658 	beq.w	8009380 <UART_SetConfig+0xfc8>
 80086d0:	2905      	cmp	r1, #5
 80086d2:	f000 869b 	beq.w	800940c <UART_SetConfig+0x1054>
 80086d6:	2906      	cmp	r1, #6
 80086d8:	f000 8737 	beq.w	800954a <UART_SetConfig+0x1192>
 80086dc:	2907      	cmp	r1, #7
 80086de:	f000 8749 	beq.w	8009574 <UART_SetConfig+0x11bc>
 80086e2:	2908      	cmp	r1, #8
 80086e4:	f000 87a0 	beq.w	8009628 <UART_SetConfig+0x1270>
 80086e8:	2909      	cmp	r1, #9
 80086ea:	f000 87ea 	beq.w	80096c2 <UART_SetConfig+0x130a>
 80086ee:	290a      	cmp	r1, #10
 80086f0:	f000 87e4 	beq.w	80096bc <UART_SetConfig+0x1304>
 80086f4:	290b      	cmp	r1, #11
 80086f6:	d100      	bne.n	80086fa <UART_SetConfig+0x342>
 80086f8:	0a00      	lsrs	r0, r0, #8
 80086fa:	6866      	ldr	r6, [r4, #4]
 80086fc:	eb06 0346 	add.w	r3, r6, r6, lsl #1
 8008700:	4283      	cmp	r3, r0
 8008702:	f63f af7e 	bhi.w	8008602 <UART_SetConfig+0x24a>
 8008706:	ebb0 3f06 	cmp.w	r0, r6, lsl #12
 800870a:	f63f af7a 	bhi.w	8008602 <UART_SetConfig+0x24a>
 800870e:	2d08      	cmp	r5, #8
 8008710:	f000 84bf 	beq.w	8009092 <UART_SetConfig+0xcda>
 8008714:	f240 844a 	bls.w	8008fac <UART_SetConfig+0xbf4>
 8008718:	2d20      	cmp	r5, #32
 800871a:	f000 8522 	beq.w	8009162 <UART_SetConfig+0xdaa>
 800871e:	2d40      	cmp	r5, #64	; 0x40
 8008720:	f000 84e0 	beq.w	80090e4 <UART_SetConfig+0xd2c>
 8008724:	2d10      	cmp	r5, #16
 8008726:	f47f af6c 	bne.w	8008602 <UART_SetConfig+0x24a>
 800872a:	4aa2      	ldr	r2, [pc, #648]	; (80089b4 <UART_SetConfig+0x5fc>)
 800872c:	6a63      	ldr	r3, [r4, #36]	; 0x24
 800872e:	6811      	ldr	r1, [r2, #0]
 8008730:	068d      	lsls	r5, r1, #26
 8008732:	f140 8589 	bpl.w	8009248 <UART_SetConfig+0xe90>
 8008736:	6811      	ldr	r1, [r2, #0]
 8008738:	4aa0      	ldr	r2, [pc, #640]	; (80089bc <UART_SetConfig+0x604>)
 800873a:	f3c1 01c1 	ubfx	r1, r1, #3, #2
 800873e:	40ca      	lsrs	r2, r1
 8008740:	2100      	movs	r1, #0
 8008742:	4610      	mov	r0, r2
 8008744:	b30b      	cbz	r3, 800878a <UART_SetConfig+0x3d2>
 8008746:	2b01      	cmp	r3, #1
 8008748:	f000 8695 	beq.w	8009476 <UART_SetConfig+0x10be>
 800874c:	2b02      	cmp	r3, #2
 800874e:	f000 871f 	beq.w	8009590 <UART_SetConfig+0x11d8>
 8008752:	2b03      	cmp	r3, #3
 8008754:	f000 877c 	beq.w	8009650 <UART_SetConfig+0x1298>
 8008758:	2b04      	cmp	r3, #4
 800875a:	f000 87c1 	beq.w	80096e0 <UART_SetConfig+0x1328>
 800875e:	2b05      	cmp	r3, #5
 8008760:	f000 87b8 	beq.w	80096d4 <UART_SetConfig+0x131c>
 8008764:	2b06      	cmp	r3, #6
 8008766:	f000 87af 	beq.w	80096c8 <UART_SetConfig+0x1310>
 800876a:	2b07      	cmp	r3, #7
 800876c:	f000 87cc 	beq.w	8009708 <UART_SetConfig+0x1350>
 8008770:	2b08      	cmp	r3, #8
 8008772:	f000 87d1 	beq.w	8009718 <UART_SetConfig+0x1360>
 8008776:	2b09      	cmp	r3, #9
 8008778:	f000 87ca 	beq.w	8009710 <UART_SetConfig+0x1358>
 800877c:	2b0a      	cmp	r3, #10
 800877e:	f000 87f8 	beq.w	8009772 <UART_SetConfig+0x13ba>
 8008782:	2b0b      	cmp	r3, #11
 8008784:	d101      	bne.n	800878a <UART_SetConfig+0x3d2>
 8008786:	0a10      	lsrs	r0, r2, #8
 8008788:	2100      	movs	r1, #0
 800878a:	ea4f 2901 	mov.w	r9, r1, lsl #8
 800878e:	2300      	movs	r3, #0
 8008790:	0875      	lsrs	r5, r6, #1
 8008792:	4632      	mov	r2, r6
 8008794:	ea4f 2800 	mov.w	r8, r0, lsl #8
 8008798:	ea49 6910 	orr.w	r9, r9, r0, lsr #24
 800879c:	eb18 0005 	adds.w	r0, r8, r5
 80087a0:	f149 0100 	adc.w	r1, r9, #0
 80087a4:	f7f7 fdec 	bl	8000380 <__aeabi_uldivmod>
 80087a8:	4603      	mov	r3, r0
 80087aa:	f5a0 7140 	sub.w	r1, r0, #768	; 0x300
 80087ae:	4a84      	ldr	r2, [pc, #528]	; (80089c0 <UART_SetConfig+0x608>)
 80087b0:	4291      	cmp	r1, r2
 80087b2:	f63f af26 	bhi.w	8008602 <UART_SetConfig+0x24a>
 80087b6:	6822      	ldr	r2, [r4, #0]
 80087b8:	2000      	movs	r0, #0
 80087ba:	60d3      	str	r3, [r2, #12]
 80087bc:	e722      	b.n	8008604 <UART_SetConfig+0x24c>
 80087be:	4a81      	ldr	r2, [pc, #516]	; (80089c4 <UART_SetConfig+0x60c>)
 80087c0:	f5b0 4f00 	cmp.w	r0, #32768	; 0x8000
 80087c4:	5cd3      	ldrb	r3, [r2, r3]
 80087c6:	f47f aeae 	bne.w	8008526 <UART_SetConfig+0x16e>
 80087ca:	2b40      	cmp	r3, #64	; 0x40
 80087cc:	f63f af19 	bhi.w	8008602 <UART_SetConfig+0x24a>
 80087d0:	a201      	add	r2, pc, #4	; (adr r2, 80087d8 <UART_SetConfig+0x420>)
 80087d2:	f852 f023 	ldr.w	pc, [r2, r3, lsl #2]
 80087d6:	bf00      	nop
 80087d8:	08008d97 	.word	0x08008d97
 80087dc:	08008bf9 	.word	0x08008bf9
 80087e0:	08008603 	.word	0x08008603
 80087e4:	08008603 	.word	0x08008603
 80087e8:	08008d87 	.word	0x08008d87
 80087ec:	08008603 	.word	0x08008603
 80087f0:	08008603 	.word	0x08008603
 80087f4:	08008603 	.word	0x08008603
 80087f8:	08008d35 	.word	0x08008d35
 80087fc:	08008603 	.word	0x08008603
 8008800:	08008603 	.word	0x08008603
 8008804:	08008603 	.word	0x08008603
 8008808:	08008603 	.word	0x08008603
 800880c:	08008603 	.word	0x08008603
 8008810:	08008603 	.word	0x08008603
 8008814:	08008603 	.word	0x08008603
 8008818:	08008cb1 	.word	0x08008cb1
 800881c:	08008603 	.word	0x08008603
 8008820:	08008603 	.word	0x08008603
 8008824:	08008603 	.word	0x08008603
 8008828:	08008603 	.word	0x08008603
 800882c:	08008603 	.word	0x08008603
 8008830:	08008603 	.word	0x08008603
 8008834:	08008603 	.word	0x08008603
 8008838:	08008603 	.word	0x08008603
 800883c:	08008603 	.word	0x08008603
 8008840:	08008603 	.word	0x08008603
 8008844:	08008603 	.word	0x08008603
 8008848:	08008603 	.word	0x08008603
 800884c:	08008603 	.word	0x08008603
 8008850:	08008603 	.word	0x08008603
 8008854:	08008603 	.word	0x08008603
 8008858:	08008c53 	.word	0x08008c53
 800885c:	08008603 	.word	0x08008603
 8008860:	08008603 	.word	0x08008603
 8008864:	08008603 	.word	0x08008603
 8008868:	08008603 	.word	0x08008603
 800886c:	08008603 	.word	0x08008603
 8008870:	08008603 	.word	0x08008603
 8008874:	08008603 	.word	0x08008603
 8008878:	08008603 	.word	0x08008603
 800887c:	08008603 	.word	0x08008603
 8008880:	08008603 	.word	0x08008603
 8008884:	08008603 	.word	0x08008603
 8008888:	08008603 	.word	0x08008603
 800888c:	08008603 	.word	0x08008603
 8008890:	08008603 	.word	0x08008603
 8008894:	08008603 	.word	0x08008603
 8008898:	08008603 	.word	0x08008603
 800889c:	08008603 	.word	0x08008603
 80088a0:	08008603 	.word	0x08008603
 80088a4:	08008603 	.word	0x08008603
 80088a8:	08008603 	.word	0x08008603
 80088ac:	08008603 	.word	0x08008603
 80088b0:	08008603 	.word	0x08008603
 80088b4:	08008603 	.word	0x08008603
 80088b8:	08008603 	.word	0x08008603
 80088bc:	08008603 	.word	0x08008603
 80088c0:	08008603 	.word	0x08008603
 80088c4:	08008603 	.word	0x08008603
 80088c8:	08008603 	.word	0x08008603
 80088cc:	08008603 	.word	0x08008603
 80088d0:	08008603 	.word	0x08008603
 80088d4:	08008603 	.word	0x08008603
 80088d8:	08008b7f 	.word	0x08008b7f
 80088dc:	4b35      	ldr	r3, [pc, #212]	; (80089b4 <UART_SetConfig+0x5fc>)
 80088de:	6d5b      	ldr	r3, [r3, #84]	; 0x54
 80088e0:	f003 0307 	and.w	r3, r3, #7
 80088e4:	2b05      	cmp	r3, #5
 80088e6:	f63f ae8c 	bhi.w	8008602 <UART_SetConfig+0x24a>
 80088ea:	4a37      	ldr	r2, [pc, #220]	; (80089c8 <UART_SetConfig+0x610>)
 80088ec:	5cd3      	ldrb	r3, [r2, r3]
 80088ee:	e616      	b.n	800851e <UART_SetConfig+0x166>
 80088f0:	2900      	cmp	r1, #0
 80088f2:	f000 80ec 	beq.w	8008ace <UART_SetConfig+0x716>
 80088f6:	2901      	cmp	r1, #1
 80088f8:	f000 83b6 	beq.w	8009068 <UART_SetConfig+0xcb0>
 80088fc:	2902      	cmp	r1, #2
 80088fe:	f000 83c5 	beq.w	800908c <UART_SetConfig+0xcd4>
 8008902:	2903      	cmp	r1, #3
 8008904:	f000 8472 	beq.w	80091ec <UART_SetConfig+0xe34>
 8008908:	2904      	cmp	r1, #4
 800890a:	f000 84c2 	beq.w	8009292 <UART_SetConfig+0xeda>
 800890e:	2905      	cmp	r1, #5
 8008910:	f000 84ef 	beq.w	80092f2 <UART_SetConfig+0xf3a>
 8008914:	2906      	cmp	r1, #6
 8008916:	f000 851d 	beq.w	8009354 <UART_SetConfig+0xf9c>
 800891a:	2907      	cmp	r1, #7
 800891c:	f000 856a 	beq.w	80093f4 <UART_SetConfig+0x103c>
 8008920:	2908      	cmp	r1, #8
 8008922:	f000 85b0 	beq.w	8009486 <UART_SetConfig+0x10ce>
 8008926:	2909      	cmp	r1, #9
 8008928:	f000 8653 	beq.w	80095d2 <UART_SetConfig+0x121a>
 800892c:	290a      	cmp	r1, #10
 800892e:	f000 8684 	beq.w	800963a <UART_SetConfig+0x1282>
 8008932:	290b      	cmp	r1, #11
 8008934:	bf14      	ite	ne
 8008936:	f44f 4300 	movne.w	r3, #32768	; 0x8000
 800893a:	2380      	moveq	r3, #128	; 0x80
 800893c:	6862      	ldr	r2, [r4, #4]
 800893e:	2000      	movs	r0, #0
 8008940:	eb03 0352 	add.w	r3, r3, r2, lsr #1
 8008944:	fbb3 f3f2 	udiv	r3, r3, r2
 8008948:	b29b      	uxth	r3, r3
 800894a:	f1a3 0110 	sub.w	r1, r3, #16
 800894e:	f64f 72ef 	movw	r2, #65519	; 0xffef
 8008952:	4291      	cmp	r1, r2
 8008954:	f63f ae55 	bhi.w	8008602 <UART_SetConfig+0x24a>
 8008958:	6822      	ldr	r2, [r4, #0]
 800895a:	60d3      	str	r3, [r2, #12]
 800895c:	e652      	b.n	8008604 <UART_SetConfig+0x24c>
 800895e:	2900      	cmp	r1, #0
 8008960:	f000 80b3 	beq.w	8008aca <UART_SetConfig+0x712>
 8008964:	2901      	cmp	r1, #1
 8008966:	f000 837d 	beq.w	8009064 <UART_SetConfig+0xcac>
 800896a:	2902      	cmp	r1, #2
 800896c:	f000 838c 	beq.w	8009088 <UART_SetConfig+0xcd0>
 8008970:	2903      	cmp	r1, #3
 8008972:	f000 843f 	beq.w	80091f4 <UART_SetConfig+0xe3c>
 8008976:	2904      	cmp	r1, #4
 8008978:	f000 848f 	beq.w	800929a <UART_SetConfig+0xee2>
 800897c:	2905      	cmp	r1, #5
 800897e:	f000 84bc 	beq.w	80092fa <UART_SetConfig+0xf42>
 8008982:	2906      	cmp	r1, #6
 8008984:	f000 84f3 	beq.w	800936e <UART_SetConfig+0xfb6>
 8008988:	2907      	cmp	r1, #7
 800898a:	f000 8530 	beq.w	80093ee <UART_SetConfig+0x1036>
 800898e:	2908      	cmp	r1, #8
 8008990:	f000 8576 	beq.w	8009480 <UART_SetConfig+0x10c8>
 8008994:	2909      	cmp	r1, #9
 8008996:	f000 8623 	beq.w	80095e0 <UART_SetConfig+0x1228>
 800899a:	290a      	cmp	r1, #10
 800899c:	f000 862c 	beq.w	80095f8 <UART_SetConfig+0x1240>
 80089a0:	4b0a      	ldr	r3, [pc, #40]	; (80089cc <UART_SetConfig+0x614>)
 80089a2:	f643 5209 	movw	r2, #15625	; 0x3d09
 80089a6:	290b      	cmp	r1, #11
 80089a8:	bf08      	it	eq
 80089aa:	4613      	moveq	r3, r2
 80089ac:	e7c6      	b.n	800893c <UART_SetConfig+0x584>
 80089ae:	bf00      	nop
 80089b0:	11fff4ff 	.word	0x11fff4ff
 80089b4:	58024400 	.word	0x58024400
 80089b8:	0800d264 	.word	0x0800d264
 80089bc:	03d09000 	.word	0x03d09000
 80089c0:	000ffcff 	.word	0x000ffcff
 80089c4:	0800d25c 	.word	0x0800d25c
 80089c8:	0800d25c 	.word	0x0800d25c
 80089cc:	003d0900 	.word	0x003d0900
 80089d0:	4bd1      	ldr	r3, [pc, #836]	; (8008d18 <UART_SetConfig+0x960>)
 80089d2:	681a      	ldr	r2, [r3, #0]
 80089d4:	0692      	lsls	r2, r2, #26
 80089d6:	d47d      	bmi.n	8008ad4 <UART_SetConfig+0x71c>
 80089d8:	2900      	cmp	r1, #0
 80089da:	f000 8331 	beq.w	8009040 <UART_SetConfig+0xc88>
 80089de:	2901      	cmp	r1, #1
 80089e0:	f000 83f3 	beq.w	80091ca <UART_SetConfig+0xe12>
 80089e4:	2902      	cmp	r1, #2
 80089e6:	f000 8425 	beq.w	8009234 <UART_SetConfig+0xe7c>
 80089ea:	2903      	cmp	r1, #3
 80089ec:	f000 8470 	beq.w	80092d0 <UART_SetConfig+0xf18>
 80089f0:	2904      	cmp	r1, #4
 80089f2:	f000 84a8 	beq.w	8009346 <UART_SetConfig+0xf8e>
 80089f6:	2905      	cmp	r1, #5
 80089f8:	f000 84e3 	beq.w	80093c2 <UART_SetConfig+0x100a>
 80089fc:	2906      	cmp	r1, #6
 80089fe:	f000 852a 	beq.w	8009456 <UART_SetConfig+0x109e>
 8008a02:	2907      	cmp	r1, #7
 8008a04:	f000 859e 	beq.w	8009544 <UART_SetConfig+0x118c>
 8008a08:	2908      	cmp	r1, #8
 8008a0a:	f000 85df 	beq.w	80095cc <UART_SetConfig+0x1214>
 8008a0e:	2909      	cmp	r1, #9
 8008a10:	f000 8610 	beq.w	8009634 <UART_SetConfig+0x127c>
 8008a14:	290a      	cmp	r1, #10
 8008a16:	f000 8625 	beq.w	8009664 <UART_SetConfig+0x12ac>
 8008a1a:	4bc0      	ldr	r3, [pc, #768]	; (8008d1c <UART_SetConfig+0x964>)
 8008a1c:	4ac0      	ldr	r2, [pc, #768]	; (8008d20 <UART_SetConfig+0x968>)
 8008a1e:	290b      	cmp	r1, #11
 8008a20:	bf14      	ite	ne
 8008a22:	4619      	movne	r1, r3
 8008a24:	4611      	moveq	r1, r2
 8008a26:	6863      	ldr	r3, [r4, #4]
 8008a28:	2000      	movs	r0, #0
 8008a2a:	eb01 0153 	add.w	r1, r1, r3, lsr #1
 8008a2e:	fbb1 f3f3 	udiv	r3, r1, r3
 8008a32:	b29b      	uxth	r3, r3
 8008a34:	e789      	b.n	800894a <UART_SetConfig+0x592>
 8008a36:	a803      	add	r0, sp, #12
 8008a38:	f7fd ff52 	bl	80068e0 <HAL_RCCEx_GetPLL3ClockFreq>
 8008a3c:	6a62      	ldr	r2, [r4, #36]	; 0x24
 8008a3e:	9b04      	ldr	r3, [sp, #16]
 8008a40:	2a00      	cmp	r2, #0
 8008a42:	f43f af7b 	beq.w	800893c <UART_SetConfig+0x584>
 8008a46:	2a01      	cmp	r2, #1
 8008a48:	f000 81fe 	beq.w	8008e48 <UART_SetConfig+0xa90>
 8008a4c:	2a02      	cmp	r2, #2
 8008a4e:	f000 8094 	beq.w	8008b7a <UART_SetConfig+0x7c2>
 8008a52:	2a03      	cmp	r2, #3
 8008a54:	f000 808e 	beq.w	8008b74 <UART_SetConfig+0x7bc>
 8008a58:	2a04      	cmp	r2, #4
 8008a5a:	f000 8279 	beq.w	8008f50 <UART_SetConfig+0xb98>
 8008a5e:	2a05      	cmp	r2, #5
 8008a60:	f000 8273 	beq.w	8008f4a <UART_SetConfig+0xb92>
 8008a64:	2a06      	cmp	r2, #6
 8008a66:	f000 83b2 	beq.w	80091ce <UART_SetConfig+0xe16>
 8008a6a:	2a07      	cmp	r2, #7
 8008a6c:	f000 83d0 	beq.w	8009210 <UART_SetConfig+0xe58>
 8008a70:	2a08      	cmp	r2, #8
 8008a72:	f000 8422 	beq.w	80092ba <UART_SetConfig+0xf02>
 8008a76:	2a09      	cmp	r2, #9
 8008a78:	f000 845b 	beq.w	8009332 <UART_SetConfig+0xf7a>
 8008a7c:	2a0a      	cmp	r2, #10
 8008a7e:	f000 84a3 	beq.w	80093c8 <UART_SetConfig+0x1010>
 8008a82:	2a0b      	cmp	r2, #11
 8008a84:	f47f af5a 	bne.w	800893c <UART_SetConfig+0x584>
 8008a88:	0a1b      	lsrs	r3, r3, #8
 8008a8a:	e757      	b.n	800893c <UART_SetConfig+0x584>
 8008a8c:	4668      	mov	r0, sp
 8008a8e:	f7fd fe8f 	bl	80067b0 <HAL_RCCEx_GetPLL2ClockFreq>
 8008a92:	6a62      	ldr	r2, [r4, #36]	; 0x24
 8008a94:	9b01      	ldr	r3, [sp, #4]
 8008a96:	2a00      	cmp	r2, #0
 8008a98:	f43f af50 	beq.w	800893c <UART_SetConfig+0x584>
 8008a9c:	e7d3      	b.n	8008a46 <UART_SetConfig+0x68e>
 8008a9e:	f7fc fe07 	bl	80056b0 <HAL_RCC_GetPCLK2Freq>
 8008aa2:	6a62      	ldr	r2, [r4, #36]	; 0x24
 8008aa4:	4603      	mov	r3, r0
 8008aa6:	2a00      	cmp	r2, #0
 8008aa8:	f43f af48 	beq.w	800893c <UART_SetConfig+0x584>
 8008aac:	e7cb      	b.n	8008a46 <UART_SetConfig+0x68e>
 8008aae:	f7fc fde3 	bl	8005678 <HAL_RCC_GetPCLK1Freq>
 8008ab2:	6a62      	ldr	r2, [r4, #36]	; 0x24
 8008ab4:	4603      	mov	r3, r0
 8008ab6:	2a00      	cmp	r2, #0
 8008ab8:	f43f af40 	beq.w	800893c <UART_SetConfig+0x584>
 8008abc:	e7c3      	b.n	8008a46 <UART_SetConfig+0x68e>
 8008abe:	f640 313c 	movw	r1, #2876	; 0xb3c
 8008ac2:	4898      	ldr	r0, [pc, #608]	; (8008d24 <UART_SetConfig+0x96c>)
 8008ac4:	f7f8 f9ec 	bl	8000ea0 <assert_failed>
 8008ac8:	e491      	b.n	80083ee <UART_SetConfig+0x36>
 8008aca:	4b97      	ldr	r3, [pc, #604]	; (8008d28 <UART_SetConfig+0x970>)
 8008acc:	e736      	b.n	800893c <UART_SetConfig+0x584>
 8008ace:	f44f 4300 	mov.w	r3, #32768	; 0x8000
 8008ad2:	e733      	b.n	800893c <UART_SetConfig+0x584>
 8008ad4:	681a      	ldr	r2, [r3, #0]
 8008ad6:	4b91      	ldr	r3, [pc, #580]	; (8008d1c <UART_SetConfig+0x964>)
 8008ad8:	f3c2 02c1 	ubfx	r2, r2, #3, #2
 8008adc:	40d3      	lsrs	r3, r2
 8008ade:	2900      	cmp	r1, #0
 8008ae0:	f43f af2c 	beq.w	800893c <UART_SetConfig+0x584>
 8008ae4:	2901      	cmp	r1, #1
 8008ae6:	f000 81af 	beq.w	8008e48 <UART_SetConfig+0xa90>
 8008aea:	2902      	cmp	r1, #2
 8008aec:	d045      	beq.n	8008b7a <UART_SetConfig+0x7c2>
 8008aee:	2903      	cmp	r1, #3
 8008af0:	d040      	beq.n	8008b74 <UART_SetConfig+0x7bc>
 8008af2:	2904      	cmp	r1, #4
 8008af4:	f000 822c 	beq.w	8008f50 <UART_SetConfig+0xb98>
 8008af8:	2905      	cmp	r1, #5
 8008afa:	f000 846b 	beq.w	80093d4 <UART_SetConfig+0x101c>
 8008afe:	2906      	cmp	r1, #6
 8008b00:	f000 8491 	beq.w	8009426 <UART_SetConfig+0x106e>
 8008b04:	2907      	cmp	r1, #7
 8008b06:	f000 8383 	beq.w	8009210 <UART_SetConfig+0xe58>
 8008b0a:	2908      	cmp	r1, #8
 8008b0c:	f000 83d5 	beq.w	80092ba <UART_SetConfig+0xf02>
 8008b10:	2909      	cmp	r1, #9
 8008b12:	f000 840e 	beq.w	8009332 <UART_SetConfig+0xf7a>
 8008b16:	290a      	cmp	r1, #10
 8008b18:	f000 8456 	beq.w	80093c8 <UART_SetConfig+0x1010>
 8008b1c:	290b      	cmp	r1, #11
 8008b1e:	f47f af0d 	bne.w	800893c <UART_SetConfig+0x584>
 8008b22:	e7b1      	b.n	8008a88 <UART_SetConfig+0x6d0>
 8008b24:	2900      	cmp	r1, #0
 8008b26:	f000 81e3 	beq.w	8008ef0 <UART_SetConfig+0xb38>
 8008b2a:	2901      	cmp	r1, #1
 8008b2c:	f000 82a3 	beq.w	8009076 <UART_SetConfig+0xcbe>
 8008b30:	2902      	cmp	r1, #2
 8008b32:	f000 8347 	beq.w	80091c4 <UART_SetConfig+0xe0c>
 8008b36:	2903      	cmp	r1, #3
 8008b38:	f000 8375 	beq.w	8009226 <UART_SetConfig+0xe6e>
 8008b3c:	2904      	cmp	r1, #4
 8008b3e:	f000 83bf 	beq.w	80092c0 <UART_SetConfig+0xf08>
 8008b42:	2905      	cmp	r1, #5
 8008b44:	f000 83fc 	beq.w	8009340 <UART_SetConfig+0xf88>
 8008b48:	2906      	cmp	r1, #6
 8008b4a:	f000 8440 	beq.w	80093ce <UART_SetConfig+0x1016>
 8008b4e:	2907      	cmp	r1, #7
 8008b50:	f000 8466 	beq.w	8009420 <UART_SetConfig+0x1068>
 8008b54:	2908      	cmp	r1, #8
 8008b56:	f000 84b1 	beq.w	80094bc <UART_SetConfig+0x1104>
 8008b5a:	2909      	cmp	r1, #9
 8008b5c:	f000 8532 	beq.w	80095c4 <UART_SetConfig+0x120c>
 8008b60:	290a      	cmp	r1, #10
 8008b62:	f000 857b 	beq.w	800965c <UART_SetConfig+0x12a4>
 8008b66:	4870      	ldr	r0, [pc, #448]	; (8008d28 <UART_SetConfig+0x970>)
 8008b68:	f643 5309 	movw	r3, #15625	; 0x3d09
 8008b6c:	290b      	cmp	r1, #11
 8008b6e:	bf08      	it	eq
 8008b70:	4618      	moveq	r0, r3
 8008b72:	e5c2      	b.n	80086fa <UART_SetConfig+0x342>
 8008b74:	4a6d      	ldr	r2, [pc, #436]	; (8008d2c <UART_SetConfig+0x974>)
 8008b76:	fba2 2303 	umull	r2, r3, r2, r3
 8008b7a:	089b      	lsrs	r3, r3, #2
 8008b7c:	e6de      	b.n	800893c <UART_SetConfig+0x584>
 8008b7e:	2900      	cmp	r1, #0
 8008b80:	f000 8211 	beq.w	8008fa6 <UART_SetConfig+0xbee>
 8008b84:	2901      	cmp	r1, #1
 8008b86:	f000 8318 	beq.w	80091ba <UART_SetConfig+0xe02>
 8008b8a:	2902      	cmp	r1, #2
 8008b8c:	f000 8348 	beq.w	8009220 <UART_SetConfig+0xe68>
 8008b90:	2903      	cmp	r1, #3
 8008b92:	f000 839a 	beq.w	80092ca <UART_SetConfig+0xf12>
 8008b96:	2904      	cmp	r1, #4
 8008b98:	f000 83c4 	beq.w	8009324 <UART_SetConfig+0xf6c>
 8008b9c:	2905      	cmp	r1, #5
 8008b9e:	f000 8402 	beq.w	80093a6 <UART_SetConfig+0xfee>
 8008ba2:	2906      	cmp	r1, #6
 8008ba4:	f000 8463 	beq.w	800946e <UART_SetConfig+0x10b6>
 8008ba8:	2907      	cmp	r1, #7
 8008baa:	f000 84d6 	beq.w	800955a <UART_SetConfig+0x11a2>
 8008bae:	2908      	cmp	r1, #8
 8008bb0:	f000 84e3 	beq.w	800957a <UART_SetConfig+0x11c2>
 8008bb4:	2909      	cmp	r1, #9
 8008bb6:	f000 8547 	beq.w	8009648 <UART_SetConfig+0x1290>
 8008bba:	290a      	cmp	r1, #10
 8008bbc:	f000 8594 	beq.w	80096e8 <UART_SetConfig+0x1330>
 8008bc0:	290b      	cmp	r1, #11
 8008bc2:	bf14      	ite	ne
 8008bc4:	f44f 3380 	movne.w	r3, #65536	; 0x10000
 8008bc8:	f44f 7380 	moveq.w	r3, #256	; 0x100
 8008bcc:	6862      	ldr	r2, [r4, #4]
 8008bce:	eb03 0352 	add.w	r3, r3, r2, lsr #1
 8008bd2:	fbb3 f3f2 	udiv	r3, r3, r2
 8008bd6:	b29b      	uxth	r3, r3
 8008bd8:	f1a3 0110 	sub.w	r1, r3, #16
 8008bdc:	f64f 72ef 	movw	r2, #65519	; 0xffef
 8008be0:	4291      	cmp	r1, r2
 8008be2:	f63f ad0e 	bhi.w	8008602 <UART_SetConfig+0x24a>
 8008be6:	f023 020f 	bic.w	r2, r3, #15
 8008bea:	f3c3 0342 	ubfx	r3, r3, #1, #3
 8008bee:	6821      	ldr	r1, [r4, #0]
 8008bf0:	2000      	movs	r0, #0
 8008bf2:	4313      	orrs	r3, r2
 8008bf4:	60cb      	str	r3, [r1, #12]
 8008bf6:	e505      	b.n	8008604 <UART_SetConfig+0x24c>
 8008bf8:	f7fc fd5a 	bl	80056b0 <HAL_RCC_GetPCLK2Freq>
 8008bfc:	6a63      	ldr	r3, [r4, #36]	; 0x24
 8008bfe:	b303      	cbz	r3, 8008c42 <UART_SetConfig+0x88a>
 8008c00:	2b01      	cmp	r3, #1
 8008c02:	f000 822d 	beq.w	8009060 <UART_SetConfig+0xca8>
 8008c06:	2b02      	cmp	r3, #2
 8008c08:	f000 823c 	beq.w	8009084 <UART_SetConfig+0xccc>
 8008c0c:	2b03      	cmp	r3, #3
 8008c0e:	f000 82e8 	beq.w	80091e2 <UART_SetConfig+0xe2a>
 8008c12:	2b04      	cmp	r3, #4
 8008c14:	f000 8316 	beq.w	8009244 <UART_SetConfig+0xe8c>
 8008c18:	2b05      	cmp	r3, #5
 8008c1a:	f000 8365 	beq.w	80092e8 <UART_SetConfig+0xf30>
 8008c1e:	2b06      	cmp	r3, #6
 8008c20:	f000 8394 	beq.w	800934c <UART_SetConfig+0xf94>
 8008c24:	2b07      	cmp	r3, #7
 8008c26:	f000 83e0 	beq.w	80093ea <UART_SetConfig+0x1032>
 8008c2a:	2b08      	cmp	r3, #8
 8008c2c:	f000 841c 	beq.w	8009468 <UART_SetConfig+0x10b0>
 8008c30:	2b09      	cmp	r3, #9
 8008c32:	f000 8440 	beq.w	80094b6 <UART_SetConfig+0x10fe>
 8008c36:	2b0a      	cmp	r3, #10
 8008c38:	f000 84f9 	beq.w	800962e <UART_SetConfig+0x1276>
 8008c3c:	2b0b      	cmp	r3, #11
 8008c3e:	bf08      	it	eq
 8008c40:	0a00      	lsreq	r0, r0, #8
 8008c42:	6862      	ldr	r2, [r4, #4]
 8008c44:	0853      	lsrs	r3, r2, #1
 8008c46:	eb03 0340 	add.w	r3, r3, r0, lsl #1
 8008c4a:	fbb3 f3f2 	udiv	r3, r3, r2
 8008c4e:	b29b      	uxth	r3, r3
 8008c50:	e7c2      	b.n	8008bd8 <UART_SetConfig+0x820>
 8008c52:	2900      	cmp	r1, #0
 8008c54:	f000 817e 	beq.w	8008f54 <UART_SetConfig+0xb9c>
 8008c58:	2901      	cmp	r1, #1
 8008c5a:	f000 82b1 	beq.w	80091c0 <UART_SetConfig+0xe08>
 8008c5e:	2902      	cmp	r1, #2
 8008c60:	f000 82dc 	beq.w	800921c <UART_SetConfig+0xe64>
 8008c64:	2903      	cmp	r1, #3
 8008c66:	f000 832e 	beq.w	80092c6 <UART_SetConfig+0xf0e>
 8008c6a:	2904      	cmp	r1, #4
 8008c6c:	f000 8358 	beq.w	8009320 <UART_SetConfig+0xf68>
 8008c70:	2905      	cmp	r1, #5
 8008c72:	f000 8396 	beq.w	80093a2 <UART_SetConfig+0xfea>
 8008c76:	2906      	cmp	r1, #6
 8008c78:	f000 83e7 	beq.w	800944a <UART_SetConfig+0x1092>
 8008c7c:	2907      	cmp	r1, #7
 8008c7e:	f000 8469 	beq.w	8009554 <UART_SetConfig+0x119c>
 8008c82:	2908      	cmp	r1, #8
 8008c84:	f000 84a9 	beq.w	80095da <UART_SetConfig+0x1222>
 8008c88:	2909      	cmp	r1, #9
 8008c8a:	f000 84da 	beq.w	8009642 <UART_SetConfig+0x128a>
 8008c8e:	290a      	cmp	r1, #10
 8008c90:	f000 84eb 	beq.w	800966a <UART_SetConfig+0x12b2>
 8008c94:	4b26      	ldr	r3, [pc, #152]	; (8008d30 <UART_SetConfig+0x978>)
 8008c96:	f647 2212 	movw	r2, #31250	; 0x7a12
 8008c9a:	290b      	cmp	r1, #11
 8008c9c:	bf14      	ite	ne
 8008c9e:	4619      	movne	r1, r3
 8008ca0:	4611      	moveq	r1, r2
 8008ca2:	6863      	ldr	r3, [r4, #4]
 8008ca4:	eb01 0153 	add.w	r1, r1, r3, lsr #1
 8008ca8:	fbb1 f3f3 	udiv	r3, r1, r3
 8008cac:	b29b      	uxth	r3, r3
 8008cae:	e793      	b.n	8008bd8 <UART_SetConfig+0x820>
 8008cb0:	4b19      	ldr	r3, [pc, #100]	; (8008d18 <UART_SetConfig+0x960>)
 8008cb2:	681a      	ldr	r2, [r3, #0]
 8008cb4:	0690      	lsls	r0, r2, #26
 8008cb6:	f140 814f 	bpl.w	8008f58 <UART_SetConfig+0xba0>
 8008cba:	681a      	ldr	r2, [r3, #0]
 8008cbc:	4b17      	ldr	r3, [pc, #92]	; (8008d1c <UART_SetConfig+0x964>)
 8008cbe:	f3c2 02c1 	ubfx	r2, r2, #3, #2
 8008cc2:	fa23 f202 	lsr.w	r2, r3, r2
 8008cc6:	b1f9      	cbz	r1, 8008d08 <UART_SetConfig+0x950>
 8008cc8:	2901      	cmp	r1, #1
 8008cca:	f000 81bb 	beq.w	8009044 <UART_SetConfig+0xc8c>
 8008cce:	2902      	cmp	r1, #2
 8008cd0:	f000 81cd 	beq.w	800906e <UART_SetConfig+0xcb6>
 8008cd4:	2903      	cmp	r1, #3
 8008cd6:	f000 826b 	beq.w	80091b0 <UART_SetConfig+0xdf8>
 8008cda:	2904      	cmp	r1, #4
 8008cdc:	f000 8293 	beq.w	8009206 <UART_SetConfig+0xe4e>
 8008ce0:	2905      	cmp	r1, #5
 8008ce2:	f000 83dd 	beq.w	80094a0 <UART_SetConfig+0x10e8>
 8008ce6:	2906      	cmp	r1, #6
 8008ce8:	f000 831f 	beq.w	800932a <UART_SetConfig+0xf72>
 8008cec:	2907      	cmp	r1, #7
 8008cee:	f000 835d 	beq.w	80093ac <UART_SetConfig+0xff4>
 8008cf2:	2908      	cmp	r1, #8
 8008cf4:	f000 8385 	beq.w	8009402 <UART_SetConfig+0x104a>
 8008cf8:	2909      	cmp	r1, #9
 8008cfa:	f000 83c8 	beq.w	800948e <UART_SetConfig+0x10d6>
 8008cfe:	290a      	cmp	r1, #10
 8008d00:	f000 8443 	beq.w	800958a <UART_SetConfig+0x11d2>
 8008d04:	290b      	cmp	r1, #11
 8008d06:	d03c      	beq.n	8008d82 <UART_SetConfig+0x9ca>
 8008d08:	6861      	ldr	r1, [r4, #4]
 8008d0a:	084b      	lsrs	r3, r1, #1
 8008d0c:	eb03 0342 	add.w	r3, r3, r2, lsl #1
 8008d10:	fbb3 f3f1 	udiv	r3, r3, r1
 8008d14:	b29b      	uxth	r3, r3
 8008d16:	e75f      	b.n	8008bd8 <UART_SetConfig+0x820>
 8008d18:	58024400 	.word	0x58024400
 8008d1c:	03d09000 	.word	0x03d09000
 8008d20:	0003d090 	.word	0x0003d090
 8008d24:	0800d26c 	.word	0x0800d26c
 8008d28:	003d0900 	.word	0x003d0900
 8008d2c:	aaaaaaab 	.word	0xaaaaaaab
 8008d30:	007a1200 	.word	0x007a1200
 8008d34:	a803      	add	r0, sp, #12
 8008d36:	f7fd fdd3 	bl	80068e0 <HAL_RCCEx_GetPLL3ClockFreq>
 8008d3a:	6a63      	ldr	r3, [r4, #36]	; 0x24
 8008d3c:	9a04      	ldr	r2, [sp, #16]
 8008d3e:	2b00      	cmp	r3, #0
 8008d40:	d0e2      	beq.n	8008d08 <UART_SetConfig+0x950>
 8008d42:	2b01      	cmp	r3, #1
 8008d44:	f000 817e 	beq.w	8009044 <UART_SetConfig+0xc8c>
 8008d48:	2b02      	cmp	r3, #2
 8008d4a:	f000 8190 	beq.w	800906e <UART_SetConfig+0xcb6>
 8008d4e:	2b03      	cmp	r3, #3
 8008d50:	f000 822e 	beq.w	80091b0 <UART_SetConfig+0xdf8>
 8008d54:	2b04      	cmp	r3, #4
 8008d56:	f000 8256 	beq.w	8009206 <UART_SetConfig+0xe4e>
 8008d5a:	2b05      	cmp	r3, #5
 8008d5c:	f000 82bf 	beq.w	80092de <UART_SetConfig+0xf26>
 8008d60:	2b06      	cmp	r3, #6
 8008d62:	f000 82e2 	beq.w	800932a <UART_SetConfig+0xf72>
 8008d66:	2b07      	cmp	r3, #7
 8008d68:	f000 8320 	beq.w	80093ac <UART_SetConfig+0xff4>
 8008d6c:	2b08      	cmp	r3, #8
 8008d6e:	f000 8348 	beq.w	8009402 <UART_SetConfig+0x104a>
 8008d72:	2b09      	cmp	r3, #9
 8008d74:	f000 838b 	beq.w	800948e <UART_SetConfig+0x10d6>
 8008d78:	2b0a      	cmp	r3, #10
 8008d7a:	f000 8406 	beq.w	800958a <UART_SetConfig+0x11d2>
 8008d7e:	2b0b      	cmp	r3, #11
 8008d80:	d1c2      	bne.n	8008d08 <UART_SetConfig+0x950>
 8008d82:	0a12      	lsrs	r2, r2, #8
 8008d84:	e7c0      	b.n	8008d08 <UART_SetConfig+0x950>
 8008d86:	4668      	mov	r0, sp
 8008d88:	f7fd fd12 	bl	80067b0 <HAL_RCCEx_GetPLL2ClockFreq>
 8008d8c:	6a63      	ldr	r3, [r4, #36]	; 0x24
 8008d8e:	9a01      	ldr	r2, [sp, #4]
 8008d90:	2b00      	cmp	r3, #0
 8008d92:	d0b9      	beq.n	8008d08 <UART_SetConfig+0x950>
 8008d94:	e7d5      	b.n	8008d42 <UART_SetConfig+0x98a>
 8008d96:	f7fc fc6f 	bl	8005678 <HAL_RCC_GetPCLK1Freq>
 8008d9a:	6a63      	ldr	r3, [r4, #36]	; 0x24
 8008d9c:	2b00      	cmp	r3, #0
 8008d9e:	f43f af50 	beq.w	8008c42 <UART_SetConfig+0x88a>
 8008da2:	e72d      	b.n	8008c00 <UART_SetConfig+0x848>
 8008da4:	4bc0      	ldr	r3, [pc, #768]	; (80090a8 <UART_SetConfig+0xcf0>)
 8008da6:	6d5b      	ldr	r3, [r3, #84]	; 0x54
 8008da8:	f003 0307 	and.w	r3, r3, #7
 8008dac:	2b05      	cmp	r3, #5
 8008dae:	f63f ac28 	bhi.w	8008602 <UART_SetConfig+0x24a>
 8008db2:	4abe      	ldr	r2, [pc, #760]	; (80090ac <UART_SetConfig+0xcf4>)
 8008db4:	5cd3      	ldrb	r3, [r2, r3]
 8008db6:	f7ff bbb2 	b.w	800851e <UART_SetConfig+0x166>
 8008dba:	4bbb      	ldr	r3, [pc, #748]	; (80090a8 <UART_SetConfig+0xcf0>)
 8008dbc:	6d5b      	ldr	r3, [r3, #84]	; 0x54
 8008dbe:	f003 0307 	and.w	r3, r3, #7
 8008dc2:	2b05      	cmp	r3, #5
 8008dc4:	f63f ac1d 	bhi.w	8008602 <UART_SetConfig+0x24a>
 8008dc8:	4ab9      	ldr	r2, [pc, #740]	; (80090b0 <UART_SetConfig+0xcf8>)
 8008dca:	5cd3      	ldrb	r3, [r2, r3]
 8008dcc:	f7ff bba7 	b.w	800851e <UART_SetConfig+0x166>
 8008dd0:	4bb5      	ldr	r3, [pc, #724]	; (80090a8 <UART_SetConfig+0xcf0>)
 8008dd2:	6d5b      	ldr	r3, [r3, #84]	; 0x54
 8008dd4:	f003 0338 	and.w	r3, r3, #56	; 0x38
 8008dd8:	2b28      	cmp	r3, #40	; 0x28
 8008dda:	f63f ac12 	bhi.w	8008602 <UART_SetConfig+0x24a>
 8008dde:	4ab5      	ldr	r2, [pc, #724]	; (80090b4 <UART_SetConfig+0xcfc>)
 8008de0:	5cd3      	ldrb	r3, [r2, r3]
 8008de2:	f7ff bb9c 	b.w	800851e <UART_SetConfig+0x166>
 8008de6:	2d02      	cmp	r5, #2
 8008de8:	d030      	beq.n	8008e4c <UART_SetConfig+0xa94>
 8008dea:	2d04      	cmp	r5, #4
 8008dec:	f47f ac09 	bne.w	8008602 <UART_SetConfig+0x24a>
 8008df0:	4668      	mov	r0, sp
 8008df2:	f7fd fcdd 	bl	80067b0 <HAL_RCCEx_GetPLL2ClockFreq>
 8008df6:	6a63      	ldr	r3, [r4, #36]	; 0x24
 8008df8:	9801      	ldr	r0, [sp, #4]
 8008dfa:	b1e3      	cbz	r3, 8008e36 <UART_SetConfig+0xa7e>
 8008dfc:	2b01      	cmp	r3, #1
 8008dfe:	d072      	beq.n	8008ee6 <UART_SetConfig+0xb2e>
 8008e00:	2b02      	cmp	r3, #2
 8008e02:	d06b      	beq.n	8008edc <UART_SetConfig+0xb24>
 8008e04:	2b03      	cmp	r3, #3
 8008e06:	d066      	beq.n	8008ed6 <UART_SetConfig+0xb1e>
 8008e08:	2b04      	cmp	r3, #4
 8008e0a:	f000 8123 	beq.w	8009054 <UART_SetConfig+0xc9c>
 8008e0e:	2b05      	cmp	r3, #5
 8008e10:	f000 811d 	beq.w	800904e <UART_SetConfig+0xc96>
 8008e14:	2b06      	cmp	r3, #6
 8008e16:	f000 8243 	beq.w	80092a0 <UART_SetConfig+0xee8>
 8008e1a:	2b07      	cmp	r3, #7
 8008e1c:	f000 8270 	beq.w	8009300 <UART_SetConfig+0xf48>
 8008e20:	2b08      	cmp	r3, #8
 8008e22:	f000 82a7 	beq.w	8009374 <UART_SetConfig+0xfbc>
 8008e26:	2b09      	cmp	r3, #9
 8008e28:	f000 82d9 	beq.w	80093de <UART_SetConfig+0x1026>
 8008e2c:	2b0a      	cmp	r3, #10
 8008e2e:	f000 8315 	beq.w	800945c <UART_SetConfig+0x10a4>
 8008e32:	2b0b      	cmp	r3, #11
 8008e34:	d003      	beq.n	8008e3e <UART_SetConfig+0xa86>
 8008e36:	2800      	cmp	r0, #0
 8008e38:	f43f abe4 	beq.w	8008604 <UART_SetConfig+0x24c>
 8008e3c:	e45d      	b.n	80086fa <UART_SetConfig+0x342>
 8008e3e:	0a00      	lsrs	r0, r0, #8
 8008e40:	2800      	cmp	r0, #0
 8008e42:	f43f abdf 	beq.w	8008604 <UART_SetConfig+0x24c>
 8008e46:	e458      	b.n	80086fa <UART_SetConfig+0x342>
 8008e48:	085b      	lsrs	r3, r3, #1
 8008e4a:	e577      	b.n	800893c <UART_SetConfig+0x584>
 8008e4c:	f7fd fc9e 	bl	800678c <HAL_RCCEx_GetD3PCLK1Freq>
 8008e50:	6a63      	ldr	r3, [r4, #36]	; 0x24
 8008e52:	2b00      	cmp	r3, #0
 8008e54:	d1d2      	bne.n	8008dfc <UART_SetConfig+0xa44>
 8008e56:	2800      	cmp	r0, #0
 8008e58:	f43f abd4 	beq.w	8008604 <UART_SetConfig+0x24c>
 8008e5c:	e44d      	b.n	80086fa <UART_SetConfig+0x342>
 8008e5e:	a803      	add	r0, sp, #12
 8008e60:	f7fd fd3e 	bl	80068e0 <HAL_RCCEx_GetPLL3ClockFreq>
 8008e64:	6a63      	ldr	r3, [r4, #36]	; 0x24
 8008e66:	9804      	ldr	r0, [sp, #16]
 8008e68:	2b00      	cmp	r3, #0
 8008e6a:	d1c7      	bne.n	8008dfc <UART_SetConfig+0xa44>
 8008e6c:	2800      	cmp	r0, #0
 8008e6e:	f43f abc9 	beq.w	8008604 <UART_SetConfig+0x24c>
 8008e72:	e442      	b.n	80086fa <UART_SetConfig+0x342>
 8008e74:	2900      	cmp	r1, #0
 8008e76:	d03d      	beq.n	8008ef4 <UART_SetConfig+0xb3c>
 8008e78:	2901      	cmp	r1, #1
 8008e7a:	f000 80ff 	beq.w	800907c <UART_SetConfig+0xcc4>
 8008e7e:	2902      	cmp	r1, #2
 8008e80:	f000 81ab 	beq.w	80091da <UART_SetConfig+0xe22>
 8008e84:	2903      	cmp	r1, #3
 8008e86:	f000 81d1 	beq.w	800922c <UART_SetConfig+0xe74>
 8008e8a:	2904      	cmp	r1, #4
 8008e8c:	f000 8223 	beq.w	80092d6 <UART_SetConfig+0xf1e>
 8008e90:	2905      	cmp	r1, #5
 8008e92:	f000 8251 	beq.w	8009338 <UART_SetConfig+0xf80>
 8008e96:	2906      	cmp	r1, #6
 8008e98:	f000 828f 	beq.w	80093ba <UART_SetConfig+0x1002>
 8008e9c:	2907      	cmp	r1, #7
 8008e9e:	f000 82d0 	beq.w	8009442 <UART_SetConfig+0x108a>
 8008ea2:	2908      	cmp	r1, #8
 8008ea4:	f000 8303 	beq.w	80094ae <UART_SetConfig+0x10f6>
 8008ea8:	2909      	cmp	r1, #9
 8008eaa:	f000 83a1 	beq.w	80095f0 <UART_SetConfig+0x1238>
 8008eae:	290a      	cmp	r1, #10
 8008eb0:	f000 83a6 	beq.w	8009600 <UART_SetConfig+0x1248>
 8008eb4:	290b      	cmp	r1, #11
 8008eb6:	bf14      	ite	ne
 8008eb8:	f44f 4000 	movne.w	r0, #32768	; 0x8000
 8008ebc:	2080      	moveq	r0, #128	; 0x80
 8008ebe:	e41c      	b.n	80086fa <UART_SetConfig+0x342>
 8008ec0:	4b79      	ldr	r3, [pc, #484]	; (80090a8 <UART_SetConfig+0xcf0>)
 8008ec2:	6d5b      	ldr	r3, [r3, #84]	; 0x54
 8008ec4:	f003 0307 	and.w	r3, r3, #7
 8008ec8:	2b05      	cmp	r3, #5
 8008eca:	f63f ab9a 	bhi.w	8008602 <UART_SetConfig+0x24a>
 8008ece:	4a7a      	ldr	r2, [pc, #488]	; (80090b8 <UART_SetConfig+0xd00>)
 8008ed0:	5cd3      	ldrb	r3, [r2, r3]
 8008ed2:	f7ff bb24 	b.w	800851e <UART_SetConfig+0x166>
 8008ed6:	4b79      	ldr	r3, [pc, #484]	; (80090bc <UART_SetConfig+0xd04>)
 8008ed8:	fba3 3000 	umull	r3, r0, r3, r0
 8008edc:	0880      	lsrs	r0, r0, #2
 8008ede:	2800      	cmp	r0, #0
 8008ee0:	f43f ab90 	beq.w	8008604 <UART_SetConfig+0x24c>
 8008ee4:	e409      	b.n	80086fa <UART_SetConfig+0x342>
 8008ee6:	0840      	lsrs	r0, r0, #1
 8008ee8:	2800      	cmp	r0, #0
 8008eea:	f43f ab8b 	beq.w	8008604 <UART_SetConfig+0x24c>
 8008eee:	e404      	b.n	80086fa <UART_SetConfig+0x342>
 8008ef0:	4873      	ldr	r0, [pc, #460]	; (80090c0 <UART_SetConfig+0xd08>)
 8008ef2:	e402      	b.n	80086fa <UART_SetConfig+0x342>
 8008ef4:	f44f 4000 	mov.w	r0, #32768	; 0x8000
 8008ef8:	f7ff bbff 	b.w	80086fa <UART_SetConfig+0x342>
 8008efc:	2900      	cmp	r1, #0
 8008efe:	f000 80a3 	beq.w	8009048 <UART_SetConfig+0xc90>
 8008f02:	2901      	cmp	r1, #1
 8008f04:	f000 8181 	beq.w	800920a <UART_SetConfig+0xe52>
 8008f08:	2902      	cmp	r1, #2
 8008f0a:	f000 81d3 	beq.w	80092b4 <UART_SetConfig+0xefc>
 8008f0e:	2903      	cmp	r1, #3
 8008f10:	f000 8203 	beq.w	800931a <UART_SetConfig+0xf62>
 8008f14:	2904      	cmp	r1, #4
 8008f16:	f000 8238 	beq.w	800938a <UART_SetConfig+0xfd2>
 8008f1a:	2905      	cmp	r1, #5
 8008f1c:	f000 8273 	beq.w	8009406 <UART_SetConfig+0x104e>
 8008f20:	2906      	cmp	r1, #6
 8008f22:	f000 82c1 	beq.w	80094a8 <UART_SetConfig+0x10f0>
 8008f26:	2907      	cmp	r1, #7
 8008f28:	d0e2      	beq.n	8008ef0 <UART_SetConfig+0xb38>
 8008f2a:	2908      	cmp	r1, #8
 8008f2c:	f000 80a3 	beq.w	8009076 <UART_SetConfig+0xcbe>
 8008f30:	2909      	cmp	r1, #9
 8008f32:	f000 8147 	beq.w	80091c4 <UART_SetConfig+0xe0c>
 8008f36:	290a      	cmp	r1, #10
 8008f38:	f000 81c2 	beq.w	80092c0 <UART_SetConfig+0xf08>
 8008f3c:	4861      	ldr	r0, [pc, #388]	; (80090c4 <UART_SetConfig+0xd0c>)
 8008f3e:	4b62      	ldr	r3, [pc, #392]	; (80090c8 <UART_SetConfig+0xd10>)
 8008f40:	290b      	cmp	r1, #11
 8008f42:	bf08      	it	eq
 8008f44:	4618      	moveq	r0, r3
 8008f46:	f7ff bbd8 	b.w	80086fa <UART_SetConfig+0x342>
 8008f4a:	4a60      	ldr	r2, [pc, #384]	; (80090cc <UART_SetConfig+0xd14>)
 8008f4c:	fba2 2303 	umull	r2, r3, r2, r3
 8008f50:	08db      	lsrs	r3, r3, #3
 8008f52:	e4f3      	b.n	800893c <UART_SetConfig+0x584>
 8008f54:	495e      	ldr	r1, [pc, #376]	; (80090d0 <UART_SetConfig+0xd18>)
 8008f56:	e6a4      	b.n	8008ca2 <UART_SetConfig+0x8ea>
 8008f58:	2900      	cmp	r1, #0
 8008f5a:	f000 808a 	beq.w	8009072 <UART_SetConfig+0xcba>
 8008f5e:	2901      	cmp	r1, #1
 8008f60:	f000 81a6 	beq.w	80092b0 <UART_SetConfig+0xef8>
 8008f64:	2902      	cmp	r1, #2
 8008f66:	f000 81d6 	beq.w	8009316 <UART_SetConfig+0xf5e>
 8008f6a:	2903      	cmp	r1, #3
 8008f6c:	f000 820b 	beq.w	8009386 <UART_SetConfig+0xfce>
 8008f70:	2904      	cmp	r1, #4
 8008f72:	f000 8243 	beq.w	80093fc <UART_SetConfig+0x1044>
 8008f76:	2905      	cmp	r1, #5
 8008f78:	f000 828b 	beq.w	8009492 <UART_SetConfig+0x10da>
 8008f7c:	2906      	cmp	r1, #6
 8008f7e:	f000 831e 	beq.w	80095be <UART_SetConfig+0x1206>
 8008f82:	2907      	cmp	r1, #7
 8008f84:	f000 834d 	beq.w	8009622 <UART_SetConfig+0x126a>
 8008f88:	2908      	cmp	r1, #8
 8008f8a:	f000 8375 	beq.w	8009678 <UART_SetConfig+0x12c0>
 8008f8e:	2909      	cmp	r1, #9
 8008f90:	f000 836f 	beq.w	8009672 <UART_SetConfig+0x12ba>
 8008f94:	290a      	cmp	r1, #10
 8008f96:	f000 83ab 	beq.w	80096f0 <UART_SetConfig+0x1338>
 8008f9a:	4b4e      	ldr	r3, [pc, #312]	; (80090d4 <UART_SetConfig+0xd1c>)
 8008f9c:	4a4e      	ldr	r2, [pc, #312]	; (80090d8 <UART_SetConfig+0xd20>)
 8008f9e:	290b      	cmp	r1, #11
 8008fa0:	bf08      	it	eq
 8008fa2:	4613      	moveq	r3, r2
 8008fa4:	e612      	b.n	8008bcc <UART_SetConfig+0x814>
 8008fa6:	f44f 3380 	mov.w	r3, #65536	; 0x10000
 8008faa:	e60f      	b.n	8008bcc <UART_SetConfig+0x814>
 8008fac:	2d02      	cmp	r5, #2
 8008fae:	f000 80cd 	beq.w	800914c <UART_SetConfig+0xd94>
 8008fb2:	2d04      	cmp	r5, #4
 8008fb4:	f47f ab25 	bne.w	8008602 <UART_SetConfig+0x24a>
 8008fb8:	4668      	mov	r0, sp
 8008fba:	f04f 0900 	mov.w	r9, #0
 8008fbe:	f7fd fbf7 	bl	80067b0 <HAL_RCCEx_GetPLL2ClockFreq>
 8008fc2:	9a01      	ldr	r2, [sp, #4]
 8008fc4:	6a63      	ldr	r3, [r4, #36]	; 0x24
 8008fc6:	4690      	mov	r8, r2
 8008fc8:	b31b      	cbz	r3, 8009012 <UART_SetConfig+0xc5a>
 8008fca:	2b01      	cmp	r3, #1
 8008fcc:	f000 8135 	beq.w	800923a <UART_SetConfig+0xe82>
 8008fd0:	2b02      	cmp	r3, #2
 8008fd2:	f000 819b 	beq.w	800930c <UART_SetConfig+0xf54>
 8008fd6:	2b03      	cmp	r3, #3
 8008fd8:	f000 81c0 	beq.w	800935c <UART_SetConfig+0xfa4>
 8008fdc:	2b04      	cmp	r3, #4
 8008fde:	f000 81e7 	beq.w	80093b0 <UART_SetConfig+0xff8>
 8008fe2:	2b05      	cmp	r3, #5
 8008fe4:	f000 8224 	beq.w	8009430 <UART_SetConfig+0x1078>
 8008fe8:	2b06      	cmp	r3, #6
 8008fea:	f000 82df 	beq.w	80095ac <UART_SetConfig+0x11f4>
 8008fee:	2b07      	cmp	r3, #7
 8008ff0:	f000 82d7 	beq.w	80095a2 <UART_SetConfig+0x11ea>
 8008ff4:	2b08      	cmp	r3, #8
 8008ff6:	f000 82cf 	beq.w	8009598 <UART_SetConfig+0x11e0>
 8008ffa:	2b09      	cmp	r3, #9
 8008ffc:	f000 83b4 	beq.w	8009768 <UART_SetConfig+0x13b0>
 8009000:	2b0a      	cmp	r3, #10
 8009002:	f000 83a8 	beq.w	8009756 <UART_SetConfig+0x139e>
 8009006:	2b0b      	cmp	r3, #11
 8009008:	d103      	bne.n	8009012 <UART_SetConfig+0xc5a>
 800900a:	ea4f 2812 	mov.w	r8, r2, lsr #8
 800900e:	f04f 0900 	mov.w	r9, #0
 8009012:	6863      	ldr	r3, [r4, #4]
 8009014:	ea4f 2709 	mov.w	r7, r9, lsl #8
 8009018:	ea4f 2608 	mov.w	r6, r8, lsl #8
 800901c:	0859      	lsrs	r1, r3, #1
 800901e:	461a      	mov	r2, r3
 8009020:	ea47 6718 	orr.w	r7, r7, r8, lsr #24
 8009024:	2300      	movs	r3, #0
 8009026:	eb16 0801 	adds.w	r8, r6, r1
 800902a:	f147 0900 	adc.w	r9, r7, #0
 800902e:	4640      	mov	r0, r8
 8009030:	4649      	mov	r1, r9
 8009032:	f7f7 f9a5 	bl	8000380 <__aeabi_uldivmod>
 8009036:	4603      	mov	r3, r0
 8009038:	f5a0 7140 	sub.w	r1, r0, #768	; 0x300
 800903c:	f7ff bbb7 	b.w	80087ae <UART_SetConfig+0x3f6>
 8009040:	4920      	ldr	r1, [pc, #128]	; (80090c4 <UART_SetConfig+0xd0c>)
 8009042:	e4f0      	b.n	8008a26 <UART_SetConfig+0x66e>
 8009044:	0852      	lsrs	r2, r2, #1
 8009046:	e65f      	b.n	8008d08 <UART_SetConfig+0x950>
 8009048:	481e      	ldr	r0, [pc, #120]	; (80090c4 <UART_SetConfig+0xd0c>)
 800904a:	f7ff bb56 	b.w	80086fa <UART_SetConfig+0x342>
 800904e:	4b1f      	ldr	r3, [pc, #124]	; (80090cc <UART_SetConfig+0xd14>)
 8009050:	fba3 3000 	umull	r3, r0, r3, r0
 8009054:	08c0      	lsrs	r0, r0, #3
 8009056:	2800      	cmp	r0, #0
 8009058:	f43f aad4 	beq.w	8008604 <UART_SetConfig+0x24c>
 800905c:	f7ff bb4d 	b.w	80086fa <UART_SetConfig+0x342>
 8009060:	0840      	lsrs	r0, r0, #1
 8009062:	e5ee      	b.n	8008c42 <UART_SetConfig+0x88a>
 8009064:	4b1d      	ldr	r3, [pc, #116]	; (80090dc <UART_SetConfig+0xd24>)
 8009066:	e469      	b.n	800893c <UART_SetConfig+0x584>
 8009068:	f44f 4380 	mov.w	r3, #16384	; 0x4000
 800906c:	e466      	b.n	800893c <UART_SetConfig+0x584>
 800906e:	0892      	lsrs	r2, r2, #2
 8009070:	e64a      	b.n	8008d08 <UART_SetConfig+0x950>
 8009072:	4b18      	ldr	r3, [pc, #96]	; (80090d4 <UART_SetConfig+0xd1c>)
 8009074:	e5aa      	b.n	8008bcc <UART_SetConfig+0x814>
 8009076:	4819      	ldr	r0, [pc, #100]	; (80090dc <UART_SetConfig+0xd24>)
 8009078:	f7ff bb3f 	b.w	80086fa <UART_SetConfig+0x342>
 800907c:	f44f 4080 	mov.w	r0, #16384	; 0x4000
 8009080:	f7ff bb3b 	b.w	80086fa <UART_SetConfig+0x342>
 8009084:	0880      	lsrs	r0, r0, #2
 8009086:	e5dc      	b.n	8008c42 <UART_SetConfig+0x88a>
 8009088:	4b15      	ldr	r3, [pc, #84]	; (80090e0 <UART_SetConfig+0xd28>)
 800908a:	e457      	b.n	800893c <UART_SetConfig+0x584>
 800908c:	f44f 5300 	mov.w	r3, #8192	; 0x2000
 8009090:	e454      	b.n	800893c <UART_SetConfig+0x584>
 8009092:	a803      	add	r0, sp, #12
 8009094:	f04f 0900 	mov.w	r9, #0
 8009098:	f7fd fc22 	bl	80068e0 <HAL_RCCEx_GetPLL3ClockFreq>
 800909c:	9a04      	ldr	r2, [sp, #16]
 800909e:	6a63      	ldr	r3, [r4, #36]	; 0x24
 80090a0:	4690      	mov	r8, r2
 80090a2:	2b00      	cmp	r3, #0
 80090a4:	d0b5      	beq.n	8009012 <UART_SetConfig+0xc5a>
 80090a6:	e790      	b.n	8008fca <UART_SetConfig+0xc12>
 80090a8:	58024400 	.word	0x58024400
 80090ac:	0800d25c 	.word	0x0800d25c
 80090b0:	0800d25c 	.word	0x0800d25c
 80090b4:	0800d230 	.word	0x0800d230
 80090b8:	0800d25c 	.word	0x0800d25c
 80090bc:	aaaaaaab 	.word	0xaaaaaaab
 80090c0:	003d0900 	.word	0x003d0900
 80090c4:	03d09000 	.word	0x03d09000
 80090c8:	0003d090 	.word	0x0003d090
 80090cc:	cccccccd 	.word	0xcccccccd
 80090d0:	007a1200 	.word	0x007a1200
 80090d4:	07a12000 	.word	0x07a12000
 80090d8:	0007a120 	.word	0x0007a120
 80090dc:	001e8480 	.word	0x001e8480
 80090e0:	000f4240 	.word	0x000f4240
 80090e4:	6a63      	ldr	r3, [r4, #36]	; 0x24
 80090e6:	b303      	cbz	r3, 800912a <UART_SetConfig+0xd72>
 80090e8:	2b01      	cmp	r3, #1
 80090ea:	f000 8151 	beq.w	8009390 <UART_SetConfig+0xfd8>
 80090ee:	2b02      	cmp	r3, #2
 80090f0:	f000 8191 	beq.w	8009416 <UART_SetConfig+0x105e>
 80090f4:	2b03      	cmp	r3, #3
 80090f6:	f000 8234 	beq.w	8009562 <UART_SetConfig+0x11aa>
 80090fa:	2b04      	cmp	r3, #4
 80090fc:	f000 8235 	beq.w	800956a <UART_SetConfig+0x11b2>
 8009100:	2b05      	cmp	r3, #5
 8009102:	f000 8281 	beq.w	8009608 <UART_SetConfig+0x1250>
 8009106:	2b06      	cmp	r3, #6
 8009108:	f000 82ca 	beq.w	80096a0 <UART_SetConfig+0x12e8>
 800910c:	2b07      	cmp	r3, #7
 800910e:	f000 82d0 	beq.w	80096b2 <UART_SetConfig+0x12fa>
 8009112:	2b08      	cmp	r3, #8
 8009114:	f000 82c8 	beq.w	80096a8 <UART_SetConfig+0x12f0>
 8009118:	2b09      	cmp	r3, #9
 800911a:	f000 8306 	beq.w	800972a <UART_SetConfig+0x1372>
 800911e:	2b0a      	cmp	r3, #10
 8009120:	f000 82fe 	beq.w	8009720 <UART_SetConfig+0x1368>
 8009124:	2b0b      	cmp	r3, #11
 8009126:	f000 8305 	beq.w	8009734 <UART_SetConfig+0x137c>
 800912a:	f44f 0700 	mov.w	r7, #8388608	; 0x800000
 800912e:	f04f 0800 	mov.w	r8, #0
 8009132:	0875      	lsrs	r5, r6, #1
 8009134:	2300      	movs	r3, #0
 8009136:	4632      	mov	r2, r6
 8009138:	1978      	adds	r0, r7, r5
 800913a:	f148 0100 	adc.w	r1, r8, #0
 800913e:	f7f7 f91f 	bl	8000380 <__aeabi_uldivmod>
 8009142:	4603      	mov	r3, r0
 8009144:	f5a0 7140 	sub.w	r1, r0, #768	; 0x300
 8009148:	f7ff bb31 	b.w	80087ae <UART_SetConfig+0x3f6>
 800914c:	f7fd fb1e 	bl	800678c <HAL_RCCEx_GetD3PCLK1Freq>
 8009150:	6a63      	ldr	r3, [r4, #36]	; 0x24
 8009152:	4602      	mov	r2, r0
 8009154:	4680      	mov	r8, r0
 8009156:	f04f 0900 	mov.w	r9, #0
 800915a:	2b00      	cmp	r3, #0
 800915c:	f43f af59 	beq.w	8009012 <UART_SetConfig+0xc5a>
 8009160:	e733      	b.n	8008fca <UART_SetConfig+0xc12>
 8009162:	6a63      	ldr	r3, [r4, #36]	; 0x24
 8009164:	b303      	cbz	r3, 80091a8 <UART_SetConfig+0xdf0>
 8009166:	2b01      	cmp	r3, #1
 8009168:	f000 8117 	beq.w	800939a <UART_SetConfig+0xfe2>
 800916c:	2b02      	cmp	r3, #2
 800916e:	f000 816e 	beq.w	800944e <UART_SetConfig+0x1096>
 8009172:	2b03      	cmp	r3, #3
 8009174:	f000 81a5 	beq.w	80094c2 <UART_SetConfig+0x110a>
 8009178:	2b04      	cmp	r3, #4
 800917a:	f000 8202 	beq.w	8009582 <UART_SetConfig+0x11ca>
 800917e:	2b05      	cmp	r3, #5
 8009180:	f000 824b 	beq.w	800961a <UART_SetConfig+0x1262>
 8009184:	2b06      	cmp	r3, #6
 8009186:	f000 827e 	beq.w	8009686 <UART_SetConfig+0x12ce>
 800918a:	2b07      	cmp	r3, #7
 800918c:	f000 8284 	beq.w	8009698 <UART_SetConfig+0x12e0>
 8009190:	2b08      	cmp	r3, #8
 8009192:	f000 827d 	beq.w	8009690 <UART_SetConfig+0x12d8>
 8009196:	2b09      	cmp	r3, #9
 8009198:	f000 82d9 	beq.w	800974e <UART_SetConfig+0x1396>
 800919c:	2b0a      	cmp	r3, #10
 800919e:	f000 82d2 	beq.w	8009746 <UART_SetConfig+0x138e>
 80091a2:	2b0b      	cmp	r3, #11
 80091a4:	f000 82cb 	beq.w	800973e <UART_SetConfig+0x1386>
 80091a8:	4fcb      	ldr	r7, [pc, #812]	; (80094d8 <UART_SetConfig+0x1120>)
 80091aa:	f04f 0800 	mov.w	r8, #0
 80091ae:	e7c0      	b.n	8009132 <UART_SetConfig+0xd7a>
 80091b0:	4bca      	ldr	r3, [pc, #808]	; (80094dc <UART_SetConfig+0x1124>)
 80091b2:	fba3 2302 	umull	r2, r3, r3, r2
 80091b6:	089a      	lsrs	r2, r3, #2
 80091b8:	e5a6      	b.n	8008d08 <UART_SetConfig+0x950>
 80091ba:	f44f 4300 	mov.w	r3, #32768	; 0x8000
 80091be:	e505      	b.n	8008bcc <UART_SetConfig+0x814>
 80091c0:	49c7      	ldr	r1, [pc, #796]	; (80094e0 <UART_SetConfig+0x1128>)
 80091c2:	e56e      	b.n	8008ca2 <UART_SetConfig+0x8ea>
 80091c4:	48c7      	ldr	r0, [pc, #796]	; (80094e4 <UART_SetConfig+0x112c>)
 80091c6:	f7ff ba98 	b.w	80086fa <UART_SetConfig+0x342>
 80091ca:	49c7      	ldr	r1, [pc, #796]	; (80094e8 <UART_SetConfig+0x1130>)
 80091cc:	e42b      	b.n	8008a26 <UART_SetConfig+0x66e>
 80091ce:	4ac3      	ldr	r2, [pc, #780]	; (80094dc <UART_SetConfig+0x1124>)
 80091d0:	fba2 2303 	umull	r2, r3, r2, r3
 80091d4:	08db      	lsrs	r3, r3, #3
 80091d6:	f7ff bbb1 	b.w	800893c <UART_SetConfig+0x584>
 80091da:	f44f 5000 	mov.w	r0, #8192	; 0x2000
 80091de:	f7ff ba8c 	b.w	80086fa <UART_SetConfig+0x342>
 80091e2:	4bbe      	ldr	r3, [pc, #760]	; (80094dc <UART_SetConfig+0x1124>)
 80091e4:	fba3 2300 	umull	r2, r3, r3, r0
 80091e8:	0898      	lsrs	r0, r3, #2
 80091ea:	e52a      	b.n	8008c42 <UART_SetConfig+0x88a>
 80091ec:	f241 5355 	movw	r3, #5461	; 0x1555
 80091f0:	f7ff bba4 	b.w	800893c <UART_SetConfig+0x584>
 80091f4:	4bbd      	ldr	r3, [pc, #756]	; (80094ec <UART_SetConfig+0x1134>)
 80091f6:	f7ff bba1 	b.w	800893c <UART_SetConfig+0x584>
 80091fa:	4bb8      	ldr	r3, [pc, #736]	; (80094dc <UART_SetConfig+0x1124>)
 80091fc:	fba3 3000 	umull	r3, r0, r3, r0
 8009200:	0880      	lsrs	r0, r0, #2
 8009202:	f7ff ba7a 	b.w	80086fa <UART_SetConfig+0x342>
 8009206:	08d2      	lsrs	r2, r2, #3
 8009208:	e57e      	b.n	8008d08 <UART_SetConfig+0x950>
 800920a:	48b7      	ldr	r0, [pc, #732]	; (80094e8 <UART_SetConfig+0x1130>)
 800920c:	f7ff ba75 	b.w	80086fa <UART_SetConfig+0x342>
 8009210:	091b      	lsrs	r3, r3, #4
 8009212:	f7ff bb93 	b.w	800893c <UART_SetConfig+0x584>
 8009216:	0840      	lsrs	r0, r0, #1
 8009218:	f7ff ba6f 	b.w	80086fa <UART_SetConfig+0x342>
 800921c:	49b4      	ldr	r1, [pc, #720]	; (80094f0 <UART_SetConfig+0x1138>)
 800921e:	e540      	b.n	8008ca2 <UART_SetConfig+0x8ea>
 8009220:	f44f 4380 	mov.w	r3, #16384	; 0x4000
 8009224:	e4d2      	b.n	8008bcc <UART_SetConfig+0x814>
 8009226:	48b1      	ldr	r0, [pc, #708]	; (80094ec <UART_SetConfig+0x1134>)
 8009228:	f7ff ba67 	b.w	80086fa <UART_SetConfig+0x342>
 800922c:	f241 5055 	movw	r0, #5461	; 0x1555
 8009230:	f7ff ba63 	b.w	80086fa <UART_SetConfig+0x342>
 8009234:	49af      	ldr	r1, [pc, #700]	; (80094f4 <UART_SetConfig+0x113c>)
 8009236:	f7ff bbf6 	b.w	8008a26 <UART_SetConfig+0x66e>
 800923a:	ea5f 0959 	movs.w	r9, r9, lsr #1
 800923e:	ea4f 0838 	mov.w	r8, r8, rrx
 8009242:	e6e6      	b.n	8009012 <UART_SetConfig+0xc5a>
 8009244:	08c0      	lsrs	r0, r0, #3
 8009246:	e4fc      	b.n	8008c42 <UART_SetConfig+0x88a>
 8009248:	b1fb      	cbz	r3, 800928a <UART_SetConfig+0xed2>
 800924a:	2b01      	cmp	r3, #1
 800924c:	f000 8124 	beq.w	8009498 <UART_SetConfig+0x10e0>
 8009250:	2b02      	cmp	r3, #2
 8009252:	f000 81c9 	beq.w	80095e8 <UART_SetConfig+0x1230>
 8009256:	2b03      	cmp	r3, #3
 8009258:	f000 81da 	beq.w	8009610 <UART_SetConfig+0x1258>
 800925c:	2b04      	cmp	r3, #4
 800925e:	f000 820e 	beq.w	800967e <UART_SetConfig+0x12c6>
 8009262:	2b05      	cmp	r3, #5
 8009264:	f000 824c 	beq.w	8009700 <UART_SetConfig+0x1348>
 8009268:	2b06      	cmp	r3, #6
 800926a:	f000 8244 	beq.w	80096f6 <UART_SetConfig+0x133e>
 800926e:	2b07      	cmp	r3, #7
 8009270:	d09a      	beq.n	80091a8 <UART_SetConfig+0xdf0>
 8009272:	2b08      	cmp	r3, #8
 8009274:	f000 8091 	beq.w	800939a <UART_SetConfig+0xfe2>
 8009278:	2b09      	cmp	r3, #9
 800927a:	f000 80e8 	beq.w	800944e <UART_SetConfig+0x1096>
 800927e:	2b0a      	cmp	r3, #10
 8009280:	f000 817f 	beq.w	8009582 <UART_SetConfig+0x11ca>
 8009284:	2b0b      	cmp	r3, #11
 8009286:	f000 8207 	beq.w	8009698 <UART_SetConfig+0x12e0>
 800928a:	4f9b      	ldr	r7, [pc, #620]	; (80094f8 <UART_SetConfig+0x1140>)
 800928c:	f04f 0803 	mov.w	r8, #3
 8009290:	e74f      	b.n	8009132 <UART_SetConfig+0xd7a>
 8009292:	f44f 5380 	mov.w	r3, #4096	; 0x1000
 8009296:	f7ff bb51 	b.w	800893c <UART_SetConfig+0x584>
 800929a:	4b98      	ldr	r3, [pc, #608]	; (80094fc <UART_SetConfig+0x1144>)
 800929c:	f7ff bb4e 	b.w	800893c <UART_SetConfig+0x584>
 80092a0:	230c      	movs	r3, #12
 80092a2:	fbb0 f0f3 	udiv	r0, r0, r3
 80092a6:	2800      	cmp	r0, #0
 80092a8:	f43f a9ac 	beq.w	8008604 <UART_SetConfig+0x24c>
 80092ac:	f7ff ba25 	b.w	80086fa <UART_SetConfig+0x342>
 80092b0:	4b93      	ldr	r3, [pc, #588]	; (8009500 <UART_SetConfig+0x1148>)
 80092b2:	e48b      	b.n	8008bcc <UART_SetConfig+0x814>
 80092b4:	488f      	ldr	r0, [pc, #572]	; (80094f4 <UART_SetConfig+0x113c>)
 80092b6:	f7ff ba20 	b.w	80086fa <UART_SetConfig+0x342>
 80092ba:	095b      	lsrs	r3, r3, #5
 80092bc:	f7ff bb3e 	b.w	800893c <UART_SetConfig+0x584>
 80092c0:	488e      	ldr	r0, [pc, #568]	; (80094fc <UART_SetConfig+0x1144>)
 80092c2:	f7ff ba1a 	b.w	80086fa <UART_SetConfig+0x342>
 80092c6:	498f      	ldr	r1, [pc, #572]	; (8009504 <UART_SetConfig+0x114c>)
 80092c8:	e4eb      	b.n	8008ca2 <UART_SetConfig+0x8ea>
 80092ca:	f642 23aa 	movw	r3, #10922	; 0x2aaa
 80092ce:	e47d      	b.n	8008bcc <UART_SetConfig+0x814>
 80092d0:	498d      	ldr	r1, [pc, #564]	; (8009508 <UART_SetConfig+0x1150>)
 80092d2:	f7ff bba8 	b.w	8008a26 <UART_SetConfig+0x66e>
 80092d6:	f44f 5080 	mov.w	r0, #4096	; 0x1000
 80092da:	f7ff ba0e 	b.w	80086fa <UART_SetConfig+0x342>
 80092de:	4b8b      	ldr	r3, [pc, #556]	; (800950c <UART_SetConfig+0x1154>)
 80092e0:	fba3 2302 	umull	r2, r3, r3, r2
 80092e4:	08da      	lsrs	r2, r3, #3
 80092e6:	e50f      	b.n	8008d08 <UART_SetConfig+0x950>
 80092e8:	4b88      	ldr	r3, [pc, #544]	; (800950c <UART_SetConfig+0x1154>)
 80092ea:	fba3 2300 	umull	r2, r3, r3, r0
 80092ee:	08d8      	lsrs	r0, r3, #3
 80092f0:	e4a7      	b.n	8008c42 <UART_SetConfig+0x88a>
 80092f2:	f640 43cc 	movw	r3, #3276	; 0xccc
 80092f6:	f7ff bb21 	b.w	800893c <UART_SetConfig+0x584>
 80092fa:	4b85      	ldr	r3, [pc, #532]	; (8009510 <UART_SetConfig+0x1158>)
 80092fc:	f7ff bb1e 	b.w	800893c <UART_SetConfig+0x584>
 8009300:	0900      	lsrs	r0, r0, #4
 8009302:	2800      	cmp	r0, #0
 8009304:	f43f a97e 	beq.w	8008604 <UART_SetConfig+0x24c>
 8009308:	f7ff b9f7 	b.w	80086fa <UART_SetConfig+0x342>
 800930c:	ea4f 0892 	mov.w	r8, r2, lsr #2
 8009310:	f04f 0900 	mov.w	r9, #0
 8009314:	e67d      	b.n	8009012 <UART_SetConfig+0xc5a>
 8009316:	4b74      	ldr	r3, [pc, #464]	; (80094e8 <UART_SetConfig+0x1130>)
 8009318:	e458      	b.n	8008bcc <UART_SetConfig+0x814>
 800931a:	487b      	ldr	r0, [pc, #492]	; (8009508 <UART_SetConfig+0x1150>)
 800931c:	f7ff b9ed 	b.w	80086fa <UART_SetConfig+0x342>
 8009320:	4970      	ldr	r1, [pc, #448]	; (80094e4 <UART_SetConfig+0x112c>)
 8009322:	e4be      	b.n	8008ca2 <UART_SetConfig+0x8ea>
 8009324:	f44f 5300 	mov.w	r3, #8192	; 0x2000
 8009328:	e450      	b.n	8008bcc <UART_SetConfig+0x814>
 800932a:	230c      	movs	r3, #12
 800932c:	fbb2 f2f3 	udiv	r2, r2, r3
 8009330:	e4ea      	b.n	8008d08 <UART_SetConfig+0x950>
 8009332:	099b      	lsrs	r3, r3, #6
 8009334:	f7ff bb02 	b.w	800893c <UART_SetConfig+0x584>
 8009338:	f640 40cc 	movw	r0, #3276	; 0xccc
 800933c:	f7ff b9dd 	b.w	80086fa <UART_SetConfig+0x342>
 8009340:	4873      	ldr	r0, [pc, #460]	; (8009510 <UART_SetConfig+0x1158>)
 8009342:	f7ff b9da 	b.w	80086fa <UART_SetConfig+0x342>
 8009346:	4973      	ldr	r1, [pc, #460]	; (8009514 <UART_SetConfig+0x115c>)
 8009348:	f7ff bb6d 	b.w	8008a26 <UART_SetConfig+0x66e>
 800934c:	230c      	movs	r3, #12
 800934e:	fbb0 f0f3 	udiv	r0, r0, r3
 8009352:	e476      	b.n	8008c42 <UART_SetConfig+0x88a>
 8009354:	f640 23aa 	movw	r3, #2730	; 0xaaa
 8009358:	f7ff baf0 	b.w	800893c <UART_SetConfig+0x584>
 800935c:	4640      	mov	r0, r8
 800935e:	4649      	mov	r1, r9
 8009360:	2206      	movs	r2, #6
 8009362:	2300      	movs	r3, #0
 8009364:	f7f7 f80c 	bl	8000380 <__aeabi_uldivmod>
 8009368:	4680      	mov	r8, r0
 800936a:	4689      	mov	r9, r1
 800936c:	e651      	b.n	8009012 <UART_SetConfig+0xc5a>
 800936e:	4b6a      	ldr	r3, [pc, #424]	; (8009518 <UART_SetConfig+0x1160>)
 8009370:	f7ff bae4 	b.w	800893c <UART_SetConfig+0x584>
 8009374:	0940      	lsrs	r0, r0, #5
 8009376:	2800      	cmp	r0, #0
 8009378:	f43f a944 	beq.w	8008604 <UART_SetConfig+0x24c>
 800937c:	f7ff b9bd 	b.w	80086fa <UART_SetConfig+0x342>
 8009380:	08c0      	lsrs	r0, r0, #3
 8009382:	f7ff b9ba 	b.w	80086fa <UART_SetConfig+0x342>
 8009386:	4b65      	ldr	r3, [pc, #404]	; (800951c <UART_SetConfig+0x1164>)
 8009388:	e420      	b.n	8008bcc <UART_SetConfig+0x814>
 800938a:	4862      	ldr	r0, [pc, #392]	; (8009514 <UART_SetConfig+0x115c>)
 800938c:	f7ff b9b5 	b.w	80086fa <UART_SetConfig+0x342>
 8009390:	f44f 0780 	mov.w	r7, #4194304	; 0x400000
 8009394:	f04f 0800 	mov.w	r8, #0
 8009398:	e6cb      	b.n	8009132 <UART_SetConfig+0xd7a>
 800939a:	4f61      	ldr	r7, [pc, #388]	; (8009520 <UART_SetConfig+0x1168>)
 800939c:	f04f 0800 	mov.w	r8, #0
 80093a0:	e6c7      	b.n	8009132 <UART_SetConfig+0xd7a>
 80093a2:	4960      	ldr	r1, [pc, #384]	; (8009524 <UART_SetConfig+0x116c>)
 80093a4:	e47d      	b.n	8008ca2 <UART_SetConfig+0x8ea>
 80093a6:	f641 1398 	movw	r3, #6552	; 0x1998
 80093aa:	e40f      	b.n	8008bcc <UART_SetConfig+0x814>
 80093ac:	0912      	lsrs	r2, r2, #4
 80093ae:	e4ab      	b.n	8008d08 <UART_SetConfig+0x950>
 80093b0:	ea4f 08d2 	mov.w	r8, r2, lsr #3
 80093b4:	f04f 0900 	mov.w	r9, #0
 80093b8:	e62b      	b.n	8009012 <UART_SetConfig+0xc5a>
 80093ba:	f640 20aa 	movw	r0, #2730	; 0xaaa
 80093be:	f7ff b99c 	b.w	80086fa <UART_SetConfig+0x342>
 80093c2:	4959      	ldr	r1, [pc, #356]	; (8009528 <UART_SetConfig+0x1170>)
 80093c4:	f7ff bb2f 	b.w	8008a26 <UART_SetConfig+0x66e>
 80093c8:	09db      	lsrs	r3, r3, #7
 80093ca:	f7ff bab7 	b.w	800893c <UART_SetConfig+0x584>
 80093ce:	4852      	ldr	r0, [pc, #328]	; (8009518 <UART_SetConfig+0x1160>)
 80093d0:	f7ff b993 	b.w	80086fa <UART_SetConfig+0x342>
 80093d4:	220a      	movs	r2, #10
 80093d6:	fbb3 f3f2 	udiv	r3, r3, r2
 80093da:	f7ff baaf 	b.w	800893c <UART_SetConfig+0x584>
 80093de:	0980      	lsrs	r0, r0, #6
 80093e0:	2800      	cmp	r0, #0
 80093e2:	f43f a90f 	beq.w	8008604 <UART_SetConfig+0x24c>
 80093e6:	f7ff b988 	b.w	80086fa <UART_SetConfig+0x342>
 80093ea:	0900      	lsrs	r0, r0, #4
 80093ec:	e429      	b.n	8008c42 <UART_SetConfig+0x88a>
 80093ee:	4b4f      	ldr	r3, [pc, #316]	; (800952c <UART_SetConfig+0x1174>)
 80093f0:	f7ff baa4 	b.w	800893c <UART_SetConfig+0x584>
 80093f4:	f44f 6300 	mov.w	r3, #2048	; 0x800
 80093f8:	f7ff baa0 	b.w	800893c <UART_SetConfig+0x584>
 80093fc:	4b3d      	ldr	r3, [pc, #244]	; (80094f4 <UART_SetConfig+0x113c>)
 80093fe:	f7ff bbe5 	b.w	8008bcc <UART_SetConfig+0x814>
 8009402:	0952      	lsrs	r2, r2, #5
 8009404:	e480      	b.n	8008d08 <UART_SetConfig+0x950>
 8009406:	4848      	ldr	r0, [pc, #288]	; (8009528 <UART_SetConfig+0x1170>)
 8009408:	f7ff b977 	b.w	80086fa <UART_SetConfig+0x342>
 800940c:	230a      	movs	r3, #10
 800940e:	fbb0 f0f3 	udiv	r0, r0, r3
 8009412:	f7ff b972 	b.w	80086fa <UART_SetConfig+0x342>
 8009416:	f44f 1700 	mov.w	r7, #2097152	; 0x200000
 800941a:	f04f 0800 	mov.w	r8, #0
 800941e:	e688      	b.n	8009132 <UART_SetConfig+0xd7a>
 8009420:	4842      	ldr	r0, [pc, #264]	; (800952c <UART_SetConfig+0x1174>)
 8009422:	f7ff b96a 	b.w	80086fa <UART_SetConfig+0x342>
 8009426:	220c      	movs	r2, #12
 8009428:	fbb3 f3f2 	udiv	r3, r3, r2
 800942c:	f7ff ba86 	b.w	800893c <UART_SetConfig+0x584>
 8009430:	4640      	mov	r0, r8
 8009432:	4649      	mov	r1, r9
 8009434:	220a      	movs	r2, #10
 8009436:	2300      	movs	r3, #0
 8009438:	f7f6 ffa2 	bl	8000380 <__aeabi_uldivmod>
 800943c:	4680      	mov	r8, r0
 800943e:	4689      	mov	r9, r1
 8009440:	e5e7      	b.n	8009012 <UART_SetConfig+0xc5a>
 8009442:	f44f 6000 	mov.w	r0, #2048	; 0x800
 8009446:	f7ff b958 	b.w	80086fa <UART_SetConfig+0x342>
 800944a:	4928      	ldr	r1, [pc, #160]	; (80094ec <UART_SetConfig+0x1134>)
 800944c:	e429      	b.n	8008ca2 <UART_SetConfig+0x8ea>
 800944e:	4f38      	ldr	r7, [pc, #224]	; (8009530 <UART_SetConfig+0x1178>)
 8009450:	f04f 0800 	mov.w	r8, #0
 8009454:	e66d      	b.n	8009132 <UART_SetConfig+0xd7a>
 8009456:	4937      	ldr	r1, [pc, #220]	; (8009534 <UART_SetConfig+0x117c>)
 8009458:	f7ff bae5 	b.w	8008a26 <UART_SetConfig+0x66e>
 800945c:	09c0      	lsrs	r0, r0, #7
 800945e:	2800      	cmp	r0, #0
 8009460:	f43f a8d0 	beq.w	8008604 <UART_SetConfig+0x24c>
 8009464:	f7ff b949 	b.w	80086fa <UART_SetConfig+0x342>
 8009468:	0940      	lsrs	r0, r0, #5
 800946a:	f7ff bbea 	b.w	8008c42 <UART_SetConfig+0x88a>
 800946e:	f241 5354 	movw	r3, #5460	; 0x1554
 8009472:	f7ff bbab 	b.w	8008bcc <UART_SetConfig+0x814>
 8009476:	0849      	lsrs	r1, r1, #1
 8009478:	ea4f 0030 	mov.w	r0, r0, rrx
 800947c:	f7ff b985 	b.w	800878a <UART_SetConfig+0x3d2>
 8009480:	4b2d      	ldr	r3, [pc, #180]	; (8009538 <UART_SetConfig+0x1180>)
 8009482:	f7ff ba5b 	b.w	800893c <UART_SetConfig+0x584>
 8009486:	f44f 6380 	mov.w	r3, #1024	; 0x400
 800948a:	f7ff ba57 	b.w	800893c <UART_SetConfig+0x584>
 800948e:	0992      	lsrs	r2, r2, #6
 8009490:	e43a      	b.n	8008d08 <UART_SetConfig+0x950>
 8009492:	4b2a      	ldr	r3, [pc, #168]	; (800953c <UART_SetConfig+0x1184>)
 8009494:	f7ff bb9a 	b.w	8008bcc <UART_SetConfig+0x814>
 8009498:	4f29      	ldr	r7, [pc, #164]	; (8009540 <UART_SetConfig+0x1188>)
 800949a:	f04f 0801 	mov.w	r8, #1
 800949e:	e648      	b.n	8009132 <UART_SetConfig+0xd7a>
 80094a0:	230a      	movs	r3, #10
 80094a2:	fbb2 f2f3 	udiv	r2, r2, r3
 80094a6:	e42f      	b.n	8008d08 <UART_SetConfig+0x950>
 80094a8:	4822      	ldr	r0, [pc, #136]	; (8009534 <UART_SetConfig+0x117c>)
 80094aa:	f7ff b926 	b.w	80086fa <UART_SetConfig+0x342>
 80094ae:	f44f 6080 	mov.w	r0, #1024	; 0x400
 80094b2:	f7ff b922 	b.w	80086fa <UART_SetConfig+0x342>
 80094b6:	0980      	lsrs	r0, r0, #6
 80094b8:	f7ff bbc3 	b.w	8008c42 <UART_SetConfig+0x88a>
 80094bc:	481e      	ldr	r0, [pc, #120]	; (8009538 <UART_SetConfig+0x1180>)
 80094be:	f7ff b91c 	b.w	80086fa <UART_SetConfig+0x342>
 80094c2:	f20f 080c 	addw	r8, pc, #12
 80094c6:	e9d8 7800 	ldrd	r7, r8, [r8]
 80094ca:	e632      	b.n	8009132 <UART_SetConfig+0xd7a>
 80094cc:	f3af 8000 	nop.w
 80094d0:	0a2c2a00 	.word	0x0a2c2a00
 80094d4:	00000000 	.word	0x00000000
 80094d8:	3d090000 	.word	0x3d090000
 80094dc:	aaaaaaab 	.word	0xaaaaaaab
 80094e0:	003d0900 	.word	0x003d0900
 80094e4:	000f4240 	.word	0x000f4240
 80094e8:	01e84800 	.word	0x01e84800
 80094ec:	000a2c2a 	.word	0x000a2c2a
 80094f0:	001e8480 	.word	0x001e8480
 80094f4:	00f42400 	.word	0x00f42400
 80094f8:	d0900000 	.word	0xd0900000
 80094fc:	0007a120 	.word	0x0007a120
 8009500:	03d09000 	.word	0x03d09000
 8009504:	00145854 	.word	0x00145854
 8009508:	00a2c2aa 	.word	0x00a2c2aa
 800950c:	cccccccd 	.word	0xcccccccd
 8009510:	00061a80 	.word	0x00061a80
 8009514:	007a1200 	.word	0x007a1200
 8009518:	00051615 	.word	0x00051615
 800951c:	01458554 	.word	0x01458554
 8009520:	1e848000 	.word	0x1e848000
 8009524:	000c3500 	.word	0x000c3500
 8009528:	0061a800 	.word	0x0061a800
 800952c:	0003d090 	.word	0x0003d090
 8009530:	0f424000 	.word	0x0f424000
 8009534:	00516155 	.word	0x00516155
 8009538:	0001e848 	.word	0x0001e848
 800953c:	00c35000 	.word	0x00c35000
 8009540:	e8480000 	.word	0xe8480000
 8009544:	4994      	ldr	r1, [pc, #592]	; (8009798 <UART_SetConfig+0x13e0>)
 8009546:	f7ff ba6e 	b.w	8008a26 <UART_SetConfig+0x66e>
 800954a:	230c      	movs	r3, #12
 800954c:	fbb0 f0f3 	udiv	r0, r0, r3
 8009550:	f7ff b8d3 	b.w	80086fa <UART_SetConfig+0x342>
 8009554:	4991      	ldr	r1, [pc, #580]	; (800979c <UART_SetConfig+0x13e4>)
 8009556:	f7ff bba4 	b.w	8008ca2 <UART_SetConfig+0x8ea>
 800955a:	f44f 5380 	mov.w	r3, #4096	; 0x1000
 800955e:	f7ff bb35 	b.w	8008bcc <UART_SetConfig+0x814>
 8009562:	4f8f      	ldr	r7, [pc, #572]	; (80097a0 <UART_SetConfig+0x13e8>)
 8009564:	f04f 0800 	mov.w	r8, #0
 8009568:	e5e3      	b.n	8009132 <UART_SetConfig+0xd7a>
 800956a:	f44f 1780 	mov.w	r7, #1048576	; 0x100000
 800956e:	f04f 0800 	mov.w	r8, #0
 8009572:	e5de      	b.n	8009132 <UART_SetConfig+0xd7a>
 8009574:	0900      	lsrs	r0, r0, #4
 8009576:	f7ff b8c0 	b.w	80086fa <UART_SetConfig+0x342>
 800957a:	f44f 6300 	mov.w	r3, #2048	; 0x800
 800957e:	f7ff bb25 	b.w	8008bcc <UART_SetConfig+0x814>
 8009582:	4f88      	ldr	r7, [pc, #544]	; (80097a4 <UART_SetConfig+0x13ec>)
 8009584:	f04f 0800 	mov.w	r8, #0
 8009588:	e5d3      	b.n	8009132 <UART_SetConfig+0xd7a>
 800958a:	09d2      	lsrs	r2, r2, #7
 800958c:	f7ff bbbc 	b.w	8008d08 <UART_SetConfig+0x950>
 8009590:	0890      	lsrs	r0, r2, #2
 8009592:	2100      	movs	r1, #0
 8009594:	f7ff b8f9 	b.w	800878a <UART_SetConfig+0x3d2>
 8009598:	ea4f 1852 	mov.w	r8, r2, lsr #5
 800959c:	f04f 0900 	mov.w	r9, #0
 80095a0:	e537      	b.n	8009012 <UART_SetConfig+0xc5a>
 80095a2:	ea4f 1812 	mov.w	r8, r2, lsr #4
 80095a6:	f04f 0900 	mov.w	r9, #0
 80095aa:	e532      	b.n	8009012 <UART_SetConfig+0xc5a>
 80095ac:	4640      	mov	r0, r8
 80095ae:	4649      	mov	r1, r9
 80095b0:	220c      	movs	r2, #12
 80095b2:	2300      	movs	r3, #0
 80095b4:	f7f6 fee4 	bl	8000380 <__aeabi_uldivmod>
 80095b8:	4680      	mov	r8, r0
 80095ba:	4689      	mov	r9, r1
 80095bc:	e529      	b.n	8009012 <UART_SetConfig+0xc5a>
 80095be:	4b7a      	ldr	r3, [pc, #488]	; (80097a8 <UART_SetConfig+0x13f0>)
 80095c0:	f7ff bb04 	b.w	8008bcc <UART_SetConfig+0x814>
 80095c4:	f24f 4024 	movw	r0, #62500	; 0xf424
 80095c8:	f7ff b897 	b.w	80086fa <UART_SetConfig+0x342>
 80095cc:	4977      	ldr	r1, [pc, #476]	; (80097ac <UART_SetConfig+0x13f4>)
 80095ce:	f7ff ba2a 	b.w	8008a26 <UART_SetConfig+0x66e>
 80095d2:	f44f 7300 	mov.w	r3, #512	; 0x200
 80095d6:	f7ff b9b1 	b.w	800893c <UART_SetConfig+0x584>
 80095da:	4975      	ldr	r1, [pc, #468]	; (80097b0 <UART_SetConfig+0x13f8>)
 80095dc:	f7ff bb61 	b.w	8008ca2 <UART_SetConfig+0x8ea>
 80095e0:	f24f 4324 	movw	r3, #62500	; 0xf424
 80095e4:	f7ff b9aa 	b.w	800893c <UART_SetConfig+0x584>
 80095e8:	4f72      	ldr	r7, [pc, #456]	; (80097b4 <UART_SetConfig+0x13fc>)
 80095ea:	f04f 0800 	mov.w	r8, #0
 80095ee:	e5a0      	b.n	8009132 <UART_SetConfig+0xd7a>
 80095f0:	f44f 7000 	mov.w	r0, #512	; 0x200
 80095f4:	f7ff b881 	b.w	80086fa <UART_SetConfig+0x342>
 80095f8:	f647 2312 	movw	r3, #31250	; 0x7a12
 80095fc:	f7ff b99e 	b.w	800893c <UART_SetConfig+0x584>
 8009600:	f44f 7080 	mov.w	r0, #256	; 0x100
 8009604:	f7ff b879 	b.w	80086fa <UART_SetConfig+0x342>
 8009608:	4f6b      	ldr	r7, [pc, #428]	; (80097b8 <UART_SetConfig+0x1400>)
 800960a:	f04f 0800 	mov.w	r8, #0
 800960e:	e590      	b.n	8009132 <UART_SetConfig+0xd7a>
 8009610:	f20f 186c 	addw	r8, pc, #364	; 0x16c
 8009614:	e9d8 7800 	ldrd	r7, r8, [r8]
 8009618:	e58b      	b.n	8009132 <UART_SetConfig+0xd7a>
 800961a:	4f68      	ldr	r7, [pc, #416]	; (80097bc <UART_SetConfig+0x1404>)
 800961c:	f04f 0800 	mov.w	r8, #0
 8009620:	e587      	b.n	8009132 <UART_SetConfig+0xd7a>
 8009622:	4b67      	ldr	r3, [pc, #412]	; (80097c0 <UART_SetConfig+0x1408>)
 8009624:	f7ff bad2 	b.w	8008bcc <UART_SetConfig+0x814>
 8009628:	0940      	lsrs	r0, r0, #5
 800962a:	f7ff b866 	b.w	80086fa <UART_SetConfig+0x342>
 800962e:	09c0      	lsrs	r0, r0, #7
 8009630:	f7ff bb07 	b.w	8008c42 <UART_SetConfig+0x88a>
 8009634:	4963      	ldr	r1, [pc, #396]	; (80097c4 <UART_SetConfig+0x140c>)
 8009636:	f7ff b9f6 	b.w	8008a26 <UART_SetConfig+0x66e>
 800963a:	f44f 7380 	mov.w	r3, #256	; 0x100
 800963e:	f7ff b97d 	b.w	800893c <UART_SetConfig+0x584>
 8009642:	4961      	ldr	r1, [pc, #388]	; (80097c8 <UART_SetConfig+0x1410>)
 8009644:	f7ff bb2d 	b.w	8008ca2 <UART_SetConfig+0x8ea>
 8009648:	f44f 6380 	mov.w	r3, #1024	; 0x400
 800964c:	f7ff babe 	b.w	8008bcc <UART_SetConfig+0x814>
 8009650:	2206      	movs	r2, #6
 8009652:	2300      	movs	r3, #0
 8009654:	f7f6 fe94 	bl	8000380 <__aeabi_uldivmod>
 8009658:	f7ff b897 	b.w	800878a <UART_SetConfig+0x3d2>
 800965c:	f647 2012 	movw	r0, #31250	; 0x7a12
 8009660:	f7ff b84b 	b.w	80086fa <UART_SetConfig+0x342>
 8009664:	494d      	ldr	r1, [pc, #308]	; (800979c <UART_SetConfig+0x13e4>)
 8009666:	f7ff b9de 	b.w	8008a26 <UART_SetConfig+0x66e>
 800966a:	f24f 4124 	movw	r1, #62500	; 0xf424
 800966e:	f7ff bb18 	b.w	8008ca2 <UART_SetConfig+0x8ea>
 8009672:	4b4e      	ldr	r3, [pc, #312]	; (80097ac <UART_SetConfig+0x13f4>)
 8009674:	f7ff baaa 	b.w	8008bcc <UART_SetConfig+0x814>
 8009678:	4b47      	ldr	r3, [pc, #284]	; (8009798 <UART_SetConfig+0x13e0>)
 800967a:	f7ff baa7 	b.w	8008bcc <UART_SetConfig+0x814>
 800967e:	4f53      	ldr	r7, [pc, #332]	; (80097cc <UART_SetConfig+0x1414>)
 8009680:	f04f 0800 	mov.w	r8, #0
 8009684:	e555      	b.n	8009132 <UART_SetConfig+0xd7a>
 8009686:	f20f 1800 	addw	r8, pc, #256	; 0x100
 800968a:	e9d8 7800 	ldrd	r7, r8, [r8]
 800968e:	e550      	b.n	8009132 <UART_SetConfig+0xd7a>
 8009690:	4f4f      	ldr	r7, [pc, #316]	; (80097d0 <UART_SetConfig+0x1418>)
 8009692:	f04f 0800 	mov.w	r8, #0
 8009696:	e54c      	b.n	8009132 <UART_SetConfig+0xd7a>
 8009698:	4f4e      	ldr	r7, [pc, #312]	; (80097d4 <UART_SetConfig+0x141c>)
 800969a:	f04f 0800 	mov.w	r8, #0
 800969e:	e548      	b.n	8009132 <UART_SetConfig+0xd7a>
 80096a0:	4f4d      	ldr	r7, [pc, #308]	; (80097d8 <UART_SetConfig+0x1420>)
 80096a2:	f04f 0800 	mov.w	r8, #0
 80096a6:	e544      	b.n	8009132 <UART_SetConfig+0xd7a>
 80096a8:	f44f 2780 	mov.w	r7, #262144	; 0x40000
 80096ac:	f04f 0800 	mov.w	r8, #0
 80096b0:	e53f      	b.n	8009132 <UART_SetConfig+0xd7a>
 80096b2:	f44f 2700 	mov.w	r7, #524288	; 0x80000
 80096b6:	f04f 0800 	mov.w	r8, #0
 80096ba:	e53a      	b.n	8009132 <UART_SetConfig+0xd7a>
 80096bc:	09c0      	lsrs	r0, r0, #7
 80096be:	f7ff b81c 	b.w	80086fa <UART_SetConfig+0x342>
 80096c2:	0980      	lsrs	r0, r0, #6
 80096c4:	f7ff b819 	b.w	80086fa <UART_SetConfig+0x342>
 80096c8:	220c      	movs	r2, #12
 80096ca:	2300      	movs	r3, #0
 80096cc:	f7f6 fe58 	bl	8000380 <__aeabi_uldivmod>
 80096d0:	f7ff b85b 	b.w	800878a <UART_SetConfig+0x3d2>
 80096d4:	220a      	movs	r2, #10
 80096d6:	2300      	movs	r3, #0
 80096d8:	f7f6 fe52 	bl	8000380 <__aeabi_uldivmod>
 80096dc:	f7ff b855 	b.w	800878a <UART_SetConfig+0x3d2>
 80096e0:	08d0      	lsrs	r0, r2, #3
 80096e2:	2100      	movs	r1, #0
 80096e4:	f7ff b851 	b.w	800878a <UART_SetConfig+0x3d2>
 80096e8:	f44f 7300 	mov.w	r3, #512	; 0x200
 80096ec:	f7ff ba6e 	b.w	8008bcc <UART_SetConfig+0x814>
 80096f0:	4b34      	ldr	r3, [pc, #208]	; (80097c4 <UART_SetConfig+0x140c>)
 80096f2:	f7ff ba6b 	b.w	8008bcc <UART_SetConfig+0x814>
 80096f6:	f20f 0898 	addw	r8, pc, #152	; 0x98
 80096fa:	e9d8 7800 	ldrd	r7, r8, [r8]
 80096fe:	e518      	b.n	8009132 <UART_SetConfig+0xd7a>
 8009700:	4f36      	ldr	r7, [pc, #216]	; (80097dc <UART_SetConfig+0x1424>)
 8009702:	f04f 0800 	mov.w	r8, #0
 8009706:	e514      	b.n	8009132 <UART_SetConfig+0xd7a>
 8009708:	0910      	lsrs	r0, r2, #4
 800970a:	2100      	movs	r1, #0
 800970c:	f7ff b83d 	b.w	800878a <UART_SetConfig+0x3d2>
 8009710:	0990      	lsrs	r0, r2, #6
 8009712:	2100      	movs	r1, #0
 8009714:	f7ff b839 	b.w	800878a <UART_SetConfig+0x3d2>
 8009718:	0950      	lsrs	r0, r2, #5
 800971a:	2100      	movs	r1, #0
 800971c:	f7ff b835 	b.w	800878a <UART_SetConfig+0x3d2>
 8009720:	f44f 3780 	mov.w	r7, #65536	; 0x10000
 8009724:	f04f 0800 	mov.w	r8, #0
 8009728:	e503      	b.n	8009132 <UART_SetConfig+0xd7a>
 800972a:	f44f 3700 	mov.w	r7, #131072	; 0x20000
 800972e:	f04f 0800 	mov.w	r8, #0
 8009732:	e4fe      	b.n	8009132 <UART_SetConfig+0xd7a>
 8009734:	f44f 4700 	mov.w	r7, #32768	; 0x8000
 8009738:	f04f 0800 	mov.w	r8, #0
 800973c:	e4f9      	b.n	8009132 <UART_SetConfig+0xd7a>
 800973e:	4f16      	ldr	r7, [pc, #88]	; (8009798 <UART_SetConfig+0x13e0>)
 8009740:	f04f 0800 	mov.w	r8, #0
 8009744:	e4f5      	b.n	8009132 <UART_SetConfig+0xd7a>
 8009746:	4f1e      	ldr	r7, [pc, #120]	; (80097c0 <UART_SetConfig+0x1408>)
 8009748:	f04f 0800 	mov.w	r8, #0
 800974c:	e4f1      	b.n	8009132 <UART_SetConfig+0xd7a>
 800974e:	4f24      	ldr	r7, [pc, #144]	; (80097e0 <UART_SetConfig+0x1428>)
 8009750:	f04f 0800 	mov.w	r8, #0
 8009754:	e4ed      	b.n	8009132 <UART_SetConfig+0xd7a>
 8009756:	ea4f 18d2 	mov.w	r8, r2, lsr #7
 800975a:	f04f 0900 	mov.w	r9, #0
 800975e:	e458      	b.n	8009012 <UART_SetConfig+0xc5a>
 8009760:	2001      	movs	r0, #1
 8009762:	2300      	movs	r3, #0
 8009764:	f7ff b8f1 	b.w	800894a <UART_SetConfig+0x592>
 8009768:	ea4f 1892 	mov.w	r8, r2, lsr #6
 800976c:	f04f 0900 	mov.w	r9, #0
 8009770:	e44f      	b.n	8009012 <UART_SetConfig+0xc5a>
 8009772:	09d0      	lsrs	r0, r2, #7
 8009774:	2100      	movs	r1, #0
 8009776:	f7ff b808 	b.w	800878a <UART_SetConfig+0x3d2>
 800977a:	bf00      	nop
 800977c:	f3af 8000 	nop.w
 8009780:	a2c2aa00 	.word	0xa2c2aa00
 8009784:	00000000 	.word	0x00000000
 8009788:	05161500 	.word	0x05161500
 800978c:	00000000 	.word	0x00000000
 8009790:	51615500 	.word	0x51615500
 8009794:	00000000 	.word	0x00000000
 8009798:	003d0900 	.word	0x003d0900
 800979c:	0007a120 	.word	0x0007a120
 80097a0:	00155500 	.word	0x00155500
 80097a4:	07a12000 	.word	0x07a12000
 80097a8:	00a2c2aa 	.word	0x00a2c2aa
 80097ac:	001e8480 	.word	0x001e8480
 80097b0:	0003d090 	.word	0x0003d090
 80097b4:	f4240000 	.word	0xf4240000
 80097b8:	000ccc00 	.word	0x000ccc00
 80097bc:	061a8000 	.word	0x061a8000
 80097c0:	007a1200 	.word	0x007a1200
 80097c4:	000f4240 	.word	0x000f4240
 80097c8:	0001e848 	.word	0x0001e848
 80097cc:	7a120000 	.word	0x7a120000
 80097d0:	01e84800 	.word	0x01e84800
 80097d4:	03d09000 	.word	0x03d09000
 80097d8:	000aaa00 	.word	0x000aaa00
 80097dc:	61a80000 	.word	0x61a80000
 80097e0:	00f42400 	.word	0x00f42400

080097e4 <UART_AdvFeatureConfig>:
 80097e4:	b538      	push	{r3, r4, r5, lr}
 80097e6:	6a83      	ldr	r3, [r0, #40]	; 0x28
 80097e8:	4604      	mov	r4, r0
 80097ea:	2bff      	cmp	r3, #255	; 0xff
 80097ec:	f200 809a 	bhi.w	8009924 <UART_AdvFeatureConfig+0x140>
 80097f0:	07d8      	lsls	r0, r3, #31
 80097f2:	d50a      	bpl.n	800980a <UART_AdvFeatureConfig+0x26>
 80097f4:	6ae1      	ldr	r1, [r4, #44]	; 0x2c
 80097f6:	f431 3200 	bics.w	r2, r1, #131072	; 0x20000
 80097fa:	f040 80b3 	bne.w	8009964 <UART_AdvFeatureConfig+0x180>
 80097fe:	6820      	ldr	r0, [r4, #0]
 8009800:	6842      	ldr	r2, [r0, #4]
 8009802:	f422 3200 	bic.w	r2, r2, #131072	; 0x20000
 8009806:	430a      	orrs	r2, r1
 8009808:	6042      	str	r2, [r0, #4]
 800980a:	0799      	lsls	r1, r3, #30
 800980c:	d50a      	bpl.n	8009824 <UART_AdvFeatureConfig+0x40>
 800980e:	6b21      	ldr	r1, [r4, #48]	; 0x30
 8009810:	f431 3280 	bics.w	r2, r1, #65536	; 0x10000
 8009814:	f040 80ae 	bne.w	8009974 <UART_AdvFeatureConfig+0x190>
 8009818:	6820      	ldr	r0, [r4, #0]
 800981a:	6842      	ldr	r2, [r0, #4]
 800981c:	f422 3280 	bic.w	r2, r2, #65536	; 0x10000
 8009820:	430a      	orrs	r2, r1
 8009822:	6042      	str	r2, [r0, #4]
 8009824:	075a      	lsls	r2, r3, #29
 8009826:	d50a      	bpl.n	800983e <UART_AdvFeatureConfig+0x5a>
 8009828:	6b61      	ldr	r1, [r4, #52]	; 0x34
 800982a:	f431 2280 	bics.w	r2, r1, #262144	; 0x40000
 800982e:	f040 80a9 	bne.w	8009984 <UART_AdvFeatureConfig+0x1a0>
 8009832:	6820      	ldr	r0, [r4, #0]
 8009834:	6842      	ldr	r2, [r0, #4]
 8009836:	f422 2280 	bic.w	r2, r2, #262144	; 0x40000
 800983a:	430a      	orrs	r2, r1
 800983c:	6042      	str	r2, [r0, #4]
 800983e:	071d      	lsls	r5, r3, #28
 8009840:	d50a      	bpl.n	8009858 <UART_AdvFeatureConfig+0x74>
 8009842:	6ba1      	ldr	r1, [r4, #56]	; 0x38
 8009844:	f431 4200 	bics.w	r2, r1, #32768	; 0x8000
 8009848:	f040 80a4 	bne.w	8009994 <UART_AdvFeatureConfig+0x1b0>
 800984c:	6820      	ldr	r0, [r4, #0]
 800984e:	6842      	ldr	r2, [r0, #4]
 8009850:	f422 4200 	bic.w	r2, r2, #32768	; 0x8000
 8009854:	430a      	orrs	r2, r1
 8009856:	6042      	str	r2, [r0, #4]
 8009858:	06d8      	lsls	r0, r3, #27
 800985a:	d50a      	bpl.n	8009872 <UART_AdvFeatureConfig+0x8e>
 800985c:	6be1      	ldr	r1, [r4, #60]	; 0x3c
 800985e:	f431 5280 	bics.w	r2, r1, #4096	; 0x1000
 8009862:	f040 809f 	bne.w	80099a4 <UART_AdvFeatureConfig+0x1c0>
 8009866:	6820      	ldr	r0, [r4, #0]
 8009868:	6882      	ldr	r2, [r0, #8]
 800986a:	f422 5280 	bic.w	r2, r2, #4096	; 0x1000
 800986e:	430a      	orrs	r2, r1
 8009870:	6082      	str	r2, [r0, #8]
 8009872:	0699      	lsls	r1, r3, #26
 8009874:	d50a      	bpl.n	800988c <UART_AdvFeatureConfig+0xa8>
 8009876:	6c21      	ldr	r1, [r4, #64]	; 0x40
 8009878:	f431 5200 	bics.w	r2, r1, #8192	; 0x2000
 800987c:	f040 809a 	bne.w	80099b4 <UART_AdvFeatureConfig+0x1d0>
 8009880:	6820      	ldr	r0, [r4, #0]
 8009882:	6882      	ldr	r2, [r0, #8]
 8009884:	f422 5200 	bic.w	r2, r2, #8192	; 0x2000
 8009888:	430a      	orrs	r2, r1
 800988a:	6082      	str	r2, [r0, #8]
 800988c:	065a      	lsls	r2, r3, #25
 800988e:	d53c      	bpl.n	800990a <UART_AdvFeatureConfig+0x126>
 8009890:	6822      	ldr	r2, [r4, #0]
 8009892:	4b53      	ldr	r3, [pc, #332]	; (80099e0 <UART_AdvFeatureConfig+0x1fc>)
 8009894:	4953      	ldr	r1, [pc, #332]	; (80099e4 <UART_AdvFeatureConfig+0x200>)
 8009896:	4854      	ldr	r0, [pc, #336]	; (80099e8 <UART_AdvFeatureConfig+0x204>)
 8009898:	429a      	cmp	r2, r3
 800989a:	bf18      	it	ne
 800989c:	428a      	cmpne	r2, r1
 800989e:	f501 6100 	add.w	r1, r1, #2048	; 0x800
 80098a2:	4d52      	ldr	r5, [pc, #328]	; (80099ec <UART_AdvFeatureConfig+0x208>)
 80098a4:	bf14      	ite	ne
 80098a6:	2301      	movne	r3, #1
 80098a8:	2300      	moveq	r3, #0
 80098aa:	4282      	cmp	r2, r0
 80098ac:	bf0c      	ite	eq
 80098ae:	2300      	moveq	r3, #0
 80098b0:	f003 0301 	andne.w	r3, r3, #1
 80098b4:	f500 404c 	add.w	r0, r0, #52224	; 0xcc00
 80098b8:	428a      	cmp	r2, r1
 80098ba:	bf0c      	ite	eq
 80098bc:	2300      	moveq	r3, #0
 80098be:	f003 0301 	andne.w	r3, r3, #1
 80098c2:	f501 5130 	add.w	r1, r1, #11264	; 0x2c00
 80098c6:	42aa      	cmp	r2, r5
 80098c8:	bf0c      	ite	eq
 80098ca:	2300      	moveq	r3, #0
 80098cc:	f003 0301 	andne.w	r3, r3, #1
 80098d0:	4282      	cmp	r2, r0
 80098d2:	bf0c      	ite	eq
 80098d4:	2300      	moveq	r3, #0
 80098d6:	f003 0301 	andne.w	r3, r3, #1
 80098da:	428a      	cmp	r2, r1
 80098dc:	bf0c      	ite	eq
 80098de:	2300      	moveq	r3, #0
 80098e0:	f003 0301 	andne.w	r3, r3, #1
 80098e4:	b113      	cbz	r3, 80098ec <UART_AdvFeatureConfig+0x108>
 80098e6:	4b42      	ldr	r3, [pc, #264]	; (80099f0 <UART_AdvFeatureConfig+0x20c>)
 80098e8:	429a      	cmp	r2, r3
 80098ea:	d16b      	bne.n	80099c4 <UART_AdvFeatureConfig+0x1e0>
 80098ec:	6c62      	ldr	r2, [r4, #68]	; 0x44
 80098ee:	f432 1380 	bics.w	r3, r2, #1048576	; 0x100000
 80098f2:	d130      	bne.n	8009956 <UART_AdvFeatureConfig+0x172>
 80098f4:	6821      	ldr	r1, [r4, #0]
 80098f6:	f5b2 1f80 	cmp.w	r2, #1048576	; 0x100000
 80098fa:	684b      	ldr	r3, [r1, #4]
 80098fc:	f423 1380 	bic.w	r3, r3, #1048576	; 0x100000
 8009900:	ea43 0302 	orr.w	r3, r3, r2
 8009904:	604b      	str	r3, [r1, #4]
 8009906:	d01b      	beq.n	8009940 <UART_AdvFeatureConfig+0x15c>
 8009908:	6aa3      	ldr	r3, [r4, #40]	; 0x28
 800990a:	061b      	lsls	r3, r3, #24
 800990c:	d509      	bpl.n	8009922 <UART_AdvFeatureConfig+0x13e>
 800990e:	6ce2      	ldr	r2, [r4, #76]	; 0x4c
 8009910:	f432 2300 	bics.w	r3, r2, #524288	; 0x80000
 8009914:	d10d      	bne.n	8009932 <UART_AdvFeatureConfig+0x14e>
 8009916:	6821      	ldr	r1, [r4, #0]
 8009918:	684b      	ldr	r3, [r1, #4]
 800991a:	f423 2300 	bic.w	r3, r3, #524288	; 0x80000
 800991e:	4313      	orrs	r3, r2
 8009920:	604b      	str	r3, [r1, #4]
 8009922:	bd38      	pop	{r3, r4, r5, pc}
 8009924:	f640 4149 	movw	r1, #3145	; 0xc49
 8009928:	4832      	ldr	r0, [pc, #200]	; (80099f4 <UART_AdvFeatureConfig+0x210>)
 800992a:	f7f7 fab9 	bl	8000ea0 <assert_failed>
 800992e:	6aa3      	ldr	r3, [r4, #40]	; 0x28
 8009930:	e75e      	b.n	80097f0 <UART_AdvFeatureConfig+0xc>
 8009932:	f640 4186 	movw	r1, #3206	; 0xc86
 8009936:	482f      	ldr	r0, [pc, #188]	; (80099f4 <UART_AdvFeatureConfig+0x210>)
 8009938:	f7f7 fab2 	bl	8000ea0 <assert_failed>
 800993c:	6ce2      	ldr	r2, [r4, #76]	; 0x4c
 800993e:	e7ea      	b.n	8009916 <UART_AdvFeatureConfig+0x132>
 8009940:	6ca0      	ldr	r0, [r4, #72]	; 0x48
 8009942:	f430 03c0 	bics.w	r3, r0, #6291456	; 0x600000
 8009946:	d143      	bne.n	80099d0 <UART_AdvFeatureConfig+0x1ec>
 8009948:	684a      	ldr	r2, [r1, #4]
 800994a:	6aa3      	ldr	r3, [r4, #40]	; 0x28
 800994c:	f422 02c0 	bic.w	r2, r2, #6291456	; 0x600000
 8009950:	4302      	orrs	r2, r0
 8009952:	604a      	str	r2, [r1, #4]
 8009954:	e7d9      	b.n	800990a <UART_AdvFeatureConfig+0x126>
 8009956:	f640 4179 	movw	r1, #3193	; 0xc79
 800995a:	4826      	ldr	r0, [pc, #152]	; (80099f4 <UART_AdvFeatureConfig+0x210>)
 800995c:	f7f7 faa0 	bl	8000ea0 <assert_failed>
 8009960:	6c62      	ldr	r2, [r4, #68]	; 0x44
 8009962:	e7c7      	b.n	80098f4 <UART_AdvFeatureConfig+0x110>
 8009964:	f640 414e 	movw	r1, #3150	; 0xc4e
 8009968:	4822      	ldr	r0, [pc, #136]	; (80099f4 <UART_AdvFeatureConfig+0x210>)
 800996a:	f7f7 fa99 	bl	8000ea0 <assert_failed>
 800996e:	e9d4 310a 	ldrd	r3, r1, [r4, #40]	; 0x28
 8009972:	e744      	b.n	80097fe <UART_AdvFeatureConfig+0x1a>
 8009974:	f640 4155 	movw	r1, #3157	; 0xc55
 8009978:	481e      	ldr	r0, [pc, #120]	; (80099f4 <UART_AdvFeatureConfig+0x210>)
 800997a:	f7f7 fa91 	bl	8000ea0 <assert_failed>
 800997e:	6b21      	ldr	r1, [r4, #48]	; 0x30
 8009980:	6aa3      	ldr	r3, [r4, #40]	; 0x28
 8009982:	e749      	b.n	8009818 <UART_AdvFeatureConfig+0x34>
 8009984:	f640 415c 	movw	r1, #3164	; 0xc5c
 8009988:	481a      	ldr	r0, [pc, #104]	; (80099f4 <UART_AdvFeatureConfig+0x210>)
 800998a:	f7f7 fa89 	bl	8000ea0 <assert_failed>
 800998e:	6b61      	ldr	r1, [r4, #52]	; 0x34
 8009990:	6aa3      	ldr	r3, [r4, #40]	; 0x28
 8009992:	e74e      	b.n	8009832 <UART_AdvFeatureConfig+0x4e>
 8009994:	f640 4163 	movw	r1, #3171	; 0xc63
 8009998:	4816      	ldr	r0, [pc, #88]	; (80099f4 <UART_AdvFeatureConfig+0x210>)
 800999a:	f7f7 fa81 	bl	8000ea0 <assert_failed>
 800999e:	6ba1      	ldr	r1, [r4, #56]	; 0x38
 80099a0:	6aa3      	ldr	r3, [r4, #40]	; 0x28
 80099a2:	e753      	b.n	800984c <UART_AdvFeatureConfig+0x68>
 80099a4:	f640 416a 	movw	r1, #3178	; 0xc6a
 80099a8:	4812      	ldr	r0, [pc, #72]	; (80099f4 <UART_AdvFeatureConfig+0x210>)
 80099aa:	f7f7 fa79 	bl	8000ea0 <assert_failed>
 80099ae:	6be1      	ldr	r1, [r4, #60]	; 0x3c
 80099b0:	6aa3      	ldr	r3, [r4, #40]	; 0x28
 80099b2:	e758      	b.n	8009866 <UART_AdvFeatureConfig+0x82>
 80099b4:	f640 4171 	movw	r1, #3185	; 0xc71
 80099b8:	480e      	ldr	r0, [pc, #56]	; (80099f4 <UART_AdvFeatureConfig+0x210>)
 80099ba:	f7f7 fa71 	bl	8000ea0 <assert_failed>
 80099be:	6c21      	ldr	r1, [r4, #64]	; 0x40
 80099c0:	6aa3      	ldr	r3, [r4, #40]	; 0x28
 80099c2:	e75d      	b.n	8009880 <UART_AdvFeatureConfig+0x9c>
 80099c4:	f640 4178 	movw	r1, #3192	; 0xc78
 80099c8:	480a      	ldr	r0, [pc, #40]	; (80099f4 <UART_AdvFeatureConfig+0x210>)
 80099ca:	f7f7 fa69 	bl	8000ea0 <assert_failed>
 80099ce:	e78d      	b.n	80098ec <UART_AdvFeatureConfig+0x108>
 80099d0:	f640 417e 	movw	r1, #3198	; 0xc7e
 80099d4:	4807      	ldr	r0, [pc, #28]	; (80099f4 <UART_AdvFeatureConfig+0x210>)
 80099d6:	f7f7 fa63 	bl	8000ea0 <assert_failed>
 80099da:	6821      	ldr	r1, [r4, #0]
 80099dc:	6ca0      	ldr	r0, [r4, #72]	; 0x48
 80099de:	e7b3      	b.n	8009948 <UART_AdvFeatureConfig+0x164>
 80099e0:	40011000 	.word	0x40011000
 80099e4:	40004400 	.word	0x40004400
 80099e8:	40004800 	.word	0x40004800
 80099ec:	40005000 	.word	0x40005000
 80099f0:	40007c00 	.word	0x40007c00
 80099f4:	0800d26c 	.word	0x0800d26c

080099f8 <HAL_UART_Init>:
 80099f8:	2800      	cmp	r0, #0
 80099fa:	f000 80c4 	beq.w	8009b86 <HAL_UART_Init+0x18e>
 80099fe:	6802      	ldr	r2, [r0, #0]
 8009a00:	4b6d      	ldr	r3, [pc, #436]	; (8009bb8 <HAL_UART_Init+0x1c0>)
 8009a02:	496e      	ldr	r1, [pc, #440]	; (8009bbc <HAL_UART_Init+0x1c4>)
 8009a04:	429a      	cmp	r2, r3
 8009a06:	bf18      	it	ne
 8009a08:	428a      	cmpne	r2, r1
 8009a0a:	f5a1 4118 	sub.w	r1, r1, #38912	; 0x9800
 8009a0e:	bf14      	ite	ne
 8009a10:	2301      	movne	r3, #1
 8009a12:	2300      	moveq	r3, #0
 8009a14:	b570      	push	{r4, r5, r6, lr}
 8009a16:	4604      	mov	r4, r0
 8009a18:	4869      	ldr	r0, [pc, #420]	; (8009bc0 <HAL_UART_Init+0x1c8>)
 8009a1a:	4d6a      	ldr	r5, [pc, #424]	; (8009bc4 <HAL_UART_Init+0x1cc>)
 8009a1c:	4282      	cmp	r2, r0
 8009a1e:	bf0c      	ite	eq
 8009a20:	2300      	moveq	r3, #0
 8009a22:	f003 0301 	andne.w	r3, r3, #1
 8009a26:	f500 5050 	add.w	r0, r0, #13312	; 0x3400
 8009a2a:	428a      	cmp	r2, r1
 8009a2c:	bf0c      	ite	eq
 8009a2e:	2300      	moveq	r3, #0
 8009a30:	f003 0301 	andne.w	r3, r3, #1
 8009a34:	f501 411c 	add.w	r1, r1, #39936	; 0x9c00
 8009a38:	42aa      	cmp	r2, r5
 8009a3a:	bf0c      	ite	eq
 8009a3c:	2300      	moveq	r3, #0
 8009a3e:	f003 0301 	andne.w	r3, r3, #1
 8009a42:	f505 6580 	add.w	r5, r5, #1024	; 0x400
 8009a46:	4282      	cmp	r2, r0
 8009a48:	bf0c      	ite	eq
 8009a4a:	2300      	moveq	r3, #0
 8009a4c:	f003 0301 	andne.w	r3, r3, #1
 8009a50:	485d      	ldr	r0, [pc, #372]	; (8009bc8 <HAL_UART_Init+0x1d0>)
 8009a52:	428a      	cmp	r2, r1
 8009a54:	bf0c      	ite	eq
 8009a56:	2300      	moveq	r3, #0
 8009a58:	f003 0301 	andne.w	r3, r3, #1
 8009a5c:	69a1      	ldr	r1, [r4, #24]
 8009a5e:	42aa      	cmp	r2, r5
 8009a60:	bf0c      	ite	eq
 8009a62:	2300      	moveq	r3, #0
 8009a64:	f003 0301 	andne.w	r3, r3, #1
 8009a68:	4282      	cmp	r2, r0
 8009a6a:	bf0c      	ite	eq
 8009a6c:	2300      	moveq	r3, #0
 8009a6e:	f003 0301 	andne.w	r3, r3, #1
 8009a72:	2900      	cmp	r1, #0
 8009a74:	d173      	bne.n	8009b5e <HAL_UART_Init+0x166>
 8009a76:	2b00      	cmp	r3, #0
 8009a78:	f040 8098 	bne.w	8009bac <HAL_UART_Init+0x1b4>
 8009a7c:	f8d4 3080 	ldr.w	r3, [r4, #128]	; 0x80
 8009a80:	2b00      	cmp	r3, #0
 8009a82:	d076      	beq.n	8009b72 <HAL_UART_Init+0x17a>
 8009a84:	6822      	ldr	r2, [r4, #0]
 8009a86:	2324      	movs	r3, #36	; 0x24
 8009a88:	4620      	mov	r0, r4
 8009a8a:	f8c4 3080 	str.w	r3, [r4, #128]	; 0x80
 8009a8e:	6813      	ldr	r3, [r2, #0]
 8009a90:	f023 0301 	bic.w	r3, r3, #1
 8009a94:	6013      	str	r3, [r2, #0]
 8009a96:	f7fe fc8f 	bl	80083b8 <UART_SetConfig>
 8009a9a:	2801      	cmp	r0, #1
 8009a9c:	d067      	beq.n	8009b6e <HAL_UART_Init+0x176>
 8009a9e:	6aa3      	ldr	r3, [r4, #40]	; 0x28
 8009aa0:	2b00      	cmp	r3, #0
 8009aa2:	d16c      	bne.n	8009b7e <HAL_UART_Init+0x186>
 8009aa4:	6823      	ldr	r3, [r4, #0]
 8009aa6:	2100      	movs	r1, #0
 8009aa8:	685a      	ldr	r2, [r3, #4]
 8009aaa:	f422 4290 	bic.w	r2, r2, #18432	; 0x4800
 8009aae:	605a      	str	r2, [r3, #4]
 8009ab0:	689a      	ldr	r2, [r3, #8]
 8009ab2:	f022 022a 	bic.w	r2, r2, #42	; 0x2a
 8009ab6:	609a      	str	r2, [r3, #8]
 8009ab8:	681a      	ldr	r2, [r3, #0]
 8009aba:	f042 0201 	orr.w	r2, r2, #1
 8009abe:	601a      	str	r2, [r3, #0]
 8009ac0:	f8c4 1088 	str.w	r1, [r4, #136]	; 0x88
 8009ac4:	f7f7 fcf0 	bl	80014a8 <HAL_GetTick>
 8009ac8:	6823      	ldr	r3, [r4, #0]
 8009aca:	4606      	mov	r6, r0
 8009acc:	681a      	ldr	r2, [r3, #0]
 8009ace:	0710      	lsls	r0, r2, #28
 8009ad0:	d40c      	bmi.n	8009aec <HAL_UART_Init+0xf4>
 8009ad2:	681a      	ldr	r2, [r3, #0]
 8009ad4:	0750      	lsls	r0, r2, #29
 8009ad6:	d430      	bmi.n	8009b3a <HAL_UART_Init+0x142>
 8009ad8:	2220      	movs	r2, #32
 8009ada:	2300      	movs	r3, #0
 8009adc:	f8c4 2080 	str.w	r2, [r4, #128]	; 0x80
 8009ae0:	4618      	mov	r0, r3
 8009ae2:	f8c4 2084 	str.w	r2, [r4, #132]	; 0x84
 8009ae6:	f884 307c 	strb.w	r3, [r4, #124]	; 0x7c
 8009aea:	bd70      	pop	{r4, r5, r6, pc}
 8009aec:	69dd      	ldr	r5, [r3, #28]
 8009aee:	f415 1500 	ands.w	r5, r5, #2097152	; 0x200000
 8009af2:	d1ee      	bne.n	8009ad2 <HAL_UART_Init+0xda>
 8009af4:	f7f7 fcd8 	bl	80014a8 <HAL_GetTick>
 8009af8:	1b80      	subs	r0, r0, r6
 8009afa:	6823      	ldr	r3, [r4, #0]
 8009afc:	f1b0 7f00 	cmp.w	r0, #33554432	; 0x2000000
 8009b00:	d243      	bcs.n	8009b8a <HAL_UART_Init+0x192>
 8009b02:	681a      	ldr	r2, [r3, #0]
 8009b04:	0751      	lsls	r1, r2, #29
 8009b06:	d5f1      	bpl.n	8009aec <HAL_UART_Init+0xf4>
 8009b08:	69da      	ldr	r2, [r3, #28]
 8009b0a:	0512      	lsls	r2, r2, #20
 8009b0c:	d5ee      	bpl.n	8009aec <HAL_UART_Init+0xf4>
 8009b0e:	f44f 6100 	mov.w	r1, #2048	; 0x800
 8009b12:	2220      	movs	r2, #32
 8009b14:	2003      	movs	r0, #3
 8009b16:	6219      	str	r1, [r3, #32]
 8009b18:	6819      	ldr	r1, [r3, #0]
 8009b1a:	f421 71d0 	bic.w	r1, r1, #416	; 0x1a0
 8009b1e:	6019      	str	r1, [r3, #0]
 8009b20:	6899      	ldr	r1, [r3, #8]
 8009b22:	f021 0101 	bic.w	r1, r1, #1
 8009b26:	6099      	str	r1, [r3, #8]
 8009b28:	f8c4 2080 	str.w	r2, [r4, #128]	; 0x80
 8009b2c:	f884 507c 	strb.w	r5, [r4, #124]	; 0x7c
 8009b30:	f8c4 2084 	str.w	r2, [r4, #132]	; 0x84
 8009b34:	f8c4 2088 	str.w	r2, [r4, #136]	; 0x88
 8009b38:	bd70      	pop	{r4, r5, r6, pc}
 8009b3a:	69dd      	ldr	r5, [r3, #28]
 8009b3c:	f415 0580 	ands.w	r5, r5, #4194304	; 0x400000
 8009b40:	d1ca      	bne.n	8009ad8 <HAL_UART_Init+0xe0>
 8009b42:	f7f7 fcb1 	bl	80014a8 <HAL_GetTick>
 8009b46:	1b80      	subs	r0, r0, r6
 8009b48:	6823      	ldr	r3, [r4, #0]
 8009b4a:	f1b0 7f00 	cmp.w	r0, #33554432	; 0x2000000
 8009b4e:	d21c      	bcs.n	8009b8a <HAL_UART_Init+0x192>
 8009b50:	681a      	ldr	r2, [r3, #0]
 8009b52:	0751      	lsls	r1, r2, #29
 8009b54:	d5f1      	bpl.n	8009b3a <HAL_UART_Init+0x142>
 8009b56:	69da      	ldr	r2, [r3, #28]
 8009b58:	0512      	lsls	r2, r2, #20
 8009b5a:	d5ee      	bpl.n	8009b3a <HAL_UART_Init+0x142>
 8009b5c:	e7d7      	b.n	8009b0e <HAL_UART_Init+0x116>
 8009b5e:	2b00      	cmp	r3, #0
 8009b60:	d08c      	beq.n	8009a7c <HAL_UART_Init+0x84>
 8009b62:	f44f 7199 	mov.w	r1, #306	; 0x132
 8009b66:	4819      	ldr	r0, [pc, #100]	; (8009bcc <HAL_UART_Init+0x1d4>)
 8009b68:	f7f7 f99a 	bl	8000ea0 <assert_failed>
 8009b6c:	e786      	b.n	8009a7c <HAL_UART_Init+0x84>
 8009b6e:	2001      	movs	r0, #1
 8009b70:	bd70      	pop	{r4, r5, r6, pc}
 8009b72:	f884 307c 	strb.w	r3, [r4, #124]	; 0x7c
 8009b76:	4620      	mov	r0, r4
 8009b78:	f7f7 fbc0 	bl	80012fc <HAL_UART_MspInit>
 8009b7c:	e782      	b.n	8009a84 <HAL_UART_Init+0x8c>
 8009b7e:	4620      	mov	r0, r4
 8009b80:	f7ff fe30 	bl	80097e4 <UART_AdvFeatureConfig>
 8009b84:	e78e      	b.n	8009aa4 <HAL_UART_Init+0xac>
 8009b86:	2001      	movs	r0, #1
 8009b88:	4770      	bx	lr
 8009b8a:	681a      	ldr	r2, [r3, #0]
 8009b8c:	2120      	movs	r1, #32
 8009b8e:	2003      	movs	r0, #3
 8009b90:	f422 72d0 	bic.w	r2, r2, #416	; 0x1a0
 8009b94:	601a      	str	r2, [r3, #0]
 8009b96:	689a      	ldr	r2, [r3, #8]
 8009b98:	f022 0201 	bic.w	r2, r2, #1
 8009b9c:	609a      	str	r2, [r3, #8]
 8009b9e:	f8c4 1080 	str.w	r1, [r4, #128]	; 0x80
 8009ba2:	f884 507c 	strb.w	r5, [r4, #124]	; 0x7c
 8009ba6:	f8c4 1084 	str.w	r1, [r4, #132]	; 0x84
 8009baa:	bd70      	pop	{r4, r5, r6, pc}
 8009bac:	f240 1137 	movw	r1, #311	; 0x137
 8009bb0:	4806      	ldr	r0, [pc, #24]	; (8009bcc <HAL_UART_Init+0x1d4>)
 8009bb2:	f7f7 f975 	bl	8000ea0 <assert_failed>
 8009bb6:	e761      	b.n	8009a7c <HAL_UART_Init+0x84>
 8009bb8:	40004400 	.word	0x40004400
 8009bbc:	40011000 	.word	0x40011000
 8009bc0:	40004800 	.word	0x40004800
 8009bc4:	40004c00 	.word	0x40004c00
 8009bc8:	58000c00 	.word	0x58000c00
 8009bcc:	0800d26c 	.word	0x0800d26c

08009bd0 <HAL_UARTEx_DisableFifoMode>:
 8009bd0:	6802      	ldr	r2, [r0, #0]
 8009bd2:	4b28      	ldr	r3, [pc, #160]	; (8009c74 <HAL_UARTEx_DisableFifoMode+0xa4>)
 8009bd4:	4928      	ldr	r1, [pc, #160]	; (8009c78 <HAL_UARTEx_DisableFifoMode+0xa8>)
 8009bd6:	429a      	cmp	r2, r3
 8009bd8:	bf18      	it	ne
 8009bda:	428a      	cmpne	r2, r1
 8009bdc:	f501 6100 	add.w	r1, r1, #2048	; 0x800
 8009be0:	bf14      	ite	ne
 8009be2:	2301      	movne	r3, #1
 8009be4:	2300      	moveq	r3, #0
 8009be6:	b570      	push	{r4, r5, r6, lr}
 8009be8:	4604      	mov	r4, r0
 8009bea:	4824      	ldr	r0, [pc, #144]	; (8009c7c <HAL_UARTEx_DisableFifoMode+0xac>)
 8009bec:	4d24      	ldr	r5, [pc, #144]	; (8009c80 <HAL_UARTEx_DisableFifoMode+0xb0>)
 8009bee:	4282      	cmp	r2, r0
 8009bf0:	bf0c      	ite	eq
 8009bf2:	2300      	moveq	r3, #0
 8009bf4:	f003 0301 	andne.w	r3, r3, #1
 8009bf8:	f500 404c 	add.w	r0, r0, #52224	; 0xcc00
 8009bfc:	428a      	cmp	r2, r1
 8009bfe:	bf0c      	ite	eq
 8009c00:	2300      	moveq	r3, #0
 8009c02:	f003 0301 	andne.w	r3, r3, #1
 8009c06:	f501 5130 	add.w	r1, r1, #11264	; 0x2c00
 8009c0a:	42aa      	cmp	r2, r5
 8009c0c:	bf0c      	ite	eq
 8009c0e:	2300      	moveq	r3, #0
 8009c10:	f003 0301 	andne.w	r3, r3, #1
 8009c14:	4282      	cmp	r2, r0
 8009c16:	bf0c      	ite	eq
 8009c18:	2300      	moveq	r3, #0
 8009c1a:	f003 0301 	andne.w	r3, r3, #1
 8009c1e:	428a      	cmp	r2, r1
 8009c20:	bf0c      	ite	eq
 8009c22:	2300      	moveq	r3, #0
 8009c24:	f003 0301 	andne.w	r3, r3, #1
 8009c28:	b113      	cbz	r3, 8009c30 <HAL_UARTEx_DisableFifoMode+0x60>
 8009c2a:	4b16      	ldr	r3, [pc, #88]	; (8009c84 <HAL_UARTEx_DisableFifoMode+0xb4>)
 8009c2c:	429a      	cmp	r2, r3
 8009c2e:	d11a      	bne.n	8009c66 <HAL_UARTEx_DisableFifoMode+0x96>
 8009c30:	f894 307c 	ldrb.w	r3, [r4, #124]	; 0x7c
 8009c34:	2b01      	cmp	r3, #1
 8009c36:	d014      	beq.n	8009c62 <HAL_UARTEx_DisableFifoMode+0x92>
 8009c38:	6823      	ldr	r3, [r4, #0]
 8009c3a:	2124      	movs	r1, #36	; 0x24
 8009c3c:	2200      	movs	r2, #0
 8009c3e:	2620      	movs	r6, #32
 8009c40:	f8c4 1080 	str.w	r1, [r4, #128]	; 0x80
 8009c44:	6819      	ldr	r1, [r3, #0]
 8009c46:	4610      	mov	r0, r2
 8009c48:	681d      	ldr	r5, [r3, #0]
 8009c4a:	f021 5100 	bic.w	r1, r1, #536870912	; 0x20000000
 8009c4e:	f025 0501 	bic.w	r5, r5, #1
 8009c52:	601d      	str	r5, [r3, #0]
 8009c54:	6662      	str	r2, [r4, #100]	; 0x64
 8009c56:	6019      	str	r1, [r3, #0]
 8009c58:	f884 207c 	strb.w	r2, [r4, #124]	; 0x7c
 8009c5c:	f8c4 6080 	str.w	r6, [r4, #128]	; 0x80
 8009c60:	bd70      	pop	{r4, r5, r6, pc}
 8009c62:	2002      	movs	r0, #2
 8009c64:	bd70      	pop	{r4, r5, r6, pc}
 8009c66:	f240 2111 	movw	r1, #529	; 0x211
 8009c6a:	4807      	ldr	r0, [pc, #28]	; (8009c88 <HAL_UARTEx_DisableFifoMode+0xb8>)
 8009c6c:	f7f7 f918 	bl	8000ea0 <assert_failed>
 8009c70:	e7de      	b.n	8009c30 <HAL_UARTEx_DisableFifoMode+0x60>
 8009c72:	bf00      	nop
 8009c74:	40011000 	.word	0x40011000
 8009c78:	40004400 	.word	0x40004400
 8009c7c:	40004800 	.word	0x40004800
 8009c80:	40005000 	.word	0x40005000
 8009c84:	40007c00 	.word	0x40007c00
 8009c88:	0800d2a8 	.word	0x0800d2a8

08009c8c <HAL_UARTEx_SetTxFifoThreshold>:
 8009c8c:	b5f0      	push	{r4, r5, r6, r7, lr}
 8009c8e:	4604      	mov	r4, r0
 8009c90:	4b47      	ldr	r3, [pc, #284]	; (8009db0 <HAL_UARTEx_SetTxFifoThreshold+0x124>)
 8009c92:	4848      	ldr	r0, [pc, #288]	; (8009db4 <HAL_UARTEx_SetTxFifoThreshold+0x128>)
 8009c94:	460d      	mov	r5, r1
 8009c96:	6822      	ldr	r2, [r4, #0]
 8009c98:	b085      	sub	sp, #20
 8009c9a:	4947      	ldr	r1, [pc, #284]	; (8009db8 <HAL_UARTEx_SetTxFifoThreshold+0x12c>)
 8009c9c:	429a      	cmp	r2, r3
 8009c9e:	bf18      	it	ne
 8009ca0:	4282      	cmpne	r2, r0
 8009ca2:	f500 6000 	add.w	r0, r0, #2048	; 0x800
 8009ca6:	bf14      	ite	ne
 8009ca8:	2301      	movne	r3, #1
 8009caa:	2300      	moveq	r3, #0
 8009cac:	428a      	cmp	r2, r1
 8009cae:	bf0c      	ite	eq
 8009cb0:	2300      	moveq	r3, #0
 8009cb2:	f003 0301 	andne.w	r3, r3, #1
 8009cb6:	f501 6100 	add.w	r1, r1, #2048	; 0x800
 8009cba:	4282      	cmp	r2, r0
 8009cbc:	bf0c      	ite	eq
 8009cbe:	2300      	moveq	r3, #0
 8009cc0:	f003 0301 	andne.w	r3, r3, #1
 8009cc4:	f500 4048 	add.w	r0, r0, #51200	; 0xc800
 8009cc8:	428a      	cmp	r2, r1
 8009cca:	bf0c      	ite	eq
 8009ccc:	2300      	moveq	r3, #0
 8009cce:	f003 0301 	andne.w	r3, r3, #1
 8009cd2:	f501 5120 	add.w	r1, r1, #10240	; 0x2800
 8009cd6:	4282      	cmp	r2, r0
 8009cd8:	bf0c      	ite	eq
 8009cda:	2300      	moveq	r3, #0
 8009cdc:	f003 0301 	andne.w	r3, r3, #1
 8009ce0:	428a      	cmp	r2, r1
 8009ce2:	bf0c      	ite	eq
 8009ce4:	2300      	moveq	r3, #0
 8009ce6:	f003 0301 	andne.w	r3, r3, #1
 8009cea:	b113      	cbz	r3, 8009cf2 <HAL_UARTEx_SetTxFifoThreshold+0x66>
 8009cec:	4b33      	ldr	r3, [pc, #204]	; (8009dbc <HAL_UARTEx_SetTxFifoThreshold+0x130>)
 8009cee:	429a      	cmp	r2, r3
 8009cf0:	d157      	bne.n	8009da2 <HAL_UARTEx_SetTxFifoThreshold+0x116>
 8009cf2:	f035 42c0 	bics.w	r2, r5, #1610612736	; 0x60000000
 8009cf6:	f025 5300 	bic.w	r3, r5, #536870912	; 0x20000000
 8009cfa:	d002      	beq.n	8009d02 <HAL_UARTEx_SetTxFifoThreshold+0x76>
 8009cfc:	f1b3 4f00 	cmp.w	r3, #2147483648	; 0x80000000
 8009d00:	d149      	bne.n	8009d96 <HAL_UARTEx_SetTxFifoThreshold+0x10a>
 8009d02:	f894 307c 	ldrb.w	r3, [r4, #124]	; 0x7c
 8009d06:	2b01      	cmp	r3, #1
 8009d08:	d042      	beq.n	8009d90 <HAL_UARTEx_SetTxFifoThreshold+0x104>
 8009d0a:	6823      	ldr	r3, [r4, #0]
 8009d0c:	2224      	movs	r2, #36	; 0x24
 8009d0e:	492c      	ldr	r1, [pc, #176]	; (8009dc0 <HAL_UARTEx_SetTxFifoThreshold+0x134>)
 8009d10:	f8c4 2080 	str.w	r2, [r4, #128]	; 0x80
 8009d14:	6818      	ldr	r0, [r3, #0]
 8009d16:	681a      	ldr	r2, [r3, #0]
 8009d18:	9100      	str	r1, [sp, #0]
 8009d1a:	f240 1107 	movw	r1, #263	; 0x107
 8009d1e:	f022 0201 	bic.w	r2, r2, #1
 8009d22:	4e28      	ldr	r6, [pc, #160]	; (8009dc4 <HAL_UARTEx_SetTxFifoThreshold+0x138>)
 8009d24:	9101      	str	r1, [sp, #4]
 8009d26:	f101 7180 	add.w	r1, r1, #16777216	; 0x1000000
 8009d2a:	601a      	str	r2, [r3, #0]
 8009d2c:	689a      	ldr	r2, [r3, #8]
 8009d2e:	f101 1101 	add.w	r1, r1, #65537	; 0x10001
 8009d32:	9602      	str	r6, [sp, #8]
 8009d34:	f022 4260 	bic.w	r2, r2, #3758096384	; 0xe0000000
 8009d38:	9103      	str	r1, [sp, #12]
 8009d3a:	4315      	orrs	r5, r2
 8009d3c:	6e62      	ldr	r2, [r4, #100]	; 0x64
 8009d3e:	609d      	str	r5, [r3, #8]
 8009d40:	b31a      	cbz	r2, 8009d8a <HAL_UARTEx_SetTxFifoThreshold+0xfe>
 8009d42:	689d      	ldr	r5, [r3, #8]
 8009d44:	aa04      	add	r2, sp, #16
 8009d46:	689e      	ldr	r6, [r3, #8]
 8009d48:	f3c5 6542 	ubfx	r5, r5, #25, #3
 8009d4c:	eb02 7656 	add.w	r6, r2, r6, lsr #29
 8009d50:	4415      	add	r5, r2
 8009d52:	f816 1c10 	ldrb.w	r1, [r6, #-16]
 8009d56:	f815 2c10 	ldrb.w	r2, [r5, #-16]
 8009d5a:	f815 7c08 	ldrb.w	r7, [r5, #-8]
 8009d5e:	00c9      	lsls	r1, r1, #3
 8009d60:	00d2      	lsls	r2, r2, #3
 8009d62:	f816 5c08 	ldrb.w	r5, [r6, #-8]
 8009d66:	fb92 f2f7 	sdiv	r2, r2, r7
 8009d6a:	fb91 f1f5 	sdiv	r1, r1, r5
 8009d6e:	f8a4 2068 	strh.w	r2, [r4, #104]	; 0x68
 8009d72:	2200      	movs	r2, #0
 8009d74:	2520      	movs	r5, #32
 8009d76:	f8a4 106a 	strh.w	r1, [r4, #106]	; 0x6a
 8009d7a:	6018      	str	r0, [r3, #0]
 8009d7c:	4610      	mov	r0, r2
 8009d7e:	f8c4 5080 	str.w	r5, [r4, #128]	; 0x80
 8009d82:	f884 207c 	strb.w	r2, [r4, #124]	; 0x7c
 8009d86:	b005      	add	sp, #20
 8009d88:	bdf0      	pop	{r4, r5, r6, r7, pc}
 8009d8a:	2201      	movs	r2, #1
 8009d8c:	4611      	mov	r1, r2
 8009d8e:	e7ee      	b.n	8009d6e <HAL_UARTEx_SetTxFifoThreshold+0xe2>
 8009d90:	2002      	movs	r0, #2
 8009d92:	b005      	add	sp, #20
 8009d94:	bdf0      	pop	{r4, r5, r6, r7, pc}
 8009d96:	f44f 7110 	mov.w	r1, #576	; 0x240
 8009d9a:	480b      	ldr	r0, [pc, #44]	; (8009dc8 <HAL_UARTEx_SetTxFifoThreshold+0x13c>)
 8009d9c:	f7f7 f880 	bl	8000ea0 <assert_failed>
 8009da0:	e7af      	b.n	8009d02 <HAL_UARTEx_SetTxFifoThreshold+0x76>
 8009da2:	f240 213f 	movw	r1, #575	; 0x23f
 8009da6:	4808      	ldr	r0, [pc, #32]	; (8009dc8 <HAL_UARTEx_SetTxFifoThreshold+0x13c>)
 8009da8:	f7f7 f87a 	bl	8000ea0 <assert_failed>
 8009dac:	e7a1      	b.n	8009cf2 <HAL_UARTEx_SetTxFifoThreshold+0x66>
 8009dae:	bf00      	nop
 8009db0:	40011000 	.word	0x40011000
 8009db4:	40004400 	.word	0x40004400
 8009db8:	40004800 	.word	0x40004800
 8009dbc:	40007c00 	.word	0x40007c00
 8009dc0:	03010101 	.word	0x03010101
 8009dc4:	04020408 	.word	0x04020408
 8009dc8:	0800d2a8 	.word	0x0800d2a8

08009dcc <HAL_UARTEx_SetRxFifoThreshold>:
 8009dcc:	b5f0      	push	{r4, r5, r6, r7, lr}
 8009dce:	4604      	mov	r4, r0
 8009dd0:	4b47      	ldr	r3, [pc, #284]	; (8009ef0 <HAL_UARTEx_SetRxFifoThreshold+0x124>)
 8009dd2:	4848      	ldr	r0, [pc, #288]	; (8009ef4 <HAL_UARTEx_SetRxFifoThreshold+0x128>)
 8009dd4:	460d      	mov	r5, r1
 8009dd6:	6822      	ldr	r2, [r4, #0]
 8009dd8:	b085      	sub	sp, #20
 8009dda:	4947      	ldr	r1, [pc, #284]	; (8009ef8 <HAL_UARTEx_SetRxFifoThreshold+0x12c>)
 8009ddc:	429a      	cmp	r2, r3
 8009dde:	bf18      	it	ne
 8009de0:	4282      	cmpne	r2, r0
 8009de2:	f500 6000 	add.w	r0, r0, #2048	; 0x800
 8009de6:	bf14      	ite	ne
 8009de8:	2301      	movne	r3, #1
 8009dea:	2300      	moveq	r3, #0
 8009dec:	428a      	cmp	r2, r1
 8009dee:	bf0c      	ite	eq
 8009df0:	2300      	moveq	r3, #0
 8009df2:	f003 0301 	andne.w	r3, r3, #1
 8009df6:	f501 6100 	add.w	r1, r1, #2048	; 0x800
 8009dfa:	4282      	cmp	r2, r0
 8009dfc:	bf0c      	ite	eq
 8009dfe:	2300      	moveq	r3, #0
 8009e00:	f003 0301 	andne.w	r3, r3, #1
 8009e04:	f500 4048 	add.w	r0, r0, #51200	; 0xc800
 8009e08:	428a      	cmp	r2, r1
 8009e0a:	bf0c      	ite	eq
 8009e0c:	2300      	moveq	r3, #0
 8009e0e:	f003 0301 	andne.w	r3, r3, #1
 8009e12:	f501 5120 	add.w	r1, r1, #10240	; 0x2800
 8009e16:	4282      	cmp	r2, r0
 8009e18:	bf0c      	ite	eq
 8009e1a:	2300      	moveq	r3, #0
 8009e1c:	f003 0301 	andne.w	r3, r3, #1
 8009e20:	428a      	cmp	r2, r1
 8009e22:	bf0c      	ite	eq
 8009e24:	2300      	moveq	r3, #0
 8009e26:	f003 0301 	andne.w	r3, r3, #1
 8009e2a:	b113      	cbz	r3, 8009e32 <HAL_UARTEx_SetRxFifoThreshold+0x66>
 8009e2c:	4b33      	ldr	r3, [pc, #204]	; (8009efc <HAL_UARTEx_SetRxFifoThreshold+0x130>)
 8009e2e:	429a      	cmp	r2, r3
 8009e30:	d157      	bne.n	8009ee2 <HAL_UARTEx_SetRxFifoThreshold+0x116>
 8009e32:	f035 62c0 	bics.w	r2, r5, #100663296	; 0x6000000
 8009e36:	f025 7300 	bic.w	r3, r5, #33554432	; 0x2000000
 8009e3a:	d002      	beq.n	8009e42 <HAL_UARTEx_SetRxFifoThreshold+0x76>
 8009e3c:	f1b3 6f00 	cmp.w	r3, #134217728	; 0x8000000
 8009e40:	d149      	bne.n	8009ed6 <HAL_UARTEx_SetRxFifoThreshold+0x10a>
 8009e42:	f894 307c 	ldrb.w	r3, [r4, #124]	; 0x7c
 8009e46:	2b01      	cmp	r3, #1
 8009e48:	d042      	beq.n	8009ed0 <HAL_UARTEx_SetRxFifoThreshold+0x104>
 8009e4a:	6823      	ldr	r3, [r4, #0]
 8009e4c:	2224      	movs	r2, #36	; 0x24
 8009e4e:	492c      	ldr	r1, [pc, #176]	; (8009f00 <HAL_UARTEx_SetRxFifoThreshold+0x134>)
 8009e50:	f8c4 2080 	str.w	r2, [r4, #128]	; 0x80
 8009e54:	6818      	ldr	r0, [r3, #0]
 8009e56:	681a      	ldr	r2, [r3, #0]
 8009e58:	9100      	str	r1, [sp, #0]
 8009e5a:	f240 1107 	movw	r1, #263	; 0x107
 8009e5e:	f022 0201 	bic.w	r2, r2, #1
 8009e62:	4e28      	ldr	r6, [pc, #160]	; (8009f04 <HAL_UARTEx_SetRxFifoThreshold+0x138>)
 8009e64:	9101      	str	r1, [sp, #4]
 8009e66:	f101 7180 	add.w	r1, r1, #16777216	; 0x1000000
 8009e6a:	601a      	str	r2, [r3, #0]
 8009e6c:	689a      	ldr	r2, [r3, #8]
 8009e6e:	f101 1101 	add.w	r1, r1, #65537	; 0x10001
 8009e72:	9602      	str	r6, [sp, #8]
 8009e74:	f022 6260 	bic.w	r2, r2, #234881024	; 0xe000000
 8009e78:	9103      	str	r1, [sp, #12]
 8009e7a:	4315      	orrs	r5, r2
 8009e7c:	6e62      	ldr	r2, [r4, #100]	; 0x64
 8009e7e:	609d      	str	r5, [r3, #8]
 8009e80:	b31a      	cbz	r2, 8009eca <HAL_UARTEx_SetRxFifoThreshold+0xfe>
 8009e82:	689d      	ldr	r5, [r3, #8]
 8009e84:	aa04      	add	r2, sp, #16
 8009e86:	689e      	ldr	r6, [r3, #8]
 8009e88:	f3c5 6542 	ubfx	r5, r5, #25, #3
 8009e8c:	eb02 7656 	add.w	r6, r2, r6, lsr #29
 8009e90:	4415      	add	r5, r2
 8009e92:	f816 1c10 	ldrb.w	r1, [r6, #-16]
 8009e96:	f815 2c10 	ldrb.w	r2, [r5, #-16]
 8009e9a:	f815 7c08 	ldrb.w	r7, [r5, #-8]
 8009e9e:	00c9      	lsls	r1, r1, #3
 8009ea0:	00d2      	lsls	r2, r2, #3
 8009ea2:	f816 5c08 	ldrb.w	r5, [r6, #-8]
 8009ea6:	fb92 f2f7 	sdiv	r2, r2, r7
 8009eaa:	fb91 f1f5 	sdiv	r1, r1, r5
 8009eae:	f8a4 2068 	strh.w	r2, [r4, #104]	; 0x68
 8009eb2:	2200      	movs	r2, #0
 8009eb4:	2520      	movs	r5, #32
 8009eb6:	f8a4 106a 	strh.w	r1, [r4, #106]	; 0x6a
 8009eba:	6018      	str	r0, [r3, #0]
 8009ebc:	4610      	mov	r0, r2
 8009ebe:	f8c4 5080 	str.w	r5, [r4, #128]	; 0x80
 8009ec2:	f884 207c 	strb.w	r2, [r4, #124]	; 0x7c
 8009ec6:	b005      	add	sp, #20
 8009ec8:	bdf0      	pop	{r4, r5, r6, r7, pc}
 8009eca:	2201      	movs	r2, #1
 8009ecc:	4611      	mov	r1, r2
 8009ece:	e7ee      	b.n	8009eae <HAL_UARTEx_SetRxFifoThreshold+0xe2>
 8009ed0:	2002      	movs	r0, #2
 8009ed2:	b005      	add	sp, #20
 8009ed4:	bdf0      	pop	{r4, r5, r6, r7, pc}
 8009ed6:	f240 2171 	movw	r1, #625	; 0x271
 8009eda:	480b      	ldr	r0, [pc, #44]	; (8009f08 <HAL_UARTEx_SetRxFifoThreshold+0x13c>)
 8009edc:	f7f6 ffe0 	bl	8000ea0 <assert_failed>
 8009ee0:	e7af      	b.n	8009e42 <HAL_UARTEx_SetRxFifoThreshold+0x76>
 8009ee2:	f44f 711c 	mov.w	r1, #624	; 0x270
 8009ee6:	4808      	ldr	r0, [pc, #32]	; (8009f08 <HAL_UARTEx_SetRxFifoThreshold+0x13c>)
 8009ee8:	f7f6 ffda 	bl	8000ea0 <assert_failed>
 8009eec:	e7a1      	b.n	8009e32 <HAL_UARTEx_SetRxFifoThreshold+0x66>
 8009eee:	bf00      	nop
 8009ef0:	40011000 	.word	0x40011000
 8009ef4:	40004400 	.word	0x40004400
 8009ef8:	40004800 	.word	0x40004800
 8009efc:	40007c00 	.word	0x40007c00
 8009f00:	03010101 	.word	0x03010101
 8009f04:	04020408 	.word	0x04020408
 8009f08:	0800d2a8 	.word	0x0800d2a8

08009f0c <HAL_GPIO_EXTI_Callback>:
 8009f0c:	4770      	bx	lr
 8009f0e:	bf00      	nop

08009f10 <cisTIM_Init>:
 8009f10:	4931      	ldr	r1, [pc, #196]	; (8009fd8 <cisTIM_Init+0xc8>)
 8009f12:	2300      	movs	r3, #0
 8009f14:	4a31      	ldr	r2, [pc, #196]	; (8009fdc <cisTIM_Init+0xcc>)
 8009f16:	b570      	push	{r4, r5, r6, lr}
 8009f18:	680d      	ldr	r5, [r1, #0]
 8009f1a:	b08a      	sub	sp, #40	; 0x28
 8009f1c:	4930      	ldr	r1, [pc, #192]	; (8009fe0 <cisTIM_Init+0xd0>)
 8009f1e:	086d      	lsrs	r5, r5, #1
 8009f20:	6053      	str	r3, [r2, #4]
 8009f22:	9301      	str	r3, [sp, #4]
 8009f24:	6011      	str	r1, [r2, #0]
 8009f26:	9306      	str	r3, [sp, #24]
 8009f28:	9303      	str	r3, [sp, #12]
 8009f2a:	6093      	str	r3, [r2, #8]
 8009f2c:	9302      	str	r3, [sp, #8]
 8009f2e:	9309      	str	r3, [sp, #36]	; 0x24
 8009f30:	fbb5 f5f0 	udiv	r5, r5, r0
 8009f34:	4610      	mov	r0, r2
 8009f36:	e9cd 3307 	strd	r3, r3, [sp, #28]
 8009f3a:	e9cd 3304 	strd	r3, r3, [sp, #16]
 8009f3e:	f7fa fa69 	bl	8004414 <HAL_HRTIM_Init>
 8009f42:	2800      	cmp	r0, #0
 8009f44:	d144      	bne.n	8009fd0 <cisTIM_Init+0xc0>
 8009f46:	f44f 3080 	mov.w	r0, #65536	; 0x10000
 8009f4a:	f44f 5300 	mov.w	r3, #8192	; 0x2000
 8009f4e:	aa01      	add	r2, sp, #4
 8009f50:	2101      	movs	r1, #1
 8009f52:	9001      	str	r0, [sp, #4]
 8009f54:	4821      	ldr	r0, [pc, #132]	; (8009fdc <cisTIM_Init+0xcc>)
 8009f56:	9302      	str	r3, [sp, #8]
 8009f58:	f7fa fccc 	bl	80048f4 <HAL_HRTIM_ADCTriggerConfig>
 8009f5c:	2800      	cmp	r0, #0
 8009f5e:	d134      	bne.n	8009fca <cisTIM_Init+0xba>
 8009f60:	2300      	movs	r3, #0
 8009f62:	2005      	movs	r0, #5
 8009f64:	2408      	movs	r4, #8
 8009f66:	aa06      	add	r2, sp, #24
 8009f68:	4619      	mov	r1, r3
 8009f6a:	9506      	str	r5, [sp, #24]
 8009f6c:	9409      	str	r4, [sp, #36]	; 0x24
 8009f6e:	e9cd 3007 	strd	r3, r0, [sp, #28]
 8009f72:	481a      	ldr	r0, [pc, #104]	; (8009fdc <cisTIM_Init+0xcc>)
 8009f74:	f7fa fafe 	bl	8004574 <HAL_HRTIM_TimeBaseConfig>
 8009f78:	bb20      	cbnz	r0, 8009fc4 <cisTIM_Init+0xb4>
 8009f7a:	2432      	movs	r4, #50	; 0x32
 8009f7c:	4919      	ldr	r1, [pc, #100]	; (8009fe4 <cisTIM_Init+0xd4>)
 8009f7e:	2002      	movs	r0, #2
 8009f80:	2608      	movs	r6, #8
 8009f82:	fb04 f405 	mul.w	r4, r4, r5
 8009f86:	ab03      	add	r3, sp, #12
 8009f88:	9004      	str	r0, [sp, #16]
 8009f8a:	2201      	movs	r2, #1
 8009f8c:	fba1 1404 	umull	r1, r4, r1, r4
 8009f90:	4812      	ldr	r0, [pc, #72]	; (8009fdc <cisTIM_Init+0xcc>)
 8009f92:	2100      	movs	r1, #0
 8009f94:	9506      	str	r5, [sp, #24]
 8009f96:	0964      	lsrs	r4, r4, #5
 8009f98:	9605      	str	r6, [sp, #20]
 8009f9a:	9403      	str	r4, [sp, #12]
 8009f9c:	f7fa fb3e 	bl	800461c <HAL_HRTIM_SimplePWMChannelConfig>
 8009fa0:	b968      	cbnz	r0, 8009fbe <cisTIM_Init+0xae>
 8009fa2:	480e      	ldr	r0, [pc, #56]	; (8009fdc <cisTIM_Init+0xcc>)
 8009fa4:	f7f6 fe56 	bl	8000c54 <HAL_HRTIM_MspPostInit>
 8009fa8:	2201      	movs	r2, #1
 8009faa:	2100      	movs	r1, #0
 8009fac:	480b      	ldr	r0, [pc, #44]	; (8009fdc <cisTIM_Init+0xcc>)
 8009fae:	f7fa fc45 	bl	800483c <HAL_HRTIM_SimplePWMStart>
 8009fb2:	b108      	cbz	r0, 8009fb8 <cisTIM_Init+0xa8>
 8009fb4:	f7f6 fe7e 	bl	8000cb4 <Error_Handler>
 8009fb8:	2000      	movs	r0, #0
 8009fba:	b00a      	add	sp, #40	; 0x28
 8009fbc:	bd70      	pop	{r4, r5, r6, pc}
 8009fbe:	f7f6 fe79 	bl	8000cb4 <Error_Handler>
 8009fc2:	e7ee      	b.n	8009fa2 <cisTIM_Init+0x92>
 8009fc4:	f7f6 fe76 	bl	8000cb4 <Error_Handler>
 8009fc8:	e7d7      	b.n	8009f7a <cisTIM_Init+0x6a>
 8009fca:	f7f6 fe73 	bl	8000cb4 <Error_Handler>
 8009fce:	e7c7      	b.n	8009f60 <cisTIM_Init+0x50>
 8009fd0:	f7f6 fe70 	bl	8000cb4 <Error_Handler>
 8009fd4:	e7b7      	b.n	8009f46 <cisTIM_Init+0x36>
 8009fd6:	bf00      	nop
 8009fd8:	24000000 	.word	0x24000000
 8009fdc:	2400b6ac 	.word	0x2400b6ac
 8009fe0:	40017400 	.word	0x40017400
 8009fe4:	51eb851f 	.word	0x51eb851f

08009fe8 <cisADC_Init>:
 8009fe8:	4a35      	ldr	r2, [pc, #212]	; (800a0c0 <cisADC_Init+0xd8>)
 8009fea:	f44f 2180 	mov.w	r1, #262144	; 0x40000
 8009fee:	4835      	ldr	r0, [pc, #212]	; (800a0c4 <cisADC_Init+0xdc>)
 8009ff0:	2304      	movs	r3, #4
 8009ff2:	b5f0      	push	{r4, r5, r6, r7, lr}
 8009ff4:	f44f 64c0 	mov.w	r4, #1536	; 0x600
 8009ff8:	6010      	str	r0, [r2, #0]
 8009ffa:	f44f 6000 	mov.w	r0, #2048	; 0x800
 8009ffe:	b08d      	sub	sp, #52	; 0x34
 800a000:	2501      	movs	r5, #1
 800a002:	6051      	str	r1, [r2, #4]
 800a004:	6113      	str	r3, [r2, #16]
 800a006:	f44f 5180 	mov.w	r1, #4096	; 0x1000
 800a00a:	2300      	movs	r3, #0
 800a00c:	6195      	str	r5, [r2, #24]
 800a00e:	6311      	str	r1, [r2, #48]	; 0x30
 800a010:	6093      	str	r3, [r2, #8]
 800a012:	9301      	str	r3, [sp, #4]
 800a014:	9304      	str	r3, [sp, #16]
 800a016:	60d3      	str	r3, [r2, #12]
 800a018:	7513      	strb	r3, [r2, #20]
 800a01a:	7553      	strb	r3, [r2, #21]
 800a01c:	7713      	strb	r3, [r2, #28]
 800a01e:	62d3      	str	r3, [r2, #44]	; 0x2c
 800a020:	6353      	str	r3, [r2, #52]	; 0x34
 800a022:	f882 3038 	strb.w	r3, [r2, #56]	; 0x38
 800a026:	e9c2 4009 	strd	r4, r0, [r2, #36]	; 0x24
 800a02a:	4610      	mov	r0, r2
 800a02c:	e9cd 3302 	strd	r3, r3, [sp, #8]
 800a030:	e9cd 3305 	strd	r3, r3, [sp, #20]
 800a034:	e9cd 3307 	strd	r3, r3, [sp, #28]
 800a038:	e9cd 3309 	strd	r3, r3, [sp, #36]	; 0x24
 800a03c:	f7f8 fa9c 	bl	8002578 <HAL_ADC_Init>
 800a040:	2800      	cmp	r0, #0
 800a042:	d136      	bne.n	800a0b2 <cisADC_Init+0xca>
 800a044:	2300      	movs	r3, #0
 800a046:	a901      	add	r1, sp, #4
 800a048:	481d      	ldr	r0, [pc, #116]	; (800a0c0 <cisADC_Init+0xd8>)
 800a04a:	9301      	str	r3, [sp, #4]
 800a04c:	f7f8 fdae 	bl	8002bac <HAL_ADCEx_MultiModeConfigChannel>
 800a050:	bb60      	cbnz	r0, 800a0ac <cisADC_Init+0xc4>
 800a052:	2300      	movs	r3, #0
 800a054:	2601      	movs	r6, #1
 800a056:	f240 77ff 	movw	r7, #2047	; 0x7ff
 800a05a:	2204      	movs	r2, #4
 800a05c:	f88d 3028 	strb.w	r3, [sp, #40]	; 0x28
 800a060:	a904      	add	r1, sp, #16
 800a062:	f88d 3029 	strb.w	r3, [sp, #41]	; 0x29
 800a066:	2300      	movs	r3, #0
 800a068:	4815      	ldr	r0, [pc, #84]	; (800a0c0 <cisADC_Init+0xd8>)
 800a06a:	a513      	add	r5, pc, #76	; (adr r5, 800a0b8 <cisADC_Init+0xd0>)
 800a06c:	e9d5 4500 	ldrd	r4, r5, [r5]
 800a070:	e9cd 6706 	strd	r6, r7, [sp, #24]
 800a074:	e9cd 4504 	strd	r4, r5, [sp, #16]
 800a078:	e9cd 2308 	strd	r2, r3, [sp, #32]
 800a07c:	f7f7 fcdc 	bl	8001a38 <HAL_ADC_ConfigChannel>
 800a080:	b988      	cbnz	r0, 800a0a6 <cisADC_Init+0xbe>
 800a082:	f240 72ff 	movw	r2, #2047	; 0x7ff
 800a086:	2100      	movs	r1, #0
 800a088:	480d      	ldr	r0, [pc, #52]	; (800a0c0 <cisADC_Init+0xd8>)
 800a08a:	f7f8 fd07 	bl	8002a9c <HAL_ADCEx_Calibration_Start>
 800a08e:	b938      	cbnz	r0, 800a0a0 <cisADC_Init+0xb8>
 800a090:	480b      	ldr	r0, [pc, #44]	; (800a0c0 <cisADC_Init+0xd8>)
 800a092:	f7f7 fa2f 	bl	80014f4 <HAL_ADC_Start_IT>
 800a096:	b108      	cbz	r0, 800a09c <cisADC_Init+0xb4>
 800a098:	f7f6 fe0c 	bl	8000cb4 <Error_Handler>
 800a09c:	b00d      	add	sp, #52	; 0x34
 800a09e:	bdf0      	pop	{r4, r5, r6, r7, pc}
 800a0a0:	f7f6 fe08 	bl	8000cb4 <Error_Handler>
 800a0a4:	e7f4      	b.n	800a090 <cisADC_Init+0xa8>
 800a0a6:	f7f6 fe05 	bl	8000cb4 <Error_Handler>
 800a0aa:	e7ea      	b.n	800a082 <cisADC_Init+0x9a>
 800a0ac:	f7f6 fe02 	bl	8000cb4 <Error_Handler>
 800a0b0:	e7cf      	b.n	800a052 <cisADC_Init+0x6a>
 800a0b2:	f7f6 fdff 	bl	8000cb4 <Error_Handler>
 800a0b6:	e7c5      	b.n	800a044 <cisADC_Init+0x5c>
 800a0b8:	14f00020 	.word	0x14f00020
 800a0bc:	00000006 	.word	0x00000006
 800a0c0:	2400b634 	.word	0x2400b634
 800a0c4:	40022000 	.word	0x40022000

0800a0c8 <cisInit>:
 800a0c8:	b538      	push	{r3, r4, r5, lr}
 800a0ca:	f7ff ff8d 	bl	8009fe8 <cisADC_Init>
 800a0ce:	4815      	ldr	r0, [pc, #84]	; (800a124 <cisInit+0x5c>)
 800a0d0:	f7ff ff1e 	bl	8009f10 <cisTIM_Init>
 800a0d4:	2064      	movs	r0, #100	; 0x64
 800a0d6:	f7f7 f9ed 	bl	80014b4 <HAL_Delay>
 800a0da:	4813      	ldr	r0, [pc, #76]	; (800a128 <cisInit+0x60>)
 800a0dc:	f000 fd86 	bl	800abec <puts>
 800a0e0:	2300      	movs	r3, #0
 800a0e2:	4d12      	ldr	r5, [pc, #72]	; (800a12c <cisInit+0x64>)
 800a0e4:	461a      	mov	r2, r3
 800a0e6:	4619      	mov	r1, r3
 800a0e8:	702b      	strb	r3, [r5, #0]
 800a0ea:	782b      	ldrb	r3, [r5, #0]
 800a0ec:	2b00      	cmp	r3, #0
 800a0ee:	d0fc      	beq.n	800a0ea <cisInit+0x22>
 800a0f0:	3201      	adds	r2, #1
 800a0f2:	7029      	strb	r1, [r5, #0]
 800a0f4:	2a0a      	cmp	r2, #10
 800a0f6:	d1f8      	bne.n	800a0ea <cisInit+0x22>
 800a0f8:	2301      	movs	r3, #1
 800a0fa:	2200      	movs	r2, #0
 800a0fc:	490c      	ldr	r1, [pc, #48]	; (800a130 <cisInit+0x68>)
 800a0fe:	f241 441c 	movw	r4, #5148	; 0x141c
 800a102:	480c      	ldr	r0, [pc, #48]	; (800a134 <cisInit+0x6c>)
 800a104:	702b      	strb	r3, [r5, #0]
 800a106:	f851 3022 	ldr.w	r3, [r1, r2, lsl #2]
 800a10a:	fba0 5303 	umull	r5, r3, r0, r3
 800a10e:	08db      	lsrs	r3, r3, #3
 800a110:	f841 3022 	str.w	r3, [r1, r2, lsl #2]
 800a114:	3201      	adds	r2, #1
 800a116:	42a2      	cmp	r2, r4
 800a118:	d1f5      	bne.n	800a106 <cisInit+0x3e>
 800a11a:	4807      	ldr	r0, [pc, #28]	; (800a138 <cisInit+0x70>)
 800a11c:	e8bd 4038 	ldmia.w	sp!, {r3, r4, r5, lr}
 800a120:	f000 bd64 	b.w	800abec <puts>
 800a124:	003567e0 	.word	0x003567e0
 800a128:	0800d2e4 	.word	0x0800d2e4
 800a12c:	24000010 	.word	0x24000010
 800a130:	24005120 	.word	0x24005120
 800a134:	cccccccd 	.word	0xcccccccd
 800a138:	0800d308 	.word	0x0800d308

0800a13c <HAL_ADC_ConvCpltCallback>:
 800a13c:	4a52      	ldr	r2, [pc, #328]	; (800a288 <HAL_ADC_ConvCpltCallback+0x14c>)
 800a13e:	b5f8      	push	{r3, r4, r5, r6, r7, lr}
 800a140:	6813      	ldr	r3, [r2, #0]
 800a142:	2b47      	cmp	r3, #71	; 0x47
 800a144:	d071      	beq.n	800a22a <HAL_ADC_ConvCpltCallback+0xee>
 800a146:	d914      	bls.n	800a172 <HAL_ADC_ConvCpltCallback+0x36>
 800a148:	f241 416f 	movw	r1, #5231	; 0x146f
 800a14c:	428b      	cmp	r3, r1
 800a14e:	d020      	beq.n	800a192 <HAL_ADC_ConvCpltCallback+0x56>
 800a150:	f241 41d3 	movw	r1, #5331	; 0x14d3
 800a154:	428b      	cmp	r3, r1
 800a156:	f000 8081 	beq.w	800a25c <HAL_ADC_ConvCpltCallback+0x120>
 800a15a:	2b53      	cmp	r3, #83	; 0x53
 800a15c:	d025      	beq.n	800a1aa <HAL_ADC_ConvCpltCallback+0x6e>
 800a15e:	494b      	ldr	r1, [pc, #300]	; (800a28c <HAL_ADC_ConvCpltCallback+0x150>)
 800a160:	3301      	adds	r3, #1
 800a162:	7809      	ldrb	r1, [r1, #0]
 800a164:	6013      	str	r3, [r2, #0]
 800a166:	2903      	cmp	r1, #3
 800a168:	d81e      	bhi.n	800a1a8 <HAL_ADC_ConvCpltCallback+0x6c>
 800a16a:	e8df f001 	tbb	[pc, r1]
 800a16e:	0b70      	.short	0x0b70
 800a170:	3663      	.short	0x3663
 800a172:	2b00      	cmp	r3, #0
 800a174:	d067      	beq.n	800a246 <HAL_ADC_ConvCpltCallback+0x10a>
 800a176:	2b02      	cmp	r3, #2
 800a178:	d1f1      	bne.n	800a15e <HAL_ADC_ConvCpltCallback+0x22>
 800a17a:	4944      	ldr	r1, [pc, #272]	; (800a28c <HAL_ADC_ConvCpltCallback+0x150>)
 800a17c:	2001      	movs	r0, #1
 800a17e:	2303      	movs	r3, #3
 800a180:	7008      	strb	r0, [r1, #0]
 800a182:	6013      	str	r3, [r2, #0]
 800a184:	2200      	movs	r2, #0
 800a186:	2110      	movs	r1, #16
 800a188:	4841      	ldr	r0, [pc, #260]	; (800a290 <HAL_ADC_ConvCpltCallback+0x154>)
 800a18a:	e8bd 40f8 	ldmia.w	sp!, {r3, r4, r5, r6, r7, lr}
 800a18e:	f7fa b91b 	b.w	80043c8 <HAL_GPIO_WritePin>
 800a192:	2300      	movs	r3, #0
 800a194:	4d3d      	ldr	r5, [pc, #244]	; (800a28c <HAL_ADC_ConvCpltCallback+0x150>)
 800a196:	2604      	movs	r6, #4
 800a198:	4c3e      	ldr	r4, [pc, #248]	; (800a294 <HAL_ADC_ConvCpltCallback+0x158>)
 800a19a:	483f      	ldr	r0, [pc, #252]	; (800a298 <HAL_ADC_ConvCpltCallback+0x15c>)
 800a19c:	f241 4170 	movw	r1, #5232	; 0x1470
 800a1a0:	702e      	strb	r6, [r5, #0]
 800a1a2:	6023      	str	r3, [r4, #0]
 800a1a4:	6003      	str	r3, [r0, #0]
 800a1a6:	6011      	str	r1, [r2, #0]
 800a1a8:	bdf8      	pop	{r3, r4, r5, r6, r7, pc}
 800a1aa:	483b      	ldr	r0, [pc, #236]	; (800a298 <HAL_ADC_ConvCpltCallback+0x15c>)
 800a1ac:	2503      	movs	r5, #3
 800a1ae:	493b      	ldr	r1, [pc, #236]	; (800a29c <HAL_ADC_ConvCpltCallback+0x160>)
 800a1b0:	6803      	ldr	r3, [r0, #0]
 800a1b2:	4c3b      	ldr	r4, [pc, #236]	; (800a2a0 <HAL_ADC_ConvCpltCallback+0x164>)
 800a1b4:	fb81 6103 	smull	r6, r1, r1, r3
 800a1b8:	17db      	asrs	r3, r3, #31
 800a1ba:	7824      	ldrb	r4, [r4, #0]
 800a1bc:	ebc3 0361 	rsb	r3, r3, r1, asr #1
 800a1c0:	4932      	ldr	r1, [pc, #200]	; (800a28c <HAL_ADC_ConvCpltCallback+0x150>)
 800a1c2:	2c01      	cmp	r4, #1
 800a1c4:	6003      	str	r3, [r0, #0]
 800a1c6:	f04f 0354 	mov.w	r3, #84	; 0x54
 800a1ca:	700d      	strb	r5, [r1, #0]
 800a1cc:	bf18      	it	ne
 800a1ce:	2001      	movne	r0, #1
 800a1d0:	4934      	ldr	r1, [pc, #208]	; (800a2a4 <HAL_ADC_ConvCpltCallback+0x168>)
 800a1d2:	bf08      	it	eq
 800a1d4:	2000      	moveq	r0, #0
 800a1d6:	6013      	str	r3, [r2, #0]
 800a1d8:	7008      	strb	r0, [r1, #0]
 800a1da:	4833      	ldr	r0, [pc, #204]	; (800a2a8 <HAL_ADC_ConvCpltCallback+0x16c>)
 800a1dc:	f7f7 fa9e 	bl	800171c <HAL_ADC_GetValue>
 800a1e0:	4c32      	ldr	r4, [pc, #200]	; (800a2ac <HAL_ADC_ConvCpltCallback+0x170>)
 800a1e2:	4a33      	ldr	r2, [pc, #204]	; (800a2b0 <HAL_ADC_ConvCpltCallback+0x174>)
 800a1e4:	6821      	ldr	r1, [r4, #0]
 800a1e6:	6813      	ldr	r3, [r2, #0]
 800a1e8:	290b      	cmp	r1, #11
 800a1ea:	4418      	add	r0, r3
 800a1ec:	6010      	str	r0, [r2, #0]
 800a1ee:	d93d      	bls.n	800a26c <HAL_ADC_ConvCpltCallback+0x130>
 800a1f0:	4d2a      	ldr	r5, [pc, #168]	; (800a29c <HAL_ADC_ConvCpltCallback+0x160>)
 800a1f2:	17c3      	asrs	r3, r0, #31
 800a1f4:	492b      	ldr	r1, [pc, #172]	; (800a2a4 <HAL_ADC_ConvCpltCallback+0x168>)
 800a1f6:	fb85 5000 	smull	r5, r0, r5, r0
 800a1fa:	4d26      	ldr	r5, [pc, #152]	; (800a294 <HAL_ADC_ConvCpltCallback+0x158>)
 800a1fc:	7809      	ldrb	r1, [r1, #0]
 800a1fe:	ebc3 0060 	rsb	r0, r3, r0, asr #1
 800a202:	4e2c      	ldr	r6, [pc, #176]	; (800a2b4 <HAL_ADC_ConvCpltCallback+0x178>)
 800a204:	682b      	ldr	r3, [r5, #0]
 800a206:	2900      	cmp	r1, #0
 800a208:	d133      	bne.n	800a272 <HAL_ADC_ConvCpltCallback+0x136>
 800a20a:	f856 7023 	ldr.w	r7, [r6, r3, lsl #2]
 800a20e:	4287      	cmp	r7, r0
 800a210:	d935      	bls.n	800a27e <HAL_ADC_ConvCpltCallback+0x142>
 800a212:	f856 1023 	ldr.w	r1, [r6, r3, lsl #2]
 800a216:	4e28      	ldr	r6, [pc, #160]	; (800a2b8 <HAL_ADC_ConvCpltCallback+0x17c>)
 800a218:	1a08      	subs	r0, r1, r0
 800a21a:	f846 0023 	str.w	r0, [r6, r3, lsl #2]
 800a21e:	2100      	movs	r1, #0
 800a220:	3301      	adds	r3, #1
 800a222:	6021      	str	r1, [r4, #0]
 800a224:	602b      	str	r3, [r5, #0]
 800a226:	6011      	str	r1, [r2, #0]
 800a228:	bdf8      	pop	{r3, r4, r5, r6, r7, pc}
 800a22a:	4918      	ldr	r1, [pc, #96]	; (800a28c <HAL_ADC_ConvCpltCallback+0x150>)
 800a22c:	2002      	movs	r0, #2
 800a22e:	2348      	movs	r3, #72	; 0x48
 800a230:	7008      	strb	r0, [r1, #0]
 800a232:	6013      	str	r3, [r2, #0]
 800a234:	4818      	ldr	r0, [pc, #96]	; (800a298 <HAL_ADC_ConvCpltCallback+0x15c>)
 800a236:	4921      	ldr	r1, [pc, #132]	; (800a2bc <HAL_ADC_ConvCpltCallback+0x180>)
 800a238:	6802      	ldr	r2, [r0, #0]
 800a23a:	680b      	ldr	r3, [r1, #0]
 800a23c:	3201      	adds	r2, #1
 800a23e:	3301      	adds	r3, #1
 800a240:	6002      	str	r2, [r0, #0]
 800a242:	600b      	str	r3, [r1, #0]
 800a244:	bdf8      	pop	{r3, r4, r5, r6, r7, pc}
 800a246:	4811      	ldr	r0, [pc, #68]	; (800a28c <HAL_ADC_ConvCpltCallback+0x150>)
 800a248:	2101      	movs	r1, #1
 800a24a:	7003      	strb	r3, [r0, #0]
 800a24c:	6011      	str	r1, [r2, #0]
 800a24e:	2201      	movs	r2, #1
 800a250:	2110      	movs	r1, #16
 800a252:	480f      	ldr	r0, [pc, #60]	; (800a290 <HAL_ADC_ConvCpltCallback+0x154>)
 800a254:	e8bd 40f8 	ldmia.w	sp!, {r3, r4, r5, r6, r7, lr}
 800a258:	f7fa b8b6 	b.w	80043c8 <HAL_GPIO_WritePin>
 800a25c:	2300      	movs	r3, #0
 800a25e:	4810      	ldr	r0, [pc, #64]	; (800a2a0 <HAL_ADC_ConvCpltCallback+0x164>)
 800a260:	2401      	movs	r4, #1
 800a262:	490a      	ldr	r1, [pc, #40]	; (800a28c <HAL_ADC_ConvCpltCallback+0x150>)
 800a264:	6013      	str	r3, [r2, #0]
 800a266:	7004      	strb	r4, [r0, #0]
 800a268:	700b      	strb	r3, [r1, #0]
 800a26a:	bdf8      	pop	{r3, r4, r5, r6, r7, pc}
 800a26c:	3101      	adds	r1, #1
 800a26e:	6021      	str	r1, [r4, #0]
 800a270:	bdf8      	pop	{r3, r4, r5, r6, r7, pc}
 800a272:	f856 1023 	ldr.w	r1, [r6, r3, lsl #2]
 800a276:	4408      	add	r0, r1
 800a278:	f846 0023 	str.w	r0, [r6, r3, lsl #2]
 800a27c:	e7cf      	b.n	800a21e <HAL_ADC_ConvCpltCallback+0xe2>
 800a27e:	480e      	ldr	r0, [pc, #56]	; (800a2b8 <HAL_ADC_ConvCpltCallback+0x17c>)
 800a280:	f840 1023 	str.w	r1, [r0, r3, lsl #2]
 800a284:	e7cb      	b.n	800a21e <HAL_ADC_ConvCpltCallback+0xe2>
 800a286:	bf00      	nop
 800a288:	240000a8 	.word	0x240000a8
 800a28c:	2400a190 	.word	0x2400a190
 800a290:	58021000 	.word	0x58021000
 800a294:	2400a198 	.word	0x2400a198
 800a298:	240000ac 	.word	0x240000ac
 800a29c:	2aaaaaab 	.word	0x2aaaaaab
 800a2a0:	24000010 	.word	0x24000010
 800a2a4:	240000a4 	.word	0x240000a4
 800a2a8:	2400b634 	.word	0x2400b634
 800a2ac:	2400a19c 	.word	0x2400a19c
 800a2b0:	2400a1a0 	.word	0x2400a1a0
 800a2b4:	24005120 	.word	0x24005120
 800a2b8:	240000b0 	.word	0x240000b0
 800a2bc:	2400a194 	.word	0x2400a194

0800a2c0 <initSamplingTimer>:
 800a2c0:	b530      	push	{r4, r5, lr}
 800a2c2:	4c1e      	ldr	r4, [pc, #120]	; (800a33c <initSamplingTimer+0x7c>)
 800a2c4:	f44f 7100 	mov.w	r1, #512	; 0x200
 800a2c8:	4b1d      	ldr	r3, [pc, #116]	; (800a340 <initSamplingTimer+0x80>)
 800a2ca:	2200      	movs	r2, #0
 800a2cc:	6824      	ldr	r4, [r4, #0]
 800a2ce:	b089      	sub	sp, #36	; 0x24
 800a2d0:	6119      	str	r1, [r3, #16]
 800a2d2:	0864      	lsrs	r4, r4, #1
 800a2d4:	491b      	ldr	r1, [pc, #108]	; (800a344 <initSamplingTimer+0x84>)
 800a2d6:	609a      	str	r2, [r3, #8]
 800a2d8:	fbb4 f4f0 	udiv	r4, r4, r0
 800a2dc:	4618      	mov	r0, r3
 800a2de:	60dc      	str	r4, [r3, #12]
 800a2e0:	e9c3 1200 	strd	r1, r2, [r3]
 800a2e4:	e9c3 2205 	strd	r2, r2, [r3, #20]
 800a2e8:	f7fd f82a 	bl	8007340 <HAL_TIM_OC_Init>
 800a2ec:	b9e8      	cbnz	r0, 800a32a <initSamplingTimer+0x6a>
 800a2ee:	2300      	movs	r3, #0
 800a2f0:	2530      	movs	r5, #48	; 0x30
 800a2f2:	a901      	add	r1, sp, #4
 800a2f4:	4812      	ldr	r0, [pc, #72]	; (800a340 <initSamplingTimer+0x80>)
 800a2f6:	461a      	mov	r2, r3
 800a2f8:	9501      	str	r5, [sp, #4]
 800a2fa:	e9cd 4302 	strd	r4, r3, [sp, #8]
 800a2fe:	e9cd 3304 	strd	r3, r3, [sp, #16]
 800a302:	e9cd 3306 	strd	r3, r3, [sp, #24]
 800a306:	f7fd fbd1 	bl	8007aac <HAL_TIM_OC_ConfigChannel>
 800a30a:	b9a0      	cbnz	r0, 800a336 <initSamplingTimer+0x76>
 800a30c:	2100      	movs	r1, #0
 800a30e:	480c      	ldr	r0, [pc, #48]	; (800a340 <initSamplingTimer+0x80>)
 800a310:	f7fd f92c 	bl	800756c <HAL_TIM_OC_Start_IT>
 800a314:	b960      	cbnz	r0, 800a330 <initSamplingTimer+0x70>
 800a316:	480a      	ldr	r0, [pc, #40]	; (800a340 <initSamplingTimer+0x80>)
 800a318:	f7fc ff92 	bl	8007240 <HAL_TIM_Base_Start_IT>
 800a31c:	2800      	cmp	r0, #0
 800a31e:	bf14      	ite	ne
 800a320:	f06f 0003 	mvnne.w	r0, #3
 800a324:	2000      	moveq	r0, #0
 800a326:	b009      	add	sp, #36	; 0x24
 800a328:	bd30      	pop	{r4, r5, pc}
 800a32a:	f7f6 fcc3 	bl	8000cb4 <Error_Handler>
 800a32e:	e7de      	b.n	800a2ee <initSamplingTimer+0x2e>
 800a330:	f7f6 fcc0 	bl	8000cb4 <Error_Handler>
 800a334:	e7ef      	b.n	800a316 <initSamplingTimer+0x56>
 800a336:	f7f6 fcbd 	bl	8000cb4 <Error_Handler>
 800a33a:	e7e7      	b.n	800a30c <initSamplingTimer+0x4c>
 800a33c:	24000000 	.word	0x24000000
 800a340:	2400b788 	.word	0x2400b788
 800a344:	40014000 	.word	0x40014000

0800a348 <synth_init>:
 800a348:	b530      	push	{r4, r5, lr}
 800a34a:	4922      	ldr	r1, [pc, #136]	; (800a3d4 <synth_init+0x8c>)
 800a34c:	b085      	sub	sp, #20
 800a34e:	4822      	ldr	r0, [pc, #136]	; (800a3d8 <synth_init+0x90>)
 800a350:	f000 f93e 	bl	800a5d0 <init_waves>
 800a354:	4601      	mov	r1, r0
 800a356:	4821      	ldr	r0, [pc, #132]	; (800a3dc <synth_init+0x94>)
 800a358:	f000 fbd4 	bl	800ab04 <iprintf>
 800a35c:	4b20      	ldr	r3, [pc, #128]	; (800a3e0 <synth_init+0x98>)
 800a35e:	4d21      	ldr	r5, [pc, #132]	; (800a3e4 <synth_init+0x9c>)
 800a360:	2009      	movs	r0, #9
 800a362:	681a      	ldr	r2, [r3, #0]
 800a364:	2100      	movs	r1, #0
 800a366:	4b20      	ldr	r3, [pc, #128]	; (800a3e8 <synth_init+0xa0>)
 800a368:	0912      	lsrs	r2, r2, #4
 800a36a:	4c20      	ldr	r4, [pc, #128]	; (800a3ec <synth_init+0xa4>)
 800a36c:	60d8      	str	r0, [r3, #12]
 800a36e:	4618      	mov	r0, r3
 800a370:	fba5 5202 	umull	r5, r2, r5, r2
 800a374:	601c      	str	r4, [r3, #0]
 800a376:	0b12      	lsrs	r2, r2, #12
 800a378:	6119      	str	r1, [r3, #16]
 800a37a:	6159      	str	r1, [r3, #20]
 800a37c:	e9c3 2101 	strd	r2, r1, [r3, #4]
 800a380:	f7fc fdc6 	bl	8006f10 <HAL_TIM_Base_Init>
 800a384:	bb18      	cbnz	r0, 800a3ce <synth_init+0x86>
 800a386:	2220      	movs	r2, #32
 800a388:	2300      	movs	r3, #0
 800a38a:	a901      	add	r1, sp, #4
 800a38c:	4816      	ldr	r0, [pc, #88]	; (800a3e8 <synth_init+0xa0>)
 800a38e:	9201      	str	r2, [sp, #4]
 800a390:	9303      	str	r3, [sp, #12]
 800a392:	f7fd fda5 	bl	8007ee0 <HAL_TIMEx_MasterConfigSynchronization>
 800a396:	b9b8      	cbnz	r0, 800a3c8 <synth_init+0x80>
 800a398:	4813      	ldr	r0, [pc, #76]	; (800a3e8 <synth_init+0xa0>)
 800a39a:	f7fc fecf 	bl	800713c <HAL_TIM_Base_Start>
 800a39e:	b108      	cbz	r0, 800a3a4 <synth_init+0x5c>
 800a3a0:	f7f6 fc88 	bl	8000cb4 <Error_Handler>
 800a3a4:	f64a 4044 	movw	r0, #44100	; 0xac44
 800a3a8:	f7ff ff8a 	bl	800a2c0 <initSamplingTimer>
 800a3ac:	b948      	cbnz	r0, 800a3c2 <synth_init+0x7a>
 800a3ae:	2110      	movs	r1, #16
 800a3b0:	480f      	ldr	r0, [pc, #60]	; (800a3f0 <synth_init+0xa8>)
 800a3b2:	f7f8 fd4d 	bl	8002e50 <HAL_DAC_Start>
 800a3b6:	b108      	cbz	r0, 800a3bc <synth_init+0x74>
 800a3b8:	f7f6 fc7c 	bl	8000cb4 <Error_Handler>
 800a3bc:	2000      	movs	r0, #0
 800a3be:	b005      	add	sp, #20
 800a3c0:	bd30      	pop	{r4, r5, pc}
 800a3c2:	f7f6 fc77 	bl	8000cb4 <Error_Handler>
 800a3c6:	e7f2      	b.n	800a3ae <synth_init+0x66>
 800a3c8:	f7f6 fc74 	bl	8000cb4 <Error_Handler>
 800a3cc:	e7e4      	b.n	800a398 <synth_init+0x50>
 800a3ce:	f7f6 fc71 	bl	8000cb4 <Error_Handler>
 800a3d2:	e7d8      	b.n	800a386 <synth_init+0x3e>
 800a3d4:	2400a1ac 	.word	0x2400a1ac
 800a3d8:	2400a1a8 	.word	0x2400a1a8
 800a3dc:	0800d32c 	.word	0x0800d32c
 800a3e0:	24000000 	.word	0x24000000
 800a3e4:	130593d3 	.word	0x130593d3
 800a3e8:	2400b7c8 	.word	0x2400b7c8
 800a3ec:	40001000 	.word	0x40001000
 800a3f0:	2400b698 	.word	0x2400b698

0800a3f4 <HAL_TIM_PeriodElapsedCallback>:
 800a3f4:	4971      	ldr	r1, [pc, #452]	; (800a5bc <HAL_TIM_PeriodElapsedCallback+0x1c8>)
 800a3f6:	4872      	ldr	r0, [pc, #456]	; (800a5c0 <HAL_TIM_PeriodElapsedCallback+0x1cc>)
 800a3f8:	f8d1 36b0 	ldr.w	r3, [r1, #1712]	; 0x6b0
 800a3fc:	2b01      	cmp	r3, #1
 800a3fe:	e92d 41f0 	stmdb	sp!, {r4, r5, r6, r7, r8, lr}
 800a402:	f04f 0e00 	mov.w	lr, #0
 800a406:	f240 80d5 	bls.w	800a5b4 <HAL_TIM_PeriodElapsedCallback+0x1c0>
 800a40a:	8883      	ldrh	r3, [r0, #4]
 800a40c:	f8b0 8008 	ldrh.w	r8, [r0, #8]
 800a410:	88c6      	ldrh	r6, [r0, #6]
 800a412:	4443      	add	r3, r8
 800a414:	429e      	cmp	r6, r3
 800a416:	d200      	bcs.n	800a41a <HAL_TIM_PeriodElapsedCallback+0x26>
 800a418:	1b9b      	subs	r3, r3, r6
 800a41a:	fa1f f883 	uxth.w	r8, r3
 800a41e:	6806      	ldr	r6, [r0, #0]
 800a420:	8083      	strh	r3, [r0, #4]
 800a422:	f8d1 36b0 	ldr.w	r3, [r1, #1712]	; 0x6b0
 800a426:	f836 6018 	ldrh.w	r6, [r6, r8, lsl #1]
 800a42a:	f8d1 c6b0 	ldr.w	ip, [r1, #1712]	; 0x6b0
 800a42e:	fb03 f306 	mul.w	r3, r3, r6
 800a432:	f8d1 66b0 	ldr.w	r6, [r1, #1712]	; 0x6b0
 800a436:	0c1f      	lsrs	r7, r3, #16
 800a438:	2e00      	cmp	r6, #0
 800a43a:	f040 80b8 	bne.w	800a5ae <HAL_TIM_PeriodElapsedCallback+0x1ba>
 800a43e:	380c      	subs	r0, #12
 800a440:	f240 12ab 	movw	r2, #427	; 0x1ab
 800a444:	f851 3022 	ldr.w	r3, [r1, r2, lsl #2]
 800a448:	2b01      	cmp	r3, #1
 800a44a:	d91c      	bls.n	800a486 <HAL_TIM_PeriodElapsedCallback+0x92>
 800a44c:	8883      	ldrh	r3, [r0, #4]
 800a44e:	f8b0 8008 	ldrh.w	r8, [r0, #8]
 800a452:	88c6      	ldrh	r6, [r0, #6]
 800a454:	4443      	add	r3, r8
 800a456:	429e      	cmp	r6, r3
 800a458:	bf38      	it	cc
 800a45a:	1b9b      	subcc	r3, r3, r6
 800a45c:	6806      	ldr	r6, [r0, #0]
 800a45e:	fa1f f883 	uxth.w	r8, r3
 800a462:	8083      	strh	r3, [r0, #4]
 800a464:	f851 3022 	ldr.w	r3, [r1, r2, lsl #2]
 800a468:	f836 6018 	ldrh.w	r6, [r6, r8, lsl #1]
 800a46c:	f851 8022 	ldr.w	r8, [r1, r2, lsl #2]
 800a470:	fb03 f306 	mul.w	r3, r3, r6
 800a474:	f851 6022 	ldr.w	r6, [r1, r2, lsl #2]
 800a478:	44c4      	add	ip, r8
 800a47a:	4576      	cmp	r6, lr
 800a47c:	eb07 4713 	add.w	r7, r7, r3, lsr #16
 800a480:	d901      	bls.n	800a486 <HAL_TIM_PeriodElapsedCallback+0x92>
 800a482:	f851 e022 	ldr.w	lr, [r1, r2, lsl #2]
 800a486:	1e55      	subs	r5, r2, #1
 800a488:	f1a0 040c 	sub.w	r4, r0, #12
 800a48c:	f851 3025 	ldr.w	r3, [r1, r5, lsl #2]
 800a490:	2b01      	cmp	r3, #1
 800a492:	d91c      	bls.n	800a4ce <HAL_TIM_PeriodElapsedCallback+0xda>
 800a494:	88a3      	ldrh	r3, [r4, #4]
 800a496:	f8b4 8008 	ldrh.w	r8, [r4, #8]
 800a49a:	88e6      	ldrh	r6, [r4, #6]
 800a49c:	4443      	add	r3, r8
 800a49e:	429e      	cmp	r6, r3
 800a4a0:	d200      	bcs.n	800a4a4 <HAL_TIM_PeriodElapsedCallback+0xb0>
 800a4a2:	1b9b      	subs	r3, r3, r6
 800a4a4:	fa1f f883 	uxth.w	r8, r3
 800a4a8:	6826      	ldr	r6, [r4, #0]
 800a4aa:	80a3      	strh	r3, [r4, #4]
 800a4ac:	f851 3025 	ldr.w	r3, [r1, r5, lsl #2]
 800a4b0:	f836 6018 	ldrh.w	r6, [r6, r8, lsl #1]
 800a4b4:	f851 8025 	ldr.w	r8, [r1, r5, lsl #2]
 800a4b8:	fb03 f306 	mul.w	r3, r3, r6
 800a4bc:	f851 6025 	ldr.w	r6, [r1, r5, lsl #2]
 800a4c0:	44c4      	add	ip, r8
 800a4c2:	4576      	cmp	r6, lr
 800a4c4:	eb07 4713 	add.w	r7, r7, r3, lsr #16
 800a4c8:	d901      	bls.n	800a4ce <HAL_TIM_PeriodElapsedCallback+0xda>
 800a4ca:	f851 e025 	ldr.w	lr, [r1, r5, lsl #2]
 800a4ce:	1e6a      	subs	r2, r5, #1
 800a4d0:	f1a4 000c 	sub.w	r0, r4, #12
 800a4d4:	f851 3022 	ldr.w	r3, [r1, r2, lsl #2]
 800a4d8:	2b01      	cmp	r3, #1
 800a4da:	d91d      	bls.n	800a518 <HAL_TIM_PeriodElapsedCallback+0x124>
 800a4dc:	8883      	ldrh	r3, [r0, #4]
 800a4de:	f8b0 8008 	ldrh.w	r8, [r0, #8]
 800a4e2:	88c6      	ldrh	r6, [r0, #6]
 800a4e4:	4443      	add	r3, r8
 800a4e6:	429e      	cmp	r6, r3
 800a4e8:	d200      	bcs.n	800a4ec <HAL_TIM_PeriodElapsedCallback+0xf8>
 800a4ea:	1b9b      	subs	r3, r3, r6
 800a4ec:	fa1f f883 	uxth.w	r8, r3
 800a4f0:	f854 6c0c 	ldr.w	r6, [r4, #-12]
 800a4f4:	8083      	strh	r3, [r0, #4]
 800a4f6:	f851 3022 	ldr.w	r3, [r1, r2, lsl #2]
 800a4fa:	f836 6018 	ldrh.w	r6, [r6, r8, lsl #1]
 800a4fe:	f851 8022 	ldr.w	r8, [r1, r2, lsl #2]
 800a502:	fb03 f306 	mul.w	r3, r3, r6
 800a506:	f851 6022 	ldr.w	r6, [r1, r2, lsl #2]
 800a50a:	44c4      	add	ip, r8
 800a50c:	4576      	cmp	r6, lr
 800a50e:	eb07 4713 	add.w	r7, r7, r3, lsr #16
 800a512:	d901      	bls.n	800a518 <HAL_TIM_PeriodElapsedCallback+0x124>
 800a514:	f851 e022 	ldr.w	lr, [r1, r2, lsl #2]
 800a518:	1eaa      	subs	r2, r5, #2
 800a51a:	f1a4 0018 	sub.w	r0, r4, #24
 800a51e:	f851 3022 	ldr.w	r3, [r1, r2, lsl #2]
 800a522:	2b01      	cmp	r3, #1
 800a524:	d91d      	bls.n	800a562 <HAL_TIM_PeriodElapsedCallback+0x16e>
 800a526:	8883      	ldrh	r3, [r0, #4]
 800a528:	f8b0 8008 	ldrh.w	r8, [r0, #8]
 800a52c:	88c6      	ldrh	r6, [r0, #6]
 800a52e:	4443      	add	r3, r8
 800a530:	429e      	cmp	r6, r3
 800a532:	d200      	bcs.n	800a536 <HAL_TIM_PeriodElapsedCallback+0x142>
 800a534:	1b9b      	subs	r3, r3, r6
 800a536:	fa1f f883 	uxth.w	r8, r3
 800a53a:	f854 6c18 	ldr.w	r6, [r4, #-24]
 800a53e:	8083      	strh	r3, [r0, #4]
 800a540:	f851 3022 	ldr.w	r3, [r1, r2, lsl #2]
 800a544:	f836 6018 	ldrh.w	r6, [r6, r8, lsl #1]
 800a548:	f851 8022 	ldr.w	r8, [r1, r2, lsl #2]
 800a54c:	fb03 f306 	mul.w	r3, r3, r6
 800a550:	f851 6022 	ldr.w	r6, [r1, r2, lsl #2]
 800a554:	44c4      	add	ip, r8
 800a556:	4576      	cmp	r6, lr
 800a558:	eb07 4713 	add.w	r7, r7, r3, lsr #16
 800a55c:	d901      	bls.n	800a562 <HAL_TIM_PeriodElapsedCallback+0x16e>
 800a55e:	f851 e022 	ldr.w	lr, [r1, r2, lsl #2]
 800a562:	1eea      	subs	r2, r5, #3
 800a564:	f1a4 0024 	sub.w	r0, r4, #36	; 0x24
 800a568:	1c53      	adds	r3, r2, #1
 800a56a:	f47f af6b 	bne.w	800a444 <HAL_TIM_PeriodElapsedCallback+0x50>
 800a56e:	ee07 ea90 	vmov	s15, lr
 800a572:	2200      	movs	r2, #0
 800a574:	2110      	movs	r1, #16
 800a576:	4813      	ldr	r0, [pc, #76]	; (800a5c4 <HAL_TIM_PeriodElapsedCallback+0x1d0>)
 800a578:	eeb8 4b67 	vcvt.f64.u32	d4, s15
 800a57c:	ee07 ca90 	vmov	s15, ip
 800a580:	eeb8 5b67 	vcvt.f64.u32	d5, s15
 800a584:	ee07 7a90 	vmov	s15, r7
 800a588:	eeb8 6b67 	vcvt.f64.u32	d6, s15
 800a58c:	ee84 7b05 	vdiv.f64	d7, d4, d5
 800a590:	ee27 7b06 	vmul.f64	d7, d7, d6
 800a594:	eefc 7bc7 	vcvt.u32.f64	s15, d7
 800a598:	ee17 3a90 	vmov	r3, s15
 800a59c:	091b      	lsrs	r3, r3, #4
 800a59e:	f7f8 fc93 	bl	8002ec8 <HAL_DAC_SetValue>
 800a5a2:	4a09      	ldr	r2, [pc, #36]	; (800a5c8 <HAL_TIM_PeriodElapsedCallback+0x1d4>)
 800a5a4:	6813      	ldr	r3, [r2, #0]
 800a5a6:	3301      	adds	r3, #1
 800a5a8:	6013      	str	r3, [r2, #0]
 800a5aa:	e8bd 81f0 	ldmia.w	sp!, {r4, r5, r6, r7, r8, pc}
 800a5ae:	f8d1 e6b0 	ldr.w	lr, [r1, #1712]	; 0x6b0
 800a5b2:	e744      	b.n	800a43e <HAL_TIM_PeriodElapsedCallback+0x4a>
 800a5b4:	46f4      	mov	ip, lr
 800a5b6:	4677      	mov	r7, lr
 800a5b8:	e741      	b.n	800a43e <HAL_TIM_PeriodElapsedCallback+0x4a>
 800a5ba:	bf00      	nop
 800a5bc:	240000b0 	.word	0x240000b0
 800a5c0:	2400b5bc 	.word	0x2400b5bc
 800a5c4:	2400b698 	.word	0x2400b698
 800a5c8:	2400a1a4 	.word	0x2400a1a4
 800a5cc:	00000000 	.word	0x00000000

0800a5d0 <init_waves>:
 800a5d0:	e92d 47f0 	stmdb	sp!, {r4, r5, r6, r7, r8, r9, sl, lr}
 800a5d4:	2400      	movs	r4, #0
 800a5d6:	4682      	mov	sl, r0
 800a5d8:	4688      	mov	r8, r1
 800a5da:	4627      	mov	r7, r4
 800a5dc:	ed2d 8b0e 	vpush	{d8-d14}
 800a5e0:	ed9f 1bc1 	vldr	d1, [pc, #772]	; 800a8e8 <init_waves+0x318>
 800a5e4:	ed9f 8bc2 	vldr	d8, [pc, #776]	; 800a8f0 <init_waves+0x320>
 800a5e8:	ed9f 9ad3 	vldr	s18, [pc, #844]	; 800a938 <init_waves+0x368>
 800a5ec:	ee81 1b08 	vdiv.f64	d1, d1, d8
 800a5f0:	3401      	adds	r4, #1
 800a5f2:	eeb0 0b00 	vmov.f64	d0, #0	; 0x40000000  2.0
 800a5f6:	f001 f963 	bl	800b8c0 <pow>
 800a5fa:	eeb3 7b0e 	vmov.f64	d7, #62	; 0x41f00000  30.0
 800a5fe:	ee06 4a90 	vmov	s13, r4
 800a602:	2c36      	cmp	r4, #54	; 0x36
 800a604:	ee20 0b07 	vmul.f64	d0, d0, d7
 800a608:	eeb8 1be6 	vcvt.f64.s32	d1, s13
 800a60c:	eeb7 0bc0 	vcvt.f32.f64	s0, d0
 800a610:	eec9 7a00 	vdiv.f32	s15, s18, s0
 800a614:	eefc 7ae7 	vcvt.u32.f32	s15, s15
 800a618:	ee17 3a90 	vmov	r3, s15
 800a61c:	441f      	add	r7, r3
 800a61e:	d1e5      	bne.n	800a5ec <init_waves+0x1c>
 800a620:	00b8      	lsls	r0, r7, #2
 800a622:	f000 f9b7 	bl	800a994 <malloc>
 800a626:	f8ca 0000 	str.w	r0, [sl]
 800a62a:	2800      	cmp	r0, #0
 800a62c:	f000 8154 	beq.w	800a8d8 <init_waves+0x308>
 800a630:	f04f 0900 	mov.w	r9, #0
 800a634:	ed9f ebac 	vldr	d14, [pc, #688]	; 800a8e8 <init_waves+0x318>
 800a638:	ed9f cbad 	vldr	d12, [pc, #692]	; 800a8f0 <init_waves+0x320>
 800a63c:	ed9f bbae 	vldr	d11, [pc, #696]	; 800a8f8 <init_waves+0x328>
 800a640:	ed9f abaf 	vldr	d10, [pc, #700]	; 800a900 <init_waves+0x330>
 800a644:	eeb0 db4e 	vmov.f64	d13, d14
 800a648:	464e      	mov	r6, r9
 800a64a:	ee8e 1b0c 	vdiv.f64	d1, d14, d12
 800a64e:	eeb0 0b00 	vmov.f64	d0, #0	; 0x40000000  2.0
 800a652:	f001 f935 	bl	800b8c0 <pow>
 800a656:	eeb3 7b0e 	vmov.f64	d7, #62	; 0x41f00000  30.0
 800a65a:	eddf 6ab7 	vldr	s13, [pc, #732]	; 800a938 <init_waves+0x368>
 800a65e:	ee20 0b07 	vmul.f64	d0, d0, d7
 800a662:	eeb7 0bc0 	vcvt.f32.f64	s0, d0
 800a666:	eec6 7a80 	vdiv.f32	s15, s13, s0
 800a66a:	eefc 7ae7 	vcvt.u32.f32	s15, s15
 800a66e:	ee17 5a90 	vmov	r5, s15
 800a672:	b34d      	cbz	r5, 800a6c8 <init_waves+0xf8>
 800a674:	eeb7 9b00 	vmov.f64	d9, #112	; 0x3f800000  1.0
 800a678:	2400      	movs	r4, #0
 800a67a:	eeb6 8b00 	vmov.f64	d8, #96	; 0x3f000000  0.5
 800a67e:	42b7      	cmp	r7, r6
 800a680:	d91f      	bls.n	800a6c2 <init_waves+0xf2>
 800a682:	ee07 4a90 	vmov	s15, r4
 800a686:	eeb8 0b67 	vcvt.f64.u32	d0, s15
 800a68a:	ee07 5a90 	vmov	s15, r5
 800a68e:	eeb8 7b67 	vcvt.f64.u32	d7, s15
 800a692:	ee30 0b00 	vadd.f64	d0, d0, d0
 800a696:	ee20 0b0b 	vmul.f64	d0, d0, d11
 800a69a:	ee80 0b07 	vdiv.f64	d0, d0, d7
 800a69e:	f001 f8d3 	bl	800b848 <sin>
 800a6a2:	f8da 2000 	ldr.w	r2, [sl]
 800a6a6:	ee30 0b09 	vadd.f64	d0, d0, d9
 800a6aa:	ee20 0b0a 	vmul.f64	d0, d0, d10
 800a6ae:	ee20 0b08 	vmul.f64	d0, d0, d8
 800a6b2:	eebc 0bc0 	vcvt.u32.f64	s0, d0
 800a6b6:	ee10 3a10 	vmov	r3, s0
 800a6ba:	b29b      	uxth	r3, r3
 800a6bc:	f822 3016 	strh.w	r3, [r2, r6, lsl #1]
 800a6c0:	3601      	adds	r6, #1
 800a6c2:	3401      	adds	r4, #1
 800a6c4:	42a5      	cmp	r5, r4
 800a6c6:	d1da      	bne.n	800a67e <init_waves+0xae>
 800a6c8:	ee3e 7b0d 	vadd.f64	d7, d14, d13
 800a6cc:	eefc 7bc7 	vcvt.u32.f64	s15, d7
 800a6d0:	ee17 3a90 	vmov	r3, s15
 800a6d4:	f5b3 7fd6 	cmp.w	r3, #428	; 0x1ac
 800a6d8:	f240 80eb 	bls.w	800a8b2 <init_waves+0x2e2>
 800a6dc:	ee3e 7b0c 	vadd.f64	d7, d14, d12
 800a6e0:	eefc 7bc7 	vcvt.u32.f64	s15, d7
 800a6e4:	ee17 3a90 	vmov	r3, s15
 800a6e8:	f5b3 7fd6 	cmp.w	r3, #428	; 0x1ac
 800a6ec:	f240 80ce 	bls.w	800a88c <init_waves+0x2bc>
 800a6f0:	ed9f 7b85 	vldr	d7, [pc, #532]	; 800a908 <init_waves+0x338>
 800a6f4:	ee3e 7b07 	vadd.f64	d7, d14, d7
 800a6f8:	eefc 7bc7 	vcvt.u32.f64	s15, d7
 800a6fc:	ee17 3a90 	vmov	r3, s15
 800a700:	f5b3 7fd6 	cmp.w	r3, #428	; 0x1ac
 800a704:	f240 80af 	bls.w	800a866 <init_waves+0x296>
 800a708:	ed9f 7b81 	vldr	d7, [pc, #516]	; 800a910 <init_waves+0x340>
 800a70c:	ee3e 7b07 	vadd.f64	d7, d14, d7
 800a710:	eefc 7bc7 	vcvt.u32.f64	s15, d7
 800a714:	ee17 3a90 	vmov	r3, s15
 800a718:	f5b3 7fd6 	cmp.w	r3, #428	; 0x1ac
 800a71c:	f240 8090 	bls.w	800a840 <init_waves+0x270>
 800a720:	ed9f 7b7d 	vldr	d7, [pc, #500]	; 800a918 <init_waves+0x348>
 800a724:	ee3e 7b07 	vadd.f64	d7, d14, d7
 800a728:	eefc 7bc7 	vcvt.u32.f64	s15, d7
 800a72c:	ee17 3a90 	vmov	r3, s15
 800a730:	f5b3 7fd6 	cmp.w	r3, #428	; 0x1ac
 800a734:	d971      	bls.n	800a81a <init_waves+0x24a>
 800a736:	ed9f 7b7a 	vldr	d7, [pc, #488]	; 800a920 <init_waves+0x350>
 800a73a:	ee3e 7b07 	vadd.f64	d7, d14, d7
 800a73e:	eefc 7bc7 	vcvt.u32.f64	s15, d7
 800a742:	ee17 3a90 	vmov	r3, s15
 800a746:	f5b3 7fd6 	cmp.w	r3, #428	; 0x1ac
 800a74a:	d953      	bls.n	800a7f4 <init_waves+0x224>
 800a74c:	ed9f 7b76 	vldr	d7, [pc, #472]	; 800a928 <init_waves+0x358>
 800a750:	ee3e 7b07 	vadd.f64	d7, d14, d7
 800a754:	eefc 7bc7 	vcvt.u32.f64	s15, d7
 800a758:	ee17 3a90 	vmov	r3, s15
 800a75c:	f5b3 7fd6 	cmp.w	r3, #428	; 0x1ac
 800a760:	d935      	bls.n	800a7ce <init_waves+0x1fe>
 800a762:	ed9f 7b73 	vldr	d7, [pc, #460]	; 800a930 <init_waves+0x360>
 800a766:	ee3e eb07 	vadd.f64	d14, d14, d7
 800a76a:	eefc 7bce 	vcvt.u32.f64	s15, d14
 800a76e:	ee17 1a90 	vmov	r1, s15
 800a772:	f5b1 7fd6 	cmp.w	r1, #428	; 0x1ac
 800a776:	d916      	bls.n	800a7a6 <init_waves+0x1d6>
 800a778:	f109 0901 	add.w	r9, r9, #1
 800a77c:	ee07 9a90 	vmov	s15, r9
 800a780:	f1b9 0f36 	cmp.w	r9, #54	; 0x36
 800a784:	eeb8 ebe7 	vcvt.f64.s32	d14, s15
 800a788:	f47f af5f 	bne.w	800a64a <init_waves+0x7a>
 800a78c:	f5b1 7fd6 	cmp.w	r1, #428	; 0x1ac
 800a790:	d804      	bhi.n	800a79c <init_waves+0x1cc>
 800a792:	486a      	ldr	r0, [pc, #424]	; (800a93c <init_waves+0x36c>)
 800a794:	f000 f9b6 	bl	800ab04 <iprintf>
 800a798:	f7f6 fa8c 	bl	8000cb4 <Error_Handler>
 800a79c:	4638      	mov	r0, r7
 800a79e:	ecbd 8b0e 	vpop	{d8-d14}
 800a7a2:	e8bd 87f0 	ldmia.w	sp!, {r4, r5, r6, r7, r8, r9, sl, pc}
 800a7a6:	f8da 3000 	ldr.w	r3, [sl]
 800a7aa:	eb01 0241 	add.w	r2, r1, r1, lsl #1
 800a7ae:	eba6 0e05 	sub.w	lr, r6, r5
 800a7b2:	f04f 0c80 	mov.w	ip, #128	; 0x80
 800a7b6:	eb08 0082 	add.w	r0, r8, r2, lsl #2
 800a7ba:	2400      	movs	r4, #0
 800a7bc:	eb03 034e 	add.w	r3, r3, lr, lsl #1
 800a7c0:	80c5      	strh	r5, [r0, #6]
 800a7c2:	f8a0 c008 	strh.w	ip, [r0, #8]
 800a7c6:	f848 3022 	str.w	r3, [r8, r2, lsl #2]
 800a7ca:	8084      	strh	r4, [r0, #4]
 800a7cc:	e7d4      	b.n	800a778 <init_waves+0x1a8>
 800a7ce:	f8da 2000 	ldr.w	r2, [sl]
 800a7d2:	eb03 0343 	add.w	r3, r3, r3, lsl #1
 800a7d6:	1b70      	subs	r0, r6, r5
 800a7d8:	f04f 0c40 	mov.w	ip, #64	; 0x40
 800a7dc:	eb08 0183 	add.w	r1, r8, r3, lsl #2
 800a7e0:	2400      	movs	r4, #0
 800a7e2:	eb02 0240 	add.w	r2, r2, r0, lsl #1
 800a7e6:	80cd      	strh	r5, [r1, #6]
 800a7e8:	f8a1 c008 	strh.w	ip, [r1, #8]
 800a7ec:	f848 2023 	str.w	r2, [r8, r3, lsl #2]
 800a7f0:	808c      	strh	r4, [r1, #4]
 800a7f2:	e7b6      	b.n	800a762 <init_waves+0x192>
 800a7f4:	f8da 2000 	ldr.w	r2, [sl]
 800a7f8:	eb03 0343 	add.w	r3, r3, r3, lsl #1
 800a7fc:	1b70      	subs	r0, r6, r5
 800a7fe:	f04f 0c20 	mov.w	ip, #32
 800a802:	eb08 0183 	add.w	r1, r8, r3, lsl #2
 800a806:	2400      	movs	r4, #0
 800a808:	eb02 0240 	add.w	r2, r2, r0, lsl #1
 800a80c:	80cd      	strh	r5, [r1, #6]
 800a80e:	f8a1 c008 	strh.w	ip, [r1, #8]
 800a812:	f848 2023 	str.w	r2, [r8, r3, lsl #2]
 800a816:	808c      	strh	r4, [r1, #4]
 800a818:	e798      	b.n	800a74c <init_waves+0x17c>
 800a81a:	f8da 2000 	ldr.w	r2, [sl]
 800a81e:	eb03 0343 	add.w	r3, r3, r3, lsl #1
 800a822:	1b70      	subs	r0, r6, r5
 800a824:	f04f 0c10 	mov.w	ip, #16
 800a828:	eb08 0183 	add.w	r1, r8, r3, lsl #2
 800a82c:	2400      	movs	r4, #0
 800a82e:	eb02 0240 	add.w	r2, r2, r0, lsl #1
 800a832:	80cd      	strh	r5, [r1, #6]
 800a834:	f8a1 c008 	strh.w	ip, [r1, #8]
 800a838:	f848 2023 	str.w	r2, [r8, r3, lsl #2]
 800a83c:	808c      	strh	r4, [r1, #4]
 800a83e:	e77a      	b.n	800a736 <init_waves+0x166>
 800a840:	f8da 2000 	ldr.w	r2, [sl]
 800a844:	eb03 0343 	add.w	r3, r3, r3, lsl #1
 800a848:	1b70      	subs	r0, r6, r5
 800a84a:	f04f 0c08 	mov.w	ip, #8
 800a84e:	eb08 0183 	add.w	r1, r8, r3, lsl #2
 800a852:	2400      	movs	r4, #0
 800a854:	eb02 0240 	add.w	r2, r2, r0, lsl #1
 800a858:	80cd      	strh	r5, [r1, #6]
 800a85a:	f8a1 c008 	strh.w	ip, [r1, #8]
 800a85e:	f848 2023 	str.w	r2, [r8, r3, lsl #2]
 800a862:	808c      	strh	r4, [r1, #4]
 800a864:	e75c      	b.n	800a720 <init_waves+0x150>
 800a866:	f8da 2000 	ldr.w	r2, [sl]
 800a86a:	eb03 0343 	add.w	r3, r3, r3, lsl #1
 800a86e:	1b70      	subs	r0, r6, r5
 800a870:	f04f 0c04 	mov.w	ip, #4
 800a874:	eb08 0183 	add.w	r1, r8, r3, lsl #2
 800a878:	2400      	movs	r4, #0
 800a87a:	eb02 0240 	add.w	r2, r2, r0, lsl #1
 800a87e:	80cd      	strh	r5, [r1, #6]
 800a880:	f8a1 c008 	strh.w	ip, [r1, #8]
 800a884:	f848 2023 	str.w	r2, [r8, r3, lsl #2]
 800a888:	808c      	strh	r4, [r1, #4]
 800a88a:	e73d      	b.n	800a708 <init_waves+0x138>
 800a88c:	f8da 2000 	ldr.w	r2, [sl]
 800a890:	eb03 0343 	add.w	r3, r3, r3, lsl #1
 800a894:	1b70      	subs	r0, r6, r5
 800a896:	f04f 0c02 	mov.w	ip, #2
 800a89a:	eb08 0183 	add.w	r1, r8, r3, lsl #2
 800a89e:	2400      	movs	r4, #0
 800a8a0:	eb02 0240 	add.w	r2, r2, r0, lsl #1
 800a8a4:	80cd      	strh	r5, [r1, #6]
 800a8a6:	f8a1 c008 	strh.w	ip, [r1, #8]
 800a8aa:	f848 2023 	str.w	r2, [r8, r3, lsl #2]
 800a8ae:	808c      	strh	r4, [r1, #4]
 800a8b0:	e71e      	b.n	800a6f0 <init_waves+0x120>
 800a8b2:	f8da 2000 	ldr.w	r2, [sl]
 800a8b6:	eb03 0343 	add.w	r3, r3, r3, lsl #1
 800a8ba:	1b70      	subs	r0, r6, r5
 800a8bc:	f04f 0c01 	mov.w	ip, #1
 800a8c0:	eb08 0183 	add.w	r1, r8, r3, lsl #2
 800a8c4:	2400      	movs	r4, #0
 800a8c6:	eb02 0240 	add.w	r2, r2, r0, lsl #1
 800a8ca:	80cd      	strh	r5, [r1, #6]
 800a8cc:	f8a1 c008 	strh.w	ip, [r1, #8]
 800a8d0:	f848 2023 	str.w	r2, [r8, r3, lsl #2]
 800a8d4:	808c      	strh	r4, [r1, #4]
 800a8d6:	e701      	b.n	800a6dc <init_waves+0x10c>
 800a8d8:	f04f 37ff 	mov.w	r7, #4294967295	; 0xffffffff
 800a8dc:	ecbd 8b0e 	vpop	{d8-d14}
 800a8e0:	4638      	mov	r0, r7
 800a8e2:	e8bd 87f0 	ldmia.w	sp!, {r4, r5, r6, r7, r8, r9, sl, pc}
 800a8e6:	bf00      	nop
	...
 800a8f4:	404b0000 	.word	0x404b0000
 800a8f8:	54442eea 	.word	0x54442eea
 800a8fc:	400921fb 	.word	0x400921fb
 800a900:	00000000 	.word	0x00000000
 800a904:	40efffe0 	.word	0x40efffe0
 800a908:	00000000 	.word	0x00000000
 800a90c:	405b0000 	.word	0x405b0000
 800a910:	00000000 	.word	0x00000000
 800a914:	40644000 	.word	0x40644000
 800a918:	00000000 	.word	0x00000000
 800a91c:	406b0000 	.word	0x406b0000
 800a920:	00000000 	.word	0x00000000
 800a924:	4070e000 	.word	0x4070e000
 800a928:	00000000 	.word	0x00000000
 800a92c:	40744000 	.word	0x40744000
 800a930:	00000000 	.word	0x00000000
 800a934:	4077a000 	.word	0x4077a000
 800a938:	472c4400 	.word	0x472c4400
 800a93c:	0800d340 	.word	0x0800d340

0800a940 <__errno>:
 800a940:	4b01      	ldr	r3, [pc, #4]	; (800a948 <__errno+0x8>)
 800a942:	6818      	ldr	r0, [r3, #0]
 800a944:	4770      	bx	lr
 800a946:	bf00      	nop
 800a948:	24000014 	.word	0x24000014

0800a94c <__libc_init_array>:
 800a94c:	b570      	push	{r4, r5, r6, lr}
 800a94e:	4e0d      	ldr	r6, [pc, #52]	; (800a984 <__libc_init_array+0x38>)
 800a950:	4c0d      	ldr	r4, [pc, #52]	; (800a988 <__libc_init_array+0x3c>)
 800a952:	1ba4      	subs	r4, r4, r6
 800a954:	10a4      	asrs	r4, r4, #2
 800a956:	2500      	movs	r5, #0
 800a958:	42a5      	cmp	r5, r4
 800a95a:	d109      	bne.n	800a970 <__libc_init_array+0x24>
 800a95c:	4e0b      	ldr	r6, [pc, #44]	; (800a98c <__libc_init_array+0x40>)
 800a95e:	4c0c      	ldr	r4, [pc, #48]	; (800a990 <__libc_init_array+0x44>)
 800a960:	f002 fab8 	bl	800ced4 <_init>
 800a964:	1ba4      	subs	r4, r4, r6
 800a966:	10a4      	asrs	r4, r4, #2
 800a968:	2500      	movs	r5, #0
 800a96a:	42a5      	cmp	r5, r4
 800a96c:	d105      	bne.n	800a97a <__libc_init_array+0x2e>
 800a96e:	bd70      	pop	{r4, r5, r6, pc}
 800a970:	f856 3025 	ldr.w	r3, [r6, r5, lsl #2]
 800a974:	4798      	blx	r3
 800a976:	3501      	adds	r5, #1
 800a978:	e7ee      	b.n	800a958 <__libc_init_array+0xc>
 800a97a:	f856 3025 	ldr.w	r3, [r6, r5, lsl #2]
 800a97e:	4798      	blx	r3
 800a980:	3501      	adds	r5, #1
 800a982:	e7f2      	b.n	800a96a <__libc_init_array+0x1e>
 800a984:	0800d628 	.word	0x0800d628
 800a988:	0800d628 	.word	0x0800d628
 800a98c:	0800d628 	.word	0x0800d628
 800a990:	0800d62c 	.word	0x0800d62c

0800a994 <malloc>:
 800a994:	4b02      	ldr	r3, [pc, #8]	; (800a9a0 <malloc+0xc>)
 800a996:	4601      	mov	r1, r0
 800a998:	6818      	ldr	r0, [r3, #0]
 800a99a:	f000 b859 	b.w	800aa50 <_malloc_r>
 800a99e:	bf00      	nop
 800a9a0:	24000014 	.word	0x24000014

0800a9a4 <memset>:
 800a9a4:	4402      	add	r2, r0
 800a9a6:	4603      	mov	r3, r0
 800a9a8:	4293      	cmp	r3, r2
 800a9aa:	d100      	bne.n	800a9ae <memset+0xa>
 800a9ac:	4770      	bx	lr
 800a9ae:	f803 1b01 	strb.w	r1, [r3], #1
 800a9b2:	e7f9      	b.n	800a9a8 <memset+0x4>

0800a9b4 <_free_r>:
 800a9b4:	b538      	push	{r3, r4, r5, lr}
 800a9b6:	4605      	mov	r5, r0
 800a9b8:	2900      	cmp	r1, #0
 800a9ba:	d045      	beq.n	800aa48 <_free_r+0x94>
 800a9bc:	f851 3c04 	ldr.w	r3, [r1, #-4]
 800a9c0:	1f0c      	subs	r4, r1, #4
 800a9c2:	2b00      	cmp	r3, #0
 800a9c4:	bfb8      	it	lt
 800a9c6:	18e4      	addlt	r4, r4, r3
 800a9c8:	f000 fbc6 	bl	800b158 <__malloc_lock>
 800a9cc:	4a1f      	ldr	r2, [pc, #124]	; (800aa4c <_free_r+0x98>)
 800a9ce:	6813      	ldr	r3, [r2, #0]
 800a9d0:	4610      	mov	r0, r2
 800a9d2:	b933      	cbnz	r3, 800a9e2 <_free_r+0x2e>
 800a9d4:	6063      	str	r3, [r4, #4]
 800a9d6:	6014      	str	r4, [r2, #0]
 800a9d8:	4628      	mov	r0, r5
 800a9da:	e8bd 4038 	ldmia.w	sp!, {r3, r4, r5, lr}
 800a9de:	f000 bbbc 	b.w	800b15a <__malloc_unlock>
 800a9e2:	42a3      	cmp	r3, r4
 800a9e4:	d90c      	bls.n	800aa00 <_free_r+0x4c>
 800a9e6:	6821      	ldr	r1, [r4, #0]
 800a9e8:	1862      	adds	r2, r4, r1
 800a9ea:	4293      	cmp	r3, r2
 800a9ec:	bf04      	itt	eq
 800a9ee:	681a      	ldreq	r2, [r3, #0]
 800a9f0:	685b      	ldreq	r3, [r3, #4]
 800a9f2:	6063      	str	r3, [r4, #4]
 800a9f4:	bf04      	itt	eq
 800a9f6:	1852      	addeq	r2, r2, r1
 800a9f8:	6022      	streq	r2, [r4, #0]
 800a9fa:	6004      	str	r4, [r0, #0]
 800a9fc:	e7ec      	b.n	800a9d8 <_free_r+0x24>
 800a9fe:	4613      	mov	r3, r2
 800aa00:	685a      	ldr	r2, [r3, #4]
 800aa02:	b10a      	cbz	r2, 800aa08 <_free_r+0x54>
 800aa04:	42a2      	cmp	r2, r4
 800aa06:	d9fa      	bls.n	800a9fe <_free_r+0x4a>
 800aa08:	6819      	ldr	r1, [r3, #0]
 800aa0a:	1858      	adds	r0, r3, r1
 800aa0c:	42a0      	cmp	r0, r4
 800aa0e:	d10b      	bne.n	800aa28 <_free_r+0x74>
 800aa10:	6820      	ldr	r0, [r4, #0]
 800aa12:	4401      	add	r1, r0
 800aa14:	1858      	adds	r0, r3, r1
 800aa16:	4282      	cmp	r2, r0
 800aa18:	6019      	str	r1, [r3, #0]
 800aa1a:	d1dd      	bne.n	800a9d8 <_free_r+0x24>
 800aa1c:	6810      	ldr	r0, [r2, #0]
 800aa1e:	6852      	ldr	r2, [r2, #4]
 800aa20:	605a      	str	r2, [r3, #4]
 800aa22:	4401      	add	r1, r0
 800aa24:	6019      	str	r1, [r3, #0]
 800aa26:	e7d7      	b.n	800a9d8 <_free_r+0x24>
 800aa28:	d902      	bls.n	800aa30 <_free_r+0x7c>
 800aa2a:	230c      	movs	r3, #12
 800aa2c:	602b      	str	r3, [r5, #0]
 800aa2e:	e7d3      	b.n	800a9d8 <_free_r+0x24>
 800aa30:	6820      	ldr	r0, [r4, #0]
 800aa32:	1821      	adds	r1, r4, r0
 800aa34:	428a      	cmp	r2, r1
 800aa36:	bf04      	itt	eq
 800aa38:	6811      	ldreq	r1, [r2, #0]
 800aa3a:	6852      	ldreq	r2, [r2, #4]
 800aa3c:	6062      	str	r2, [r4, #4]
 800aa3e:	bf04      	itt	eq
 800aa40:	1809      	addeq	r1, r1, r0
 800aa42:	6021      	streq	r1, [r4, #0]
 800aa44:	605c      	str	r4, [r3, #4]
 800aa46:	e7c7      	b.n	800a9d8 <_free_r+0x24>
 800aa48:	bd38      	pop	{r3, r4, r5, pc}
 800aa4a:	bf00      	nop
 800aa4c:	2400b5c8 	.word	0x2400b5c8

0800aa50 <_malloc_r>:
 800aa50:	b570      	push	{r4, r5, r6, lr}
 800aa52:	1ccd      	adds	r5, r1, #3
 800aa54:	f025 0503 	bic.w	r5, r5, #3
 800aa58:	3508      	adds	r5, #8
 800aa5a:	2d0c      	cmp	r5, #12
 800aa5c:	bf38      	it	cc
 800aa5e:	250c      	movcc	r5, #12
 800aa60:	2d00      	cmp	r5, #0
 800aa62:	4606      	mov	r6, r0
 800aa64:	db01      	blt.n	800aa6a <_malloc_r+0x1a>
 800aa66:	42a9      	cmp	r1, r5
 800aa68:	d903      	bls.n	800aa72 <_malloc_r+0x22>
 800aa6a:	230c      	movs	r3, #12
 800aa6c:	6033      	str	r3, [r6, #0]
 800aa6e:	2000      	movs	r0, #0
 800aa70:	bd70      	pop	{r4, r5, r6, pc}
 800aa72:	f000 fb71 	bl	800b158 <__malloc_lock>
 800aa76:	4a21      	ldr	r2, [pc, #132]	; (800aafc <_malloc_r+0xac>)
 800aa78:	6814      	ldr	r4, [r2, #0]
 800aa7a:	4621      	mov	r1, r4
 800aa7c:	b991      	cbnz	r1, 800aaa4 <_malloc_r+0x54>
 800aa7e:	4c20      	ldr	r4, [pc, #128]	; (800ab00 <_malloc_r+0xb0>)
 800aa80:	6823      	ldr	r3, [r4, #0]
 800aa82:	b91b      	cbnz	r3, 800aa8c <_malloc_r+0x3c>
 800aa84:	4630      	mov	r0, r6
 800aa86:	f000 f8b9 	bl	800abfc <_sbrk_r>
 800aa8a:	6020      	str	r0, [r4, #0]
 800aa8c:	4629      	mov	r1, r5
 800aa8e:	4630      	mov	r0, r6
 800aa90:	f000 f8b4 	bl	800abfc <_sbrk_r>
 800aa94:	1c43      	adds	r3, r0, #1
 800aa96:	d124      	bne.n	800aae2 <_malloc_r+0x92>
 800aa98:	230c      	movs	r3, #12
 800aa9a:	6033      	str	r3, [r6, #0]
 800aa9c:	4630      	mov	r0, r6
 800aa9e:	f000 fb5c 	bl	800b15a <__malloc_unlock>
 800aaa2:	e7e4      	b.n	800aa6e <_malloc_r+0x1e>
 800aaa4:	680b      	ldr	r3, [r1, #0]
 800aaa6:	1b5b      	subs	r3, r3, r5
 800aaa8:	d418      	bmi.n	800aadc <_malloc_r+0x8c>
 800aaaa:	2b0b      	cmp	r3, #11
 800aaac:	d90f      	bls.n	800aace <_malloc_r+0x7e>
 800aaae:	600b      	str	r3, [r1, #0]
 800aab0:	50cd      	str	r5, [r1, r3]
 800aab2:	18cc      	adds	r4, r1, r3
 800aab4:	4630      	mov	r0, r6
 800aab6:	f000 fb50 	bl	800b15a <__malloc_unlock>
 800aaba:	f104 000b 	add.w	r0, r4, #11
 800aabe:	1d23      	adds	r3, r4, #4
 800aac0:	f020 0007 	bic.w	r0, r0, #7
 800aac4:	1ac3      	subs	r3, r0, r3
 800aac6:	d0d3      	beq.n	800aa70 <_malloc_r+0x20>
 800aac8:	425a      	negs	r2, r3
 800aaca:	50e2      	str	r2, [r4, r3]
 800aacc:	e7d0      	b.n	800aa70 <_malloc_r+0x20>
 800aace:	428c      	cmp	r4, r1
 800aad0:	684b      	ldr	r3, [r1, #4]
 800aad2:	bf16      	itet	ne
 800aad4:	6063      	strne	r3, [r4, #4]
 800aad6:	6013      	streq	r3, [r2, #0]
 800aad8:	460c      	movne	r4, r1
 800aada:	e7eb      	b.n	800aab4 <_malloc_r+0x64>
 800aadc:	460c      	mov	r4, r1
 800aade:	6849      	ldr	r1, [r1, #4]
 800aae0:	e7cc      	b.n	800aa7c <_malloc_r+0x2c>
 800aae2:	1cc4      	adds	r4, r0, #3
 800aae4:	f024 0403 	bic.w	r4, r4, #3
 800aae8:	42a0      	cmp	r0, r4
 800aaea:	d005      	beq.n	800aaf8 <_malloc_r+0xa8>
 800aaec:	1a21      	subs	r1, r4, r0
 800aaee:	4630      	mov	r0, r6
 800aaf0:	f000 f884 	bl	800abfc <_sbrk_r>
 800aaf4:	3001      	adds	r0, #1
 800aaf6:	d0cf      	beq.n	800aa98 <_malloc_r+0x48>
 800aaf8:	6025      	str	r5, [r4, #0]
 800aafa:	e7db      	b.n	800aab4 <_malloc_r+0x64>
 800aafc:	2400b5c8 	.word	0x2400b5c8
 800ab00:	2400b5cc 	.word	0x2400b5cc

0800ab04 <iprintf>:
 800ab04:	b40f      	push	{r0, r1, r2, r3}
 800ab06:	4b0a      	ldr	r3, [pc, #40]	; (800ab30 <iprintf+0x2c>)
 800ab08:	b513      	push	{r0, r1, r4, lr}
 800ab0a:	681c      	ldr	r4, [r3, #0]
 800ab0c:	b124      	cbz	r4, 800ab18 <iprintf+0x14>
 800ab0e:	69a3      	ldr	r3, [r4, #24]
 800ab10:	b913      	cbnz	r3, 800ab18 <iprintf+0x14>
 800ab12:	4620      	mov	r0, r4
 800ab14:	f000 fa32 	bl	800af7c <__sinit>
 800ab18:	ab05      	add	r3, sp, #20
 800ab1a:	9a04      	ldr	r2, [sp, #16]
 800ab1c:	68a1      	ldr	r1, [r4, #8]
 800ab1e:	9301      	str	r3, [sp, #4]
 800ab20:	4620      	mov	r0, r4
 800ab22:	f000 fb45 	bl	800b1b0 <_vfiprintf_r>
 800ab26:	b002      	add	sp, #8
 800ab28:	e8bd 4010 	ldmia.w	sp!, {r4, lr}
 800ab2c:	b004      	add	sp, #16
 800ab2e:	4770      	bx	lr
 800ab30:	24000014 	.word	0x24000014

0800ab34 <_puts_r>:
 800ab34:	b570      	push	{r4, r5, r6, lr}
 800ab36:	460e      	mov	r6, r1
 800ab38:	4605      	mov	r5, r0
 800ab3a:	b118      	cbz	r0, 800ab44 <_puts_r+0x10>
 800ab3c:	6983      	ldr	r3, [r0, #24]
 800ab3e:	b90b      	cbnz	r3, 800ab44 <_puts_r+0x10>
 800ab40:	f000 fa1c 	bl	800af7c <__sinit>
 800ab44:	69ab      	ldr	r3, [r5, #24]
 800ab46:	68ac      	ldr	r4, [r5, #8]
 800ab48:	b913      	cbnz	r3, 800ab50 <_puts_r+0x1c>
 800ab4a:	4628      	mov	r0, r5
 800ab4c:	f000 fa16 	bl	800af7c <__sinit>
 800ab50:	4b23      	ldr	r3, [pc, #140]	; (800abe0 <_puts_r+0xac>)
 800ab52:	429c      	cmp	r4, r3
 800ab54:	d117      	bne.n	800ab86 <_puts_r+0x52>
 800ab56:	686c      	ldr	r4, [r5, #4]
 800ab58:	89a3      	ldrh	r3, [r4, #12]
 800ab5a:	071b      	lsls	r3, r3, #28
 800ab5c:	d51d      	bpl.n	800ab9a <_puts_r+0x66>
 800ab5e:	6923      	ldr	r3, [r4, #16]
 800ab60:	b1db      	cbz	r3, 800ab9a <_puts_r+0x66>
 800ab62:	3e01      	subs	r6, #1
 800ab64:	68a3      	ldr	r3, [r4, #8]
 800ab66:	f816 1f01 	ldrb.w	r1, [r6, #1]!
 800ab6a:	3b01      	subs	r3, #1
 800ab6c:	60a3      	str	r3, [r4, #8]
 800ab6e:	b9e9      	cbnz	r1, 800abac <_puts_r+0x78>
 800ab70:	2b00      	cmp	r3, #0
 800ab72:	da2e      	bge.n	800abd2 <_puts_r+0x9e>
 800ab74:	4622      	mov	r2, r4
 800ab76:	210a      	movs	r1, #10
 800ab78:	4628      	mov	r0, r5
 800ab7a:	f000 f84f 	bl	800ac1c <__swbuf_r>
 800ab7e:	3001      	adds	r0, #1
 800ab80:	d011      	beq.n	800aba6 <_puts_r+0x72>
 800ab82:	200a      	movs	r0, #10
 800ab84:	e011      	b.n	800abaa <_puts_r+0x76>
 800ab86:	4b17      	ldr	r3, [pc, #92]	; (800abe4 <_puts_r+0xb0>)
 800ab88:	429c      	cmp	r4, r3
 800ab8a:	d101      	bne.n	800ab90 <_puts_r+0x5c>
 800ab8c:	68ac      	ldr	r4, [r5, #8]
 800ab8e:	e7e3      	b.n	800ab58 <_puts_r+0x24>
 800ab90:	4b15      	ldr	r3, [pc, #84]	; (800abe8 <_puts_r+0xb4>)
 800ab92:	429c      	cmp	r4, r3
 800ab94:	bf08      	it	eq
 800ab96:	68ec      	ldreq	r4, [r5, #12]
 800ab98:	e7de      	b.n	800ab58 <_puts_r+0x24>
 800ab9a:	4621      	mov	r1, r4
 800ab9c:	4628      	mov	r0, r5
 800ab9e:	f000 f88f 	bl	800acc0 <__swsetup_r>
 800aba2:	2800      	cmp	r0, #0
 800aba4:	d0dd      	beq.n	800ab62 <_puts_r+0x2e>
 800aba6:	f04f 30ff 	mov.w	r0, #4294967295	; 0xffffffff
 800abaa:	bd70      	pop	{r4, r5, r6, pc}
 800abac:	2b00      	cmp	r3, #0
 800abae:	da04      	bge.n	800abba <_puts_r+0x86>
 800abb0:	69a2      	ldr	r2, [r4, #24]
 800abb2:	429a      	cmp	r2, r3
 800abb4:	dc06      	bgt.n	800abc4 <_puts_r+0x90>
 800abb6:	290a      	cmp	r1, #10
 800abb8:	d004      	beq.n	800abc4 <_puts_r+0x90>
 800abba:	6823      	ldr	r3, [r4, #0]
 800abbc:	1c5a      	adds	r2, r3, #1
 800abbe:	6022      	str	r2, [r4, #0]
 800abc0:	7019      	strb	r1, [r3, #0]
 800abc2:	e7cf      	b.n	800ab64 <_puts_r+0x30>
 800abc4:	4622      	mov	r2, r4
 800abc6:	4628      	mov	r0, r5
 800abc8:	f000 f828 	bl	800ac1c <__swbuf_r>
 800abcc:	3001      	adds	r0, #1
 800abce:	d1c9      	bne.n	800ab64 <_puts_r+0x30>
 800abd0:	e7e9      	b.n	800aba6 <_puts_r+0x72>
 800abd2:	6823      	ldr	r3, [r4, #0]
 800abd4:	200a      	movs	r0, #10
 800abd6:	1c5a      	adds	r2, r3, #1
 800abd8:	6022      	str	r2, [r4, #0]
 800abda:	7018      	strb	r0, [r3, #0]
 800abdc:	e7e5      	b.n	800abaa <_puts_r+0x76>
 800abde:	bf00      	nop
 800abe0:	0800d38c 	.word	0x0800d38c
 800abe4:	0800d3ac 	.word	0x0800d3ac
 800abe8:	0800d36c 	.word	0x0800d36c

0800abec <puts>:
 800abec:	4b02      	ldr	r3, [pc, #8]	; (800abf8 <puts+0xc>)
 800abee:	4601      	mov	r1, r0
 800abf0:	6818      	ldr	r0, [r3, #0]
 800abf2:	f7ff bf9f 	b.w	800ab34 <_puts_r>
 800abf6:	bf00      	nop
 800abf8:	24000014 	.word	0x24000014

0800abfc <_sbrk_r>:
 800abfc:	b538      	push	{r3, r4, r5, lr}
 800abfe:	4c06      	ldr	r4, [pc, #24]	; (800ac18 <_sbrk_r+0x1c>)
 800ac00:	2300      	movs	r3, #0
 800ac02:	4605      	mov	r5, r0
 800ac04:	4608      	mov	r0, r1
 800ac06:	6023      	str	r3, [r4, #0]
 800ac08:	f7f6 f9f4 	bl	8000ff4 <_sbrk>
 800ac0c:	1c43      	adds	r3, r0, #1
 800ac0e:	d102      	bne.n	800ac16 <_sbrk_r+0x1a>
 800ac10:	6823      	ldr	r3, [r4, #0]
 800ac12:	b103      	cbz	r3, 800ac16 <_sbrk_r+0x1a>
 800ac14:	602b      	str	r3, [r5, #0]
 800ac16:	bd38      	pop	{r3, r4, r5, pc}
 800ac18:	2400b950 	.word	0x2400b950

0800ac1c <__swbuf_r>:
 800ac1c:	b5f8      	push	{r3, r4, r5, r6, r7, lr}
 800ac1e:	460e      	mov	r6, r1
 800ac20:	4614      	mov	r4, r2
 800ac22:	4605      	mov	r5, r0
 800ac24:	b118      	cbz	r0, 800ac2e <__swbuf_r+0x12>
 800ac26:	6983      	ldr	r3, [r0, #24]
 800ac28:	b90b      	cbnz	r3, 800ac2e <__swbuf_r+0x12>
 800ac2a:	f000 f9a7 	bl	800af7c <__sinit>
 800ac2e:	4b21      	ldr	r3, [pc, #132]	; (800acb4 <__swbuf_r+0x98>)
 800ac30:	429c      	cmp	r4, r3
 800ac32:	d12a      	bne.n	800ac8a <__swbuf_r+0x6e>
 800ac34:	686c      	ldr	r4, [r5, #4]
 800ac36:	69a3      	ldr	r3, [r4, #24]
 800ac38:	60a3      	str	r3, [r4, #8]
 800ac3a:	89a3      	ldrh	r3, [r4, #12]
 800ac3c:	071a      	lsls	r2, r3, #28
 800ac3e:	d52e      	bpl.n	800ac9e <__swbuf_r+0x82>
 800ac40:	6923      	ldr	r3, [r4, #16]
 800ac42:	b363      	cbz	r3, 800ac9e <__swbuf_r+0x82>
 800ac44:	6923      	ldr	r3, [r4, #16]
 800ac46:	6820      	ldr	r0, [r4, #0]
 800ac48:	1ac0      	subs	r0, r0, r3
 800ac4a:	6963      	ldr	r3, [r4, #20]
 800ac4c:	b2f6      	uxtb	r6, r6
 800ac4e:	4283      	cmp	r3, r0
 800ac50:	4637      	mov	r7, r6
 800ac52:	dc04      	bgt.n	800ac5e <__swbuf_r+0x42>
 800ac54:	4621      	mov	r1, r4
 800ac56:	4628      	mov	r0, r5
 800ac58:	f000 f926 	bl	800aea8 <_fflush_r>
 800ac5c:	bb28      	cbnz	r0, 800acaa <__swbuf_r+0x8e>
 800ac5e:	68a3      	ldr	r3, [r4, #8]
 800ac60:	3b01      	subs	r3, #1
 800ac62:	60a3      	str	r3, [r4, #8]
 800ac64:	6823      	ldr	r3, [r4, #0]
 800ac66:	1c5a      	adds	r2, r3, #1
 800ac68:	6022      	str	r2, [r4, #0]
 800ac6a:	701e      	strb	r6, [r3, #0]
 800ac6c:	6963      	ldr	r3, [r4, #20]
 800ac6e:	3001      	adds	r0, #1
 800ac70:	4283      	cmp	r3, r0
 800ac72:	d004      	beq.n	800ac7e <__swbuf_r+0x62>
 800ac74:	89a3      	ldrh	r3, [r4, #12]
 800ac76:	07db      	lsls	r3, r3, #31
 800ac78:	d519      	bpl.n	800acae <__swbuf_r+0x92>
 800ac7a:	2e0a      	cmp	r6, #10
 800ac7c:	d117      	bne.n	800acae <__swbuf_r+0x92>
 800ac7e:	4621      	mov	r1, r4
 800ac80:	4628      	mov	r0, r5
 800ac82:	f000 f911 	bl	800aea8 <_fflush_r>
 800ac86:	b190      	cbz	r0, 800acae <__swbuf_r+0x92>
 800ac88:	e00f      	b.n	800acaa <__swbuf_r+0x8e>
 800ac8a:	4b0b      	ldr	r3, [pc, #44]	; (800acb8 <__swbuf_r+0x9c>)
 800ac8c:	429c      	cmp	r4, r3
 800ac8e:	d101      	bne.n	800ac94 <__swbuf_r+0x78>
 800ac90:	68ac      	ldr	r4, [r5, #8]
 800ac92:	e7d0      	b.n	800ac36 <__swbuf_r+0x1a>
 800ac94:	4b09      	ldr	r3, [pc, #36]	; (800acbc <__swbuf_r+0xa0>)
 800ac96:	429c      	cmp	r4, r3
 800ac98:	bf08      	it	eq
 800ac9a:	68ec      	ldreq	r4, [r5, #12]
 800ac9c:	e7cb      	b.n	800ac36 <__swbuf_r+0x1a>
 800ac9e:	4621      	mov	r1, r4
 800aca0:	4628      	mov	r0, r5
 800aca2:	f000 f80d 	bl	800acc0 <__swsetup_r>
 800aca6:	2800      	cmp	r0, #0
 800aca8:	d0cc      	beq.n	800ac44 <__swbuf_r+0x28>
 800acaa:	f04f 37ff 	mov.w	r7, #4294967295	; 0xffffffff
 800acae:	4638      	mov	r0, r7
 800acb0:	bdf8      	pop	{r3, r4, r5, r6, r7, pc}
 800acb2:	bf00      	nop
 800acb4:	0800d38c 	.word	0x0800d38c
 800acb8:	0800d3ac 	.word	0x0800d3ac
 800acbc:	0800d36c 	.word	0x0800d36c

0800acc0 <__swsetup_r>:
 800acc0:	4b32      	ldr	r3, [pc, #200]	; (800ad8c <__swsetup_r+0xcc>)
 800acc2:	b570      	push	{r4, r5, r6, lr}
 800acc4:	681d      	ldr	r5, [r3, #0]
 800acc6:	4606      	mov	r6, r0
 800acc8:	460c      	mov	r4, r1
 800acca:	b125      	cbz	r5, 800acd6 <__swsetup_r+0x16>
 800accc:	69ab      	ldr	r3, [r5, #24]
 800acce:	b913      	cbnz	r3, 800acd6 <__swsetup_r+0x16>
 800acd0:	4628      	mov	r0, r5
 800acd2:	f000 f953 	bl	800af7c <__sinit>
 800acd6:	4b2e      	ldr	r3, [pc, #184]	; (800ad90 <__swsetup_r+0xd0>)
 800acd8:	429c      	cmp	r4, r3
 800acda:	d10f      	bne.n	800acfc <__swsetup_r+0x3c>
 800acdc:	686c      	ldr	r4, [r5, #4]
 800acde:	f9b4 300c 	ldrsh.w	r3, [r4, #12]
 800ace2:	b29a      	uxth	r2, r3
 800ace4:	0715      	lsls	r5, r2, #28
 800ace6:	d42c      	bmi.n	800ad42 <__swsetup_r+0x82>
 800ace8:	06d0      	lsls	r0, r2, #27
 800acea:	d411      	bmi.n	800ad10 <__swsetup_r+0x50>
 800acec:	2209      	movs	r2, #9
 800acee:	6032      	str	r2, [r6, #0]
 800acf0:	f043 0340 	orr.w	r3, r3, #64	; 0x40
 800acf4:	81a3      	strh	r3, [r4, #12]
 800acf6:	f04f 30ff 	mov.w	r0, #4294967295	; 0xffffffff
 800acfa:	e03e      	b.n	800ad7a <__swsetup_r+0xba>
 800acfc:	4b25      	ldr	r3, [pc, #148]	; (800ad94 <__swsetup_r+0xd4>)
 800acfe:	429c      	cmp	r4, r3
 800ad00:	d101      	bne.n	800ad06 <__swsetup_r+0x46>
 800ad02:	68ac      	ldr	r4, [r5, #8]
 800ad04:	e7eb      	b.n	800acde <__swsetup_r+0x1e>
 800ad06:	4b24      	ldr	r3, [pc, #144]	; (800ad98 <__swsetup_r+0xd8>)
 800ad08:	429c      	cmp	r4, r3
 800ad0a:	bf08      	it	eq
 800ad0c:	68ec      	ldreq	r4, [r5, #12]
 800ad0e:	e7e6      	b.n	800acde <__swsetup_r+0x1e>
 800ad10:	0751      	lsls	r1, r2, #29
 800ad12:	d512      	bpl.n	800ad3a <__swsetup_r+0x7a>
 800ad14:	6b61      	ldr	r1, [r4, #52]	; 0x34
 800ad16:	b141      	cbz	r1, 800ad2a <__swsetup_r+0x6a>
 800ad18:	f104 0344 	add.w	r3, r4, #68	; 0x44
 800ad1c:	4299      	cmp	r1, r3
 800ad1e:	d002      	beq.n	800ad26 <__swsetup_r+0x66>
 800ad20:	4630      	mov	r0, r6
 800ad22:	f7ff fe47 	bl	800a9b4 <_free_r>
 800ad26:	2300      	movs	r3, #0
 800ad28:	6363      	str	r3, [r4, #52]	; 0x34
 800ad2a:	89a3      	ldrh	r3, [r4, #12]
 800ad2c:	f023 0324 	bic.w	r3, r3, #36	; 0x24
 800ad30:	81a3      	strh	r3, [r4, #12]
 800ad32:	2300      	movs	r3, #0
 800ad34:	6063      	str	r3, [r4, #4]
 800ad36:	6923      	ldr	r3, [r4, #16]
 800ad38:	6023      	str	r3, [r4, #0]
 800ad3a:	89a3      	ldrh	r3, [r4, #12]
 800ad3c:	f043 0308 	orr.w	r3, r3, #8
 800ad40:	81a3      	strh	r3, [r4, #12]
 800ad42:	6923      	ldr	r3, [r4, #16]
 800ad44:	b94b      	cbnz	r3, 800ad5a <__swsetup_r+0x9a>
 800ad46:	89a3      	ldrh	r3, [r4, #12]
 800ad48:	f403 7320 	and.w	r3, r3, #640	; 0x280
 800ad4c:	f5b3 7f00 	cmp.w	r3, #512	; 0x200
 800ad50:	d003      	beq.n	800ad5a <__swsetup_r+0x9a>
 800ad52:	4621      	mov	r1, r4
 800ad54:	4630      	mov	r0, r6
 800ad56:	f000 f9bf 	bl	800b0d8 <__smakebuf_r>
 800ad5a:	89a2      	ldrh	r2, [r4, #12]
 800ad5c:	f012 0301 	ands.w	r3, r2, #1
 800ad60:	d00c      	beq.n	800ad7c <__swsetup_r+0xbc>
 800ad62:	2300      	movs	r3, #0
 800ad64:	60a3      	str	r3, [r4, #8]
 800ad66:	6963      	ldr	r3, [r4, #20]
 800ad68:	425b      	negs	r3, r3
 800ad6a:	61a3      	str	r3, [r4, #24]
 800ad6c:	6923      	ldr	r3, [r4, #16]
 800ad6e:	b953      	cbnz	r3, 800ad86 <__swsetup_r+0xc6>
 800ad70:	f9b4 300c 	ldrsh.w	r3, [r4, #12]
 800ad74:	f013 0080 	ands.w	r0, r3, #128	; 0x80
 800ad78:	d1ba      	bne.n	800acf0 <__swsetup_r+0x30>
 800ad7a:	bd70      	pop	{r4, r5, r6, pc}
 800ad7c:	0792      	lsls	r2, r2, #30
 800ad7e:	bf58      	it	pl
 800ad80:	6963      	ldrpl	r3, [r4, #20]
 800ad82:	60a3      	str	r3, [r4, #8]
 800ad84:	e7f2      	b.n	800ad6c <__swsetup_r+0xac>
 800ad86:	2000      	movs	r0, #0
 800ad88:	e7f7      	b.n	800ad7a <__swsetup_r+0xba>
 800ad8a:	bf00      	nop
 800ad8c:	24000014 	.word	0x24000014
 800ad90:	0800d38c 	.word	0x0800d38c
 800ad94:	0800d3ac 	.word	0x0800d3ac
 800ad98:	0800d36c 	.word	0x0800d36c

0800ad9c <__sflush_r>:
 800ad9c:	898a      	ldrh	r2, [r1, #12]
 800ad9e:	e92d 41f0 	stmdb	sp!, {r4, r5, r6, r7, r8, lr}
 800ada2:	4605      	mov	r5, r0
 800ada4:	0710      	lsls	r0, r2, #28
 800ada6:	460c      	mov	r4, r1
 800ada8:	d458      	bmi.n	800ae5c <__sflush_r+0xc0>
 800adaa:	684b      	ldr	r3, [r1, #4]
 800adac:	2b00      	cmp	r3, #0
 800adae:	dc05      	bgt.n	800adbc <__sflush_r+0x20>
 800adb0:	6c0b      	ldr	r3, [r1, #64]	; 0x40
 800adb2:	2b00      	cmp	r3, #0
 800adb4:	dc02      	bgt.n	800adbc <__sflush_r+0x20>
 800adb6:	2000      	movs	r0, #0
 800adb8:	e8bd 81f0 	ldmia.w	sp!, {r4, r5, r6, r7, r8, pc}
 800adbc:	6ae6      	ldr	r6, [r4, #44]	; 0x2c
 800adbe:	2e00      	cmp	r6, #0
 800adc0:	d0f9      	beq.n	800adb6 <__sflush_r+0x1a>
 800adc2:	2300      	movs	r3, #0
 800adc4:	f412 5280 	ands.w	r2, r2, #4096	; 0x1000
 800adc8:	682f      	ldr	r7, [r5, #0]
 800adca:	6a21      	ldr	r1, [r4, #32]
 800adcc:	602b      	str	r3, [r5, #0]
 800adce:	d032      	beq.n	800ae36 <__sflush_r+0x9a>
 800add0:	6d60      	ldr	r0, [r4, #84]	; 0x54
 800add2:	89a3      	ldrh	r3, [r4, #12]
 800add4:	075a      	lsls	r2, r3, #29
 800add6:	d505      	bpl.n	800ade4 <__sflush_r+0x48>
 800add8:	6863      	ldr	r3, [r4, #4]
 800adda:	1ac0      	subs	r0, r0, r3
 800addc:	6b63      	ldr	r3, [r4, #52]	; 0x34
 800adde:	b10b      	cbz	r3, 800ade4 <__sflush_r+0x48>
 800ade0:	6c23      	ldr	r3, [r4, #64]	; 0x40
 800ade2:	1ac0      	subs	r0, r0, r3
 800ade4:	2300      	movs	r3, #0
 800ade6:	4602      	mov	r2, r0
 800ade8:	6ae6      	ldr	r6, [r4, #44]	; 0x2c
 800adea:	6a21      	ldr	r1, [r4, #32]
 800adec:	4628      	mov	r0, r5
 800adee:	47b0      	blx	r6
 800adf0:	1c43      	adds	r3, r0, #1
 800adf2:	89a3      	ldrh	r3, [r4, #12]
 800adf4:	d106      	bne.n	800ae04 <__sflush_r+0x68>
 800adf6:	6829      	ldr	r1, [r5, #0]
 800adf8:	291d      	cmp	r1, #29
 800adfa:	d848      	bhi.n	800ae8e <__sflush_r+0xf2>
 800adfc:	4a29      	ldr	r2, [pc, #164]	; (800aea4 <__sflush_r+0x108>)
 800adfe:	40ca      	lsrs	r2, r1
 800ae00:	07d6      	lsls	r6, r2, #31
 800ae02:	d544      	bpl.n	800ae8e <__sflush_r+0xf2>
 800ae04:	2200      	movs	r2, #0
 800ae06:	6062      	str	r2, [r4, #4]
 800ae08:	04d9      	lsls	r1, r3, #19
 800ae0a:	6922      	ldr	r2, [r4, #16]
 800ae0c:	6022      	str	r2, [r4, #0]
 800ae0e:	d504      	bpl.n	800ae1a <__sflush_r+0x7e>
 800ae10:	1c42      	adds	r2, r0, #1
 800ae12:	d101      	bne.n	800ae18 <__sflush_r+0x7c>
 800ae14:	682b      	ldr	r3, [r5, #0]
 800ae16:	b903      	cbnz	r3, 800ae1a <__sflush_r+0x7e>
 800ae18:	6560      	str	r0, [r4, #84]	; 0x54
 800ae1a:	6b61      	ldr	r1, [r4, #52]	; 0x34
 800ae1c:	602f      	str	r7, [r5, #0]
 800ae1e:	2900      	cmp	r1, #0
 800ae20:	d0c9      	beq.n	800adb6 <__sflush_r+0x1a>
 800ae22:	f104 0344 	add.w	r3, r4, #68	; 0x44
 800ae26:	4299      	cmp	r1, r3
 800ae28:	d002      	beq.n	800ae30 <__sflush_r+0x94>
 800ae2a:	4628      	mov	r0, r5
 800ae2c:	f7ff fdc2 	bl	800a9b4 <_free_r>
 800ae30:	2000      	movs	r0, #0
 800ae32:	6360      	str	r0, [r4, #52]	; 0x34
 800ae34:	e7c0      	b.n	800adb8 <__sflush_r+0x1c>
 800ae36:	2301      	movs	r3, #1
 800ae38:	4628      	mov	r0, r5
 800ae3a:	47b0      	blx	r6
 800ae3c:	1c41      	adds	r1, r0, #1
 800ae3e:	d1c8      	bne.n	800add2 <__sflush_r+0x36>
 800ae40:	682b      	ldr	r3, [r5, #0]
 800ae42:	2b00      	cmp	r3, #0
 800ae44:	d0c5      	beq.n	800add2 <__sflush_r+0x36>
 800ae46:	2b1d      	cmp	r3, #29
 800ae48:	d001      	beq.n	800ae4e <__sflush_r+0xb2>
 800ae4a:	2b16      	cmp	r3, #22
 800ae4c:	d101      	bne.n	800ae52 <__sflush_r+0xb6>
 800ae4e:	602f      	str	r7, [r5, #0]
 800ae50:	e7b1      	b.n	800adb6 <__sflush_r+0x1a>
 800ae52:	89a3      	ldrh	r3, [r4, #12]
 800ae54:	f043 0340 	orr.w	r3, r3, #64	; 0x40
 800ae58:	81a3      	strh	r3, [r4, #12]
 800ae5a:	e7ad      	b.n	800adb8 <__sflush_r+0x1c>
 800ae5c:	690f      	ldr	r7, [r1, #16]
 800ae5e:	2f00      	cmp	r7, #0
 800ae60:	d0a9      	beq.n	800adb6 <__sflush_r+0x1a>
 800ae62:	0793      	lsls	r3, r2, #30
 800ae64:	680e      	ldr	r6, [r1, #0]
 800ae66:	bf08      	it	eq
 800ae68:	694b      	ldreq	r3, [r1, #20]
 800ae6a:	600f      	str	r7, [r1, #0]
 800ae6c:	bf18      	it	ne
 800ae6e:	2300      	movne	r3, #0
 800ae70:	eba6 0807 	sub.w	r8, r6, r7
 800ae74:	608b      	str	r3, [r1, #8]
 800ae76:	f1b8 0f00 	cmp.w	r8, #0
 800ae7a:	dd9c      	ble.n	800adb6 <__sflush_r+0x1a>
 800ae7c:	4643      	mov	r3, r8
 800ae7e:	463a      	mov	r2, r7
 800ae80:	6a21      	ldr	r1, [r4, #32]
 800ae82:	6aa6      	ldr	r6, [r4, #40]	; 0x28
 800ae84:	4628      	mov	r0, r5
 800ae86:	47b0      	blx	r6
 800ae88:	2800      	cmp	r0, #0
 800ae8a:	dc06      	bgt.n	800ae9a <__sflush_r+0xfe>
 800ae8c:	89a3      	ldrh	r3, [r4, #12]
 800ae8e:	f043 0340 	orr.w	r3, r3, #64	; 0x40
 800ae92:	81a3      	strh	r3, [r4, #12]
 800ae94:	f04f 30ff 	mov.w	r0, #4294967295	; 0xffffffff
 800ae98:	e78e      	b.n	800adb8 <__sflush_r+0x1c>
 800ae9a:	4407      	add	r7, r0
 800ae9c:	eba8 0800 	sub.w	r8, r8, r0
 800aea0:	e7e9      	b.n	800ae76 <__sflush_r+0xda>
 800aea2:	bf00      	nop
 800aea4:	20400001 	.word	0x20400001

0800aea8 <_fflush_r>:
 800aea8:	b538      	push	{r3, r4, r5, lr}
 800aeaa:	690b      	ldr	r3, [r1, #16]
 800aeac:	4605      	mov	r5, r0
 800aeae:	460c      	mov	r4, r1
 800aeb0:	b1db      	cbz	r3, 800aeea <_fflush_r+0x42>
 800aeb2:	b118      	cbz	r0, 800aebc <_fflush_r+0x14>
 800aeb4:	6983      	ldr	r3, [r0, #24]
 800aeb6:	b90b      	cbnz	r3, 800aebc <_fflush_r+0x14>
 800aeb8:	f000 f860 	bl	800af7c <__sinit>
 800aebc:	4b0c      	ldr	r3, [pc, #48]	; (800aef0 <_fflush_r+0x48>)
 800aebe:	429c      	cmp	r4, r3
 800aec0:	d109      	bne.n	800aed6 <_fflush_r+0x2e>
 800aec2:	686c      	ldr	r4, [r5, #4]
 800aec4:	f9b4 300c 	ldrsh.w	r3, [r4, #12]
 800aec8:	b17b      	cbz	r3, 800aeea <_fflush_r+0x42>
 800aeca:	4621      	mov	r1, r4
 800aecc:	4628      	mov	r0, r5
 800aece:	e8bd 4038 	ldmia.w	sp!, {r3, r4, r5, lr}
 800aed2:	f7ff bf63 	b.w	800ad9c <__sflush_r>
 800aed6:	4b07      	ldr	r3, [pc, #28]	; (800aef4 <_fflush_r+0x4c>)
 800aed8:	429c      	cmp	r4, r3
 800aeda:	d101      	bne.n	800aee0 <_fflush_r+0x38>
 800aedc:	68ac      	ldr	r4, [r5, #8]
 800aede:	e7f1      	b.n	800aec4 <_fflush_r+0x1c>
 800aee0:	4b05      	ldr	r3, [pc, #20]	; (800aef8 <_fflush_r+0x50>)
 800aee2:	429c      	cmp	r4, r3
 800aee4:	bf08      	it	eq
 800aee6:	68ec      	ldreq	r4, [r5, #12]
 800aee8:	e7ec      	b.n	800aec4 <_fflush_r+0x1c>
 800aeea:	2000      	movs	r0, #0
 800aeec:	bd38      	pop	{r3, r4, r5, pc}
 800aeee:	bf00      	nop
 800aef0:	0800d38c 	.word	0x0800d38c
 800aef4:	0800d3ac 	.word	0x0800d3ac
 800aef8:	0800d36c 	.word	0x0800d36c

0800aefc <std>:
 800aefc:	2300      	movs	r3, #0
 800aefe:	b510      	push	{r4, lr}
 800af00:	4604      	mov	r4, r0
 800af02:	e9c0 3300 	strd	r3, r3, [r0]
 800af06:	6083      	str	r3, [r0, #8]
 800af08:	8181      	strh	r1, [r0, #12]
 800af0a:	6643      	str	r3, [r0, #100]	; 0x64
 800af0c:	81c2      	strh	r2, [r0, #14]
 800af0e:	e9c0 3304 	strd	r3, r3, [r0, #16]
 800af12:	6183      	str	r3, [r0, #24]
 800af14:	4619      	mov	r1, r3
 800af16:	2208      	movs	r2, #8
 800af18:	305c      	adds	r0, #92	; 0x5c
 800af1a:	f7ff fd43 	bl	800a9a4 <memset>
 800af1e:	4b05      	ldr	r3, [pc, #20]	; (800af34 <std+0x38>)
 800af20:	6263      	str	r3, [r4, #36]	; 0x24
 800af22:	4b05      	ldr	r3, [pc, #20]	; (800af38 <std+0x3c>)
 800af24:	62a3      	str	r3, [r4, #40]	; 0x28
 800af26:	4b05      	ldr	r3, [pc, #20]	; (800af3c <std+0x40>)
 800af28:	62e3      	str	r3, [r4, #44]	; 0x2c
 800af2a:	4b05      	ldr	r3, [pc, #20]	; (800af40 <std+0x44>)
 800af2c:	6224      	str	r4, [r4, #32]
 800af2e:	6323      	str	r3, [r4, #48]	; 0x30
 800af30:	bd10      	pop	{r4, pc}
 800af32:	bf00      	nop
 800af34:	0800b6ed 	.word	0x0800b6ed
 800af38:	0800b70f 	.word	0x0800b70f
 800af3c:	0800b747 	.word	0x0800b747
 800af40:	0800b76b 	.word	0x0800b76b

0800af44 <_cleanup_r>:
 800af44:	4901      	ldr	r1, [pc, #4]	; (800af4c <_cleanup_r+0x8>)
 800af46:	f000 b885 	b.w	800b054 <_fwalk_reent>
 800af4a:	bf00      	nop
 800af4c:	0800aea9 	.word	0x0800aea9

0800af50 <__sfmoreglue>:
 800af50:	b570      	push	{r4, r5, r6, lr}
 800af52:	1e4a      	subs	r2, r1, #1
 800af54:	2568      	movs	r5, #104	; 0x68
 800af56:	4355      	muls	r5, r2
 800af58:	460e      	mov	r6, r1
 800af5a:	f105 0174 	add.w	r1, r5, #116	; 0x74
 800af5e:	f7ff fd77 	bl	800aa50 <_malloc_r>
 800af62:	4604      	mov	r4, r0
 800af64:	b140      	cbz	r0, 800af78 <__sfmoreglue+0x28>
 800af66:	2100      	movs	r1, #0
 800af68:	e9c0 1600 	strd	r1, r6, [r0]
 800af6c:	300c      	adds	r0, #12
 800af6e:	60a0      	str	r0, [r4, #8]
 800af70:	f105 0268 	add.w	r2, r5, #104	; 0x68
 800af74:	f7ff fd16 	bl	800a9a4 <memset>
 800af78:	4620      	mov	r0, r4
 800af7a:	bd70      	pop	{r4, r5, r6, pc}

0800af7c <__sinit>:
 800af7c:	6983      	ldr	r3, [r0, #24]
 800af7e:	b510      	push	{r4, lr}
 800af80:	4604      	mov	r4, r0
 800af82:	bb33      	cbnz	r3, 800afd2 <__sinit+0x56>
 800af84:	e9c0 3312 	strd	r3, r3, [r0, #72]	; 0x48
 800af88:	6503      	str	r3, [r0, #80]	; 0x50
 800af8a:	4b12      	ldr	r3, [pc, #72]	; (800afd4 <__sinit+0x58>)
 800af8c:	4a12      	ldr	r2, [pc, #72]	; (800afd8 <__sinit+0x5c>)
 800af8e:	681b      	ldr	r3, [r3, #0]
 800af90:	6282      	str	r2, [r0, #40]	; 0x28
 800af92:	4298      	cmp	r0, r3
 800af94:	bf04      	itt	eq
 800af96:	2301      	moveq	r3, #1
 800af98:	6183      	streq	r3, [r0, #24]
 800af9a:	f000 f81f 	bl	800afdc <__sfp>
 800af9e:	6060      	str	r0, [r4, #4]
 800afa0:	4620      	mov	r0, r4
 800afa2:	f000 f81b 	bl	800afdc <__sfp>
 800afa6:	60a0      	str	r0, [r4, #8]
 800afa8:	4620      	mov	r0, r4
 800afaa:	f000 f817 	bl	800afdc <__sfp>
 800afae:	2200      	movs	r2, #0
 800afb0:	60e0      	str	r0, [r4, #12]
 800afb2:	2104      	movs	r1, #4
 800afb4:	6860      	ldr	r0, [r4, #4]
 800afb6:	f7ff ffa1 	bl	800aefc <std>
 800afba:	2201      	movs	r2, #1
 800afbc:	2109      	movs	r1, #9
 800afbe:	68a0      	ldr	r0, [r4, #8]
 800afc0:	f7ff ff9c 	bl	800aefc <std>
 800afc4:	2202      	movs	r2, #2
 800afc6:	2112      	movs	r1, #18
 800afc8:	68e0      	ldr	r0, [r4, #12]
 800afca:	f7ff ff97 	bl	800aefc <std>
 800afce:	2301      	movs	r3, #1
 800afd0:	61a3      	str	r3, [r4, #24]
 800afd2:	bd10      	pop	{r4, pc}
 800afd4:	0800d368 	.word	0x0800d368
 800afd8:	0800af45 	.word	0x0800af45

0800afdc <__sfp>:
 800afdc:	b5f8      	push	{r3, r4, r5, r6, r7, lr}
 800afde:	4b1b      	ldr	r3, [pc, #108]	; (800b04c <__sfp+0x70>)
 800afe0:	681e      	ldr	r6, [r3, #0]
 800afe2:	69b3      	ldr	r3, [r6, #24]
 800afe4:	4607      	mov	r7, r0
 800afe6:	b913      	cbnz	r3, 800afee <__sfp+0x12>
 800afe8:	4630      	mov	r0, r6
 800afea:	f7ff ffc7 	bl	800af7c <__sinit>
 800afee:	3648      	adds	r6, #72	; 0x48
 800aff0:	e9d6 3401 	ldrd	r3, r4, [r6, #4]
 800aff4:	3b01      	subs	r3, #1
 800aff6:	d503      	bpl.n	800b000 <__sfp+0x24>
 800aff8:	6833      	ldr	r3, [r6, #0]
 800affa:	b133      	cbz	r3, 800b00a <__sfp+0x2e>
 800affc:	6836      	ldr	r6, [r6, #0]
 800affe:	e7f7      	b.n	800aff0 <__sfp+0x14>
 800b000:	f9b4 500c 	ldrsh.w	r5, [r4, #12]
 800b004:	b16d      	cbz	r5, 800b022 <__sfp+0x46>
 800b006:	3468      	adds	r4, #104	; 0x68
 800b008:	e7f4      	b.n	800aff4 <__sfp+0x18>
 800b00a:	2104      	movs	r1, #4
 800b00c:	4638      	mov	r0, r7
 800b00e:	f7ff ff9f 	bl	800af50 <__sfmoreglue>
 800b012:	6030      	str	r0, [r6, #0]
 800b014:	2800      	cmp	r0, #0
 800b016:	d1f1      	bne.n	800affc <__sfp+0x20>
 800b018:	230c      	movs	r3, #12
 800b01a:	603b      	str	r3, [r7, #0]
 800b01c:	4604      	mov	r4, r0
 800b01e:	4620      	mov	r0, r4
 800b020:	bdf8      	pop	{r3, r4, r5, r6, r7, pc}
 800b022:	4b0b      	ldr	r3, [pc, #44]	; (800b050 <__sfp+0x74>)
 800b024:	6665      	str	r5, [r4, #100]	; 0x64
 800b026:	e9c4 5500 	strd	r5, r5, [r4]
 800b02a:	60a5      	str	r5, [r4, #8]
 800b02c:	e9c4 3503 	strd	r3, r5, [r4, #12]
 800b030:	e9c4 5505 	strd	r5, r5, [r4, #20]
 800b034:	2208      	movs	r2, #8
 800b036:	4629      	mov	r1, r5
 800b038:	f104 005c 	add.w	r0, r4, #92	; 0x5c
 800b03c:	f7ff fcb2 	bl	800a9a4 <memset>
 800b040:	e9c4 550d 	strd	r5, r5, [r4, #52]	; 0x34
 800b044:	e9c4 5512 	strd	r5, r5, [r4, #72]	; 0x48
 800b048:	e7e9      	b.n	800b01e <__sfp+0x42>
 800b04a:	bf00      	nop
 800b04c:	0800d368 	.word	0x0800d368
 800b050:	ffff0001 	.word	0xffff0001

0800b054 <_fwalk_reent>:
 800b054:	e92d 43f8 	stmdb	sp!, {r3, r4, r5, r6, r7, r8, r9, lr}
 800b058:	4680      	mov	r8, r0
 800b05a:	4689      	mov	r9, r1
 800b05c:	f100 0448 	add.w	r4, r0, #72	; 0x48
 800b060:	2600      	movs	r6, #0
 800b062:	b914      	cbnz	r4, 800b06a <_fwalk_reent+0x16>
 800b064:	4630      	mov	r0, r6
 800b066:	e8bd 83f8 	ldmia.w	sp!, {r3, r4, r5, r6, r7, r8, r9, pc}
 800b06a:	e9d4 7501 	ldrd	r7, r5, [r4, #4]
 800b06e:	3f01      	subs	r7, #1
 800b070:	d501      	bpl.n	800b076 <_fwalk_reent+0x22>
 800b072:	6824      	ldr	r4, [r4, #0]
 800b074:	e7f5      	b.n	800b062 <_fwalk_reent+0xe>
 800b076:	89ab      	ldrh	r3, [r5, #12]
 800b078:	2b01      	cmp	r3, #1
 800b07a:	d907      	bls.n	800b08c <_fwalk_reent+0x38>
 800b07c:	f9b5 300e 	ldrsh.w	r3, [r5, #14]
 800b080:	3301      	adds	r3, #1
 800b082:	d003      	beq.n	800b08c <_fwalk_reent+0x38>
 800b084:	4629      	mov	r1, r5
 800b086:	4640      	mov	r0, r8
 800b088:	47c8      	blx	r9
 800b08a:	4306      	orrs	r6, r0
 800b08c:	3568      	adds	r5, #104	; 0x68
 800b08e:	e7ee      	b.n	800b06e <_fwalk_reent+0x1a>

0800b090 <__swhatbuf_r>:
 800b090:	b570      	push	{r4, r5, r6, lr}
 800b092:	460e      	mov	r6, r1
 800b094:	f9b1 100e 	ldrsh.w	r1, [r1, #14]
 800b098:	2900      	cmp	r1, #0
 800b09a:	b096      	sub	sp, #88	; 0x58
 800b09c:	4614      	mov	r4, r2
 800b09e:	461d      	mov	r5, r3
 800b0a0:	da07      	bge.n	800b0b2 <__swhatbuf_r+0x22>
 800b0a2:	2300      	movs	r3, #0
 800b0a4:	602b      	str	r3, [r5, #0]
 800b0a6:	89b3      	ldrh	r3, [r6, #12]
 800b0a8:	061a      	lsls	r2, r3, #24
 800b0aa:	d410      	bmi.n	800b0ce <__swhatbuf_r+0x3e>
 800b0ac:	f44f 6380 	mov.w	r3, #1024	; 0x400
 800b0b0:	e00e      	b.n	800b0d0 <__swhatbuf_r+0x40>
 800b0b2:	466a      	mov	r2, sp
 800b0b4:	f000 fb80 	bl	800b7b8 <_fstat_r>
 800b0b8:	2800      	cmp	r0, #0
 800b0ba:	dbf2      	blt.n	800b0a2 <__swhatbuf_r+0x12>
 800b0bc:	9a01      	ldr	r2, [sp, #4]
 800b0be:	f402 4270 	and.w	r2, r2, #61440	; 0xf000
 800b0c2:	f5a2 5300 	sub.w	r3, r2, #8192	; 0x2000
 800b0c6:	425a      	negs	r2, r3
 800b0c8:	415a      	adcs	r2, r3
 800b0ca:	602a      	str	r2, [r5, #0]
 800b0cc:	e7ee      	b.n	800b0ac <__swhatbuf_r+0x1c>
 800b0ce:	2340      	movs	r3, #64	; 0x40
 800b0d0:	2000      	movs	r0, #0
 800b0d2:	6023      	str	r3, [r4, #0]
 800b0d4:	b016      	add	sp, #88	; 0x58
 800b0d6:	bd70      	pop	{r4, r5, r6, pc}

0800b0d8 <__smakebuf_r>:
 800b0d8:	898b      	ldrh	r3, [r1, #12]
 800b0da:	b573      	push	{r0, r1, r4, r5, r6, lr}
 800b0dc:	079d      	lsls	r5, r3, #30
 800b0de:	4606      	mov	r6, r0
 800b0e0:	460c      	mov	r4, r1
 800b0e2:	d507      	bpl.n	800b0f4 <__smakebuf_r+0x1c>
 800b0e4:	f104 0347 	add.w	r3, r4, #71	; 0x47
 800b0e8:	6023      	str	r3, [r4, #0]
 800b0ea:	6123      	str	r3, [r4, #16]
 800b0ec:	2301      	movs	r3, #1
 800b0ee:	6163      	str	r3, [r4, #20]
 800b0f0:	b002      	add	sp, #8
 800b0f2:	bd70      	pop	{r4, r5, r6, pc}
 800b0f4:	ab01      	add	r3, sp, #4
 800b0f6:	466a      	mov	r2, sp
 800b0f8:	f7ff ffca 	bl	800b090 <__swhatbuf_r>
 800b0fc:	9900      	ldr	r1, [sp, #0]
 800b0fe:	4605      	mov	r5, r0
 800b100:	4630      	mov	r0, r6
 800b102:	f7ff fca5 	bl	800aa50 <_malloc_r>
 800b106:	b948      	cbnz	r0, 800b11c <__smakebuf_r+0x44>
 800b108:	f9b4 300c 	ldrsh.w	r3, [r4, #12]
 800b10c:	059a      	lsls	r2, r3, #22
 800b10e:	d4ef      	bmi.n	800b0f0 <__smakebuf_r+0x18>
 800b110:	f023 0303 	bic.w	r3, r3, #3
 800b114:	f043 0302 	orr.w	r3, r3, #2
 800b118:	81a3      	strh	r3, [r4, #12]
 800b11a:	e7e3      	b.n	800b0e4 <__smakebuf_r+0xc>
 800b11c:	4b0d      	ldr	r3, [pc, #52]	; (800b154 <__smakebuf_r+0x7c>)
 800b11e:	62b3      	str	r3, [r6, #40]	; 0x28
 800b120:	89a3      	ldrh	r3, [r4, #12]
 800b122:	6020      	str	r0, [r4, #0]
 800b124:	f043 0380 	orr.w	r3, r3, #128	; 0x80
 800b128:	81a3      	strh	r3, [r4, #12]
 800b12a:	9b00      	ldr	r3, [sp, #0]
 800b12c:	6163      	str	r3, [r4, #20]
 800b12e:	9b01      	ldr	r3, [sp, #4]
 800b130:	6120      	str	r0, [r4, #16]
 800b132:	b15b      	cbz	r3, 800b14c <__smakebuf_r+0x74>
 800b134:	f9b4 100e 	ldrsh.w	r1, [r4, #14]
 800b138:	4630      	mov	r0, r6
 800b13a:	f000 fb4f 	bl	800b7dc <_isatty_r>
 800b13e:	b128      	cbz	r0, 800b14c <__smakebuf_r+0x74>
 800b140:	89a3      	ldrh	r3, [r4, #12]
 800b142:	f023 0303 	bic.w	r3, r3, #3
 800b146:	f043 0301 	orr.w	r3, r3, #1
 800b14a:	81a3      	strh	r3, [r4, #12]
 800b14c:	89a3      	ldrh	r3, [r4, #12]
 800b14e:	431d      	orrs	r5, r3
 800b150:	81a5      	strh	r5, [r4, #12]
 800b152:	e7cd      	b.n	800b0f0 <__smakebuf_r+0x18>
 800b154:	0800af45 	.word	0x0800af45

0800b158 <__malloc_lock>:
 800b158:	4770      	bx	lr

0800b15a <__malloc_unlock>:
 800b15a:	4770      	bx	lr

0800b15c <__sfputc_r>:
 800b15c:	6893      	ldr	r3, [r2, #8]
 800b15e:	3b01      	subs	r3, #1
 800b160:	2b00      	cmp	r3, #0
 800b162:	b410      	push	{r4}
 800b164:	6093      	str	r3, [r2, #8]
 800b166:	da08      	bge.n	800b17a <__sfputc_r+0x1e>
 800b168:	6994      	ldr	r4, [r2, #24]
 800b16a:	42a3      	cmp	r3, r4
 800b16c:	db01      	blt.n	800b172 <__sfputc_r+0x16>
 800b16e:	290a      	cmp	r1, #10
 800b170:	d103      	bne.n	800b17a <__sfputc_r+0x1e>
 800b172:	f85d 4b04 	ldr.w	r4, [sp], #4
 800b176:	f7ff bd51 	b.w	800ac1c <__swbuf_r>
 800b17a:	6813      	ldr	r3, [r2, #0]
 800b17c:	1c58      	adds	r0, r3, #1
 800b17e:	6010      	str	r0, [r2, #0]
 800b180:	7019      	strb	r1, [r3, #0]
 800b182:	4608      	mov	r0, r1
 800b184:	f85d 4b04 	ldr.w	r4, [sp], #4
 800b188:	4770      	bx	lr

0800b18a <__sfputs_r>:
 800b18a:	b5f8      	push	{r3, r4, r5, r6, r7, lr}
 800b18c:	4606      	mov	r6, r0
 800b18e:	460f      	mov	r7, r1
 800b190:	4614      	mov	r4, r2
 800b192:	18d5      	adds	r5, r2, r3
 800b194:	42ac      	cmp	r4, r5
 800b196:	d101      	bne.n	800b19c <__sfputs_r+0x12>
 800b198:	2000      	movs	r0, #0
 800b19a:	e007      	b.n	800b1ac <__sfputs_r+0x22>
 800b19c:	463a      	mov	r2, r7
 800b19e:	f814 1b01 	ldrb.w	r1, [r4], #1
 800b1a2:	4630      	mov	r0, r6
 800b1a4:	f7ff ffda 	bl	800b15c <__sfputc_r>
 800b1a8:	1c43      	adds	r3, r0, #1
 800b1aa:	d1f3      	bne.n	800b194 <__sfputs_r+0xa>
 800b1ac:	bdf8      	pop	{r3, r4, r5, r6, r7, pc}
	...

0800b1b0 <_vfiprintf_r>:
 800b1b0:	e92d 4ff0 	stmdb	sp!, {r4, r5, r6, r7, r8, r9, sl, fp, lr}
 800b1b4:	460c      	mov	r4, r1
 800b1b6:	b09d      	sub	sp, #116	; 0x74
 800b1b8:	4617      	mov	r7, r2
 800b1ba:	461d      	mov	r5, r3
 800b1bc:	4606      	mov	r6, r0
 800b1be:	b118      	cbz	r0, 800b1c8 <_vfiprintf_r+0x18>
 800b1c0:	6983      	ldr	r3, [r0, #24]
 800b1c2:	b90b      	cbnz	r3, 800b1c8 <_vfiprintf_r+0x18>
 800b1c4:	f7ff feda 	bl	800af7c <__sinit>
 800b1c8:	4b7c      	ldr	r3, [pc, #496]	; (800b3bc <_vfiprintf_r+0x20c>)
 800b1ca:	429c      	cmp	r4, r3
 800b1cc:	d158      	bne.n	800b280 <_vfiprintf_r+0xd0>
 800b1ce:	6874      	ldr	r4, [r6, #4]
 800b1d0:	89a3      	ldrh	r3, [r4, #12]
 800b1d2:	0718      	lsls	r0, r3, #28
 800b1d4:	d55e      	bpl.n	800b294 <_vfiprintf_r+0xe4>
 800b1d6:	6923      	ldr	r3, [r4, #16]
 800b1d8:	2b00      	cmp	r3, #0
 800b1da:	d05b      	beq.n	800b294 <_vfiprintf_r+0xe4>
 800b1dc:	2300      	movs	r3, #0
 800b1de:	9309      	str	r3, [sp, #36]	; 0x24
 800b1e0:	2320      	movs	r3, #32
 800b1e2:	f88d 3029 	strb.w	r3, [sp, #41]	; 0x29
 800b1e6:	2330      	movs	r3, #48	; 0x30
 800b1e8:	f88d 302a 	strb.w	r3, [sp, #42]	; 0x2a
 800b1ec:	9503      	str	r5, [sp, #12]
 800b1ee:	f04f 0b01 	mov.w	fp, #1
 800b1f2:	46b8      	mov	r8, r7
 800b1f4:	4645      	mov	r5, r8
 800b1f6:	f815 3b01 	ldrb.w	r3, [r5], #1
 800b1fa:	b10b      	cbz	r3, 800b200 <_vfiprintf_r+0x50>
 800b1fc:	2b25      	cmp	r3, #37	; 0x25
 800b1fe:	d154      	bne.n	800b2aa <_vfiprintf_r+0xfa>
 800b200:	ebb8 0a07 	subs.w	sl, r8, r7
 800b204:	d00b      	beq.n	800b21e <_vfiprintf_r+0x6e>
 800b206:	4653      	mov	r3, sl
 800b208:	463a      	mov	r2, r7
 800b20a:	4621      	mov	r1, r4
 800b20c:	4630      	mov	r0, r6
 800b20e:	f7ff ffbc 	bl	800b18a <__sfputs_r>
 800b212:	3001      	adds	r0, #1
 800b214:	f000 80c2 	beq.w	800b39c <_vfiprintf_r+0x1ec>
 800b218:	9b09      	ldr	r3, [sp, #36]	; 0x24
 800b21a:	4453      	add	r3, sl
 800b21c:	9309      	str	r3, [sp, #36]	; 0x24
 800b21e:	f898 3000 	ldrb.w	r3, [r8]
 800b222:	2b00      	cmp	r3, #0
 800b224:	f000 80ba 	beq.w	800b39c <_vfiprintf_r+0x1ec>
 800b228:	2300      	movs	r3, #0
 800b22a:	f04f 32ff 	mov.w	r2, #4294967295	; 0xffffffff
 800b22e:	e9cd 2305 	strd	r2, r3, [sp, #20]
 800b232:	9304      	str	r3, [sp, #16]
 800b234:	9307      	str	r3, [sp, #28]
 800b236:	f88d 3053 	strb.w	r3, [sp, #83]	; 0x53
 800b23a:	931a      	str	r3, [sp, #104]	; 0x68
 800b23c:	46a8      	mov	r8, r5
 800b23e:	2205      	movs	r2, #5
 800b240:	f818 1b01 	ldrb.w	r1, [r8], #1
 800b244:	485e      	ldr	r0, [pc, #376]	; (800b3c0 <_vfiprintf_r+0x210>)
 800b246:	f7f5 f84b 	bl	80002e0 <memchr>
 800b24a:	9b04      	ldr	r3, [sp, #16]
 800b24c:	bb78      	cbnz	r0, 800b2ae <_vfiprintf_r+0xfe>
 800b24e:	06d9      	lsls	r1, r3, #27
 800b250:	bf44      	itt	mi
 800b252:	2220      	movmi	r2, #32
 800b254:	f88d 2053 	strbmi.w	r2, [sp, #83]	; 0x53
 800b258:	071a      	lsls	r2, r3, #28
 800b25a:	bf44      	itt	mi
 800b25c:	222b      	movmi	r2, #43	; 0x2b
 800b25e:	f88d 2053 	strbmi.w	r2, [sp, #83]	; 0x53
 800b262:	782a      	ldrb	r2, [r5, #0]
 800b264:	2a2a      	cmp	r2, #42	; 0x2a
 800b266:	d02a      	beq.n	800b2be <_vfiprintf_r+0x10e>
 800b268:	9a07      	ldr	r2, [sp, #28]
 800b26a:	46a8      	mov	r8, r5
 800b26c:	2000      	movs	r0, #0
 800b26e:	250a      	movs	r5, #10
 800b270:	4641      	mov	r1, r8
 800b272:	f811 3b01 	ldrb.w	r3, [r1], #1
 800b276:	3b30      	subs	r3, #48	; 0x30
 800b278:	2b09      	cmp	r3, #9
 800b27a:	d969      	bls.n	800b350 <_vfiprintf_r+0x1a0>
 800b27c:	b360      	cbz	r0, 800b2d8 <_vfiprintf_r+0x128>
 800b27e:	e024      	b.n	800b2ca <_vfiprintf_r+0x11a>
 800b280:	4b50      	ldr	r3, [pc, #320]	; (800b3c4 <_vfiprintf_r+0x214>)
 800b282:	429c      	cmp	r4, r3
 800b284:	d101      	bne.n	800b28a <_vfiprintf_r+0xda>
 800b286:	68b4      	ldr	r4, [r6, #8]
 800b288:	e7a2      	b.n	800b1d0 <_vfiprintf_r+0x20>
 800b28a:	4b4f      	ldr	r3, [pc, #316]	; (800b3c8 <_vfiprintf_r+0x218>)
 800b28c:	429c      	cmp	r4, r3
 800b28e:	bf08      	it	eq
 800b290:	68f4      	ldreq	r4, [r6, #12]
 800b292:	e79d      	b.n	800b1d0 <_vfiprintf_r+0x20>
 800b294:	4621      	mov	r1, r4
 800b296:	4630      	mov	r0, r6
 800b298:	f7ff fd12 	bl	800acc0 <__swsetup_r>
 800b29c:	2800      	cmp	r0, #0
 800b29e:	d09d      	beq.n	800b1dc <_vfiprintf_r+0x2c>
 800b2a0:	f04f 30ff 	mov.w	r0, #4294967295	; 0xffffffff
 800b2a4:	b01d      	add	sp, #116	; 0x74
 800b2a6:	e8bd 8ff0 	ldmia.w	sp!, {r4, r5, r6, r7, r8, r9, sl, fp, pc}
 800b2aa:	46a8      	mov	r8, r5
 800b2ac:	e7a2      	b.n	800b1f4 <_vfiprintf_r+0x44>
 800b2ae:	4a44      	ldr	r2, [pc, #272]	; (800b3c0 <_vfiprintf_r+0x210>)
 800b2b0:	1a80      	subs	r0, r0, r2
 800b2b2:	fa0b f000 	lsl.w	r0, fp, r0
 800b2b6:	4318      	orrs	r0, r3
 800b2b8:	9004      	str	r0, [sp, #16]
 800b2ba:	4645      	mov	r5, r8
 800b2bc:	e7be      	b.n	800b23c <_vfiprintf_r+0x8c>
 800b2be:	9a03      	ldr	r2, [sp, #12]
 800b2c0:	1d11      	adds	r1, r2, #4
 800b2c2:	6812      	ldr	r2, [r2, #0]
 800b2c4:	9103      	str	r1, [sp, #12]
 800b2c6:	2a00      	cmp	r2, #0
 800b2c8:	db01      	blt.n	800b2ce <_vfiprintf_r+0x11e>
 800b2ca:	9207      	str	r2, [sp, #28]
 800b2cc:	e004      	b.n	800b2d8 <_vfiprintf_r+0x128>
 800b2ce:	4252      	negs	r2, r2
 800b2d0:	f043 0302 	orr.w	r3, r3, #2
 800b2d4:	9207      	str	r2, [sp, #28]
 800b2d6:	9304      	str	r3, [sp, #16]
 800b2d8:	f898 3000 	ldrb.w	r3, [r8]
 800b2dc:	2b2e      	cmp	r3, #46	; 0x2e
 800b2de:	d10e      	bne.n	800b2fe <_vfiprintf_r+0x14e>
 800b2e0:	f898 3001 	ldrb.w	r3, [r8, #1]
 800b2e4:	2b2a      	cmp	r3, #42	; 0x2a
 800b2e6:	d138      	bne.n	800b35a <_vfiprintf_r+0x1aa>
 800b2e8:	9b03      	ldr	r3, [sp, #12]
 800b2ea:	1d1a      	adds	r2, r3, #4
 800b2ec:	681b      	ldr	r3, [r3, #0]
 800b2ee:	9203      	str	r2, [sp, #12]
 800b2f0:	2b00      	cmp	r3, #0
 800b2f2:	bfb8      	it	lt
 800b2f4:	f04f 33ff 	movlt.w	r3, #4294967295	; 0xffffffff
 800b2f8:	f108 0802 	add.w	r8, r8, #2
 800b2fc:	9305      	str	r3, [sp, #20]
 800b2fe:	4d33      	ldr	r5, [pc, #204]	; (800b3cc <_vfiprintf_r+0x21c>)
 800b300:	f898 1000 	ldrb.w	r1, [r8]
 800b304:	2203      	movs	r2, #3
 800b306:	4628      	mov	r0, r5
 800b308:	f7f4 ffea 	bl	80002e0 <memchr>
 800b30c:	b140      	cbz	r0, 800b320 <_vfiprintf_r+0x170>
 800b30e:	2340      	movs	r3, #64	; 0x40
 800b310:	1b40      	subs	r0, r0, r5
 800b312:	fa03 f000 	lsl.w	r0, r3, r0
 800b316:	9b04      	ldr	r3, [sp, #16]
 800b318:	4303      	orrs	r3, r0
 800b31a:	f108 0801 	add.w	r8, r8, #1
 800b31e:	9304      	str	r3, [sp, #16]
 800b320:	f898 1000 	ldrb.w	r1, [r8]
 800b324:	482a      	ldr	r0, [pc, #168]	; (800b3d0 <_vfiprintf_r+0x220>)
 800b326:	f88d 1028 	strb.w	r1, [sp, #40]	; 0x28
 800b32a:	2206      	movs	r2, #6
 800b32c:	f108 0701 	add.w	r7, r8, #1
 800b330:	f7f4 ffd6 	bl	80002e0 <memchr>
 800b334:	2800      	cmp	r0, #0
 800b336:	d037      	beq.n	800b3a8 <_vfiprintf_r+0x1f8>
 800b338:	4b26      	ldr	r3, [pc, #152]	; (800b3d4 <_vfiprintf_r+0x224>)
 800b33a:	bb1b      	cbnz	r3, 800b384 <_vfiprintf_r+0x1d4>
 800b33c:	9b03      	ldr	r3, [sp, #12]
 800b33e:	3307      	adds	r3, #7
 800b340:	f023 0307 	bic.w	r3, r3, #7
 800b344:	3308      	adds	r3, #8
 800b346:	9303      	str	r3, [sp, #12]
 800b348:	9b09      	ldr	r3, [sp, #36]	; 0x24
 800b34a:	444b      	add	r3, r9
 800b34c:	9309      	str	r3, [sp, #36]	; 0x24
 800b34e:	e750      	b.n	800b1f2 <_vfiprintf_r+0x42>
 800b350:	fb05 3202 	mla	r2, r5, r2, r3
 800b354:	2001      	movs	r0, #1
 800b356:	4688      	mov	r8, r1
 800b358:	e78a      	b.n	800b270 <_vfiprintf_r+0xc0>
 800b35a:	2300      	movs	r3, #0
 800b35c:	f108 0801 	add.w	r8, r8, #1
 800b360:	9305      	str	r3, [sp, #20]
 800b362:	4619      	mov	r1, r3
 800b364:	250a      	movs	r5, #10
 800b366:	4640      	mov	r0, r8
 800b368:	f810 2b01 	ldrb.w	r2, [r0], #1
 800b36c:	3a30      	subs	r2, #48	; 0x30
 800b36e:	2a09      	cmp	r2, #9
 800b370:	d903      	bls.n	800b37a <_vfiprintf_r+0x1ca>
 800b372:	2b00      	cmp	r3, #0
 800b374:	d0c3      	beq.n	800b2fe <_vfiprintf_r+0x14e>
 800b376:	9105      	str	r1, [sp, #20]
 800b378:	e7c1      	b.n	800b2fe <_vfiprintf_r+0x14e>
 800b37a:	fb05 2101 	mla	r1, r5, r1, r2
 800b37e:	2301      	movs	r3, #1
 800b380:	4680      	mov	r8, r0
 800b382:	e7f0      	b.n	800b366 <_vfiprintf_r+0x1b6>
 800b384:	ab03      	add	r3, sp, #12
 800b386:	9300      	str	r3, [sp, #0]
 800b388:	4622      	mov	r2, r4
 800b38a:	4b13      	ldr	r3, [pc, #76]	; (800b3d8 <_vfiprintf_r+0x228>)
 800b38c:	a904      	add	r1, sp, #16
 800b38e:	4630      	mov	r0, r6
 800b390:	f3af 8000 	nop.w
 800b394:	f1b0 3fff 	cmp.w	r0, #4294967295	; 0xffffffff
 800b398:	4681      	mov	r9, r0
 800b39a:	d1d5      	bne.n	800b348 <_vfiprintf_r+0x198>
 800b39c:	89a3      	ldrh	r3, [r4, #12]
 800b39e:	065b      	lsls	r3, r3, #25
 800b3a0:	f53f af7e 	bmi.w	800b2a0 <_vfiprintf_r+0xf0>
 800b3a4:	9809      	ldr	r0, [sp, #36]	; 0x24
 800b3a6:	e77d      	b.n	800b2a4 <_vfiprintf_r+0xf4>
 800b3a8:	ab03      	add	r3, sp, #12
 800b3aa:	9300      	str	r3, [sp, #0]
 800b3ac:	4622      	mov	r2, r4
 800b3ae:	4b0a      	ldr	r3, [pc, #40]	; (800b3d8 <_vfiprintf_r+0x228>)
 800b3b0:	a904      	add	r1, sp, #16
 800b3b2:	4630      	mov	r0, r6
 800b3b4:	f000 f888 	bl	800b4c8 <_printf_i>
 800b3b8:	e7ec      	b.n	800b394 <_vfiprintf_r+0x1e4>
 800b3ba:	bf00      	nop
 800b3bc:	0800d38c 	.word	0x0800d38c
 800b3c0:	0800d3cc 	.word	0x0800d3cc
 800b3c4:	0800d3ac 	.word	0x0800d3ac
 800b3c8:	0800d36c 	.word	0x0800d36c
 800b3cc:	0800d3d2 	.word	0x0800d3d2
 800b3d0:	0800d3d6 	.word	0x0800d3d6
 800b3d4:	00000000 	.word	0x00000000
 800b3d8:	0800b18b 	.word	0x0800b18b

0800b3dc <_printf_common>:
 800b3dc:	e92d 47f0 	stmdb	sp!, {r4, r5, r6, r7, r8, r9, sl, lr}
 800b3e0:	4691      	mov	r9, r2
 800b3e2:	461f      	mov	r7, r3
 800b3e4:	688a      	ldr	r2, [r1, #8]
 800b3e6:	690b      	ldr	r3, [r1, #16]
 800b3e8:	f8dd 8020 	ldr.w	r8, [sp, #32]
 800b3ec:	4293      	cmp	r3, r2
 800b3ee:	bfb8      	it	lt
 800b3f0:	4613      	movlt	r3, r2
 800b3f2:	f8c9 3000 	str.w	r3, [r9]
 800b3f6:	f891 2043 	ldrb.w	r2, [r1, #67]	; 0x43
 800b3fa:	4606      	mov	r6, r0
 800b3fc:	460c      	mov	r4, r1
 800b3fe:	b112      	cbz	r2, 800b406 <_printf_common+0x2a>
 800b400:	3301      	adds	r3, #1
 800b402:	f8c9 3000 	str.w	r3, [r9]
 800b406:	6823      	ldr	r3, [r4, #0]
 800b408:	0699      	lsls	r1, r3, #26
 800b40a:	bf42      	ittt	mi
 800b40c:	f8d9 3000 	ldrmi.w	r3, [r9]
 800b410:	3302      	addmi	r3, #2
 800b412:	f8c9 3000 	strmi.w	r3, [r9]
 800b416:	6825      	ldr	r5, [r4, #0]
 800b418:	f015 0506 	ands.w	r5, r5, #6
 800b41c:	d107      	bne.n	800b42e <_printf_common+0x52>
 800b41e:	f104 0a19 	add.w	sl, r4, #25
 800b422:	68e3      	ldr	r3, [r4, #12]
 800b424:	f8d9 2000 	ldr.w	r2, [r9]
 800b428:	1a9b      	subs	r3, r3, r2
 800b42a:	42ab      	cmp	r3, r5
 800b42c:	dc28      	bgt.n	800b480 <_printf_common+0xa4>
 800b42e:	f894 3043 	ldrb.w	r3, [r4, #67]	; 0x43
 800b432:	6822      	ldr	r2, [r4, #0]
 800b434:	3300      	adds	r3, #0
 800b436:	bf18      	it	ne
 800b438:	2301      	movne	r3, #1
 800b43a:	0692      	lsls	r2, r2, #26
 800b43c:	d42d      	bmi.n	800b49a <_printf_common+0xbe>
 800b43e:	f104 0243 	add.w	r2, r4, #67	; 0x43
 800b442:	4639      	mov	r1, r7
 800b444:	4630      	mov	r0, r6
 800b446:	47c0      	blx	r8
 800b448:	3001      	adds	r0, #1
 800b44a:	d020      	beq.n	800b48e <_printf_common+0xb2>
 800b44c:	6823      	ldr	r3, [r4, #0]
 800b44e:	68e5      	ldr	r5, [r4, #12]
 800b450:	f8d9 2000 	ldr.w	r2, [r9]
 800b454:	f003 0306 	and.w	r3, r3, #6
 800b458:	2b04      	cmp	r3, #4
 800b45a:	bf08      	it	eq
 800b45c:	1aad      	subeq	r5, r5, r2
 800b45e:	68a3      	ldr	r3, [r4, #8]
 800b460:	6922      	ldr	r2, [r4, #16]
 800b462:	bf0c      	ite	eq
 800b464:	ea25 75e5 	biceq.w	r5, r5, r5, asr #31
 800b468:	2500      	movne	r5, #0
 800b46a:	4293      	cmp	r3, r2
 800b46c:	bfc4      	itt	gt
 800b46e:	1a9b      	subgt	r3, r3, r2
 800b470:	18ed      	addgt	r5, r5, r3
 800b472:	f04f 0900 	mov.w	r9, #0
 800b476:	341a      	adds	r4, #26
 800b478:	454d      	cmp	r5, r9
 800b47a:	d11a      	bne.n	800b4b2 <_printf_common+0xd6>
 800b47c:	2000      	movs	r0, #0
 800b47e:	e008      	b.n	800b492 <_printf_common+0xb6>
 800b480:	2301      	movs	r3, #1
 800b482:	4652      	mov	r2, sl
 800b484:	4639      	mov	r1, r7
 800b486:	4630      	mov	r0, r6
 800b488:	47c0      	blx	r8
 800b48a:	3001      	adds	r0, #1
 800b48c:	d103      	bne.n	800b496 <_printf_common+0xba>
 800b48e:	f04f 30ff 	mov.w	r0, #4294967295	; 0xffffffff
 800b492:	e8bd 87f0 	ldmia.w	sp!, {r4, r5, r6, r7, r8, r9, sl, pc}
 800b496:	3501      	adds	r5, #1
 800b498:	e7c3      	b.n	800b422 <_printf_common+0x46>
 800b49a:	18e1      	adds	r1, r4, r3
 800b49c:	1c5a      	adds	r2, r3, #1
 800b49e:	2030      	movs	r0, #48	; 0x30
 800b4a0:	f881 0043 	strb.w	r0, [r1, #67]	; 0x43
 800b4a4:	4422      	add	r2, r4
 800b4a6:	f894 1045 	ldrb.w	r1, [r4, #69]	; 0x45
 800b4aa:	f882 1043 	strb.w	r1, [r2, #67]	; 0x43
 800b4ae:	3302      	adds	r3, #2
 800b4b0:	e7c5      	b.n	800b43e <_printf_common+0x62>
 800b4b2:	2301      	movs	r3, #1
 800b4b4:	4622      	mov	r2, r4
 800b4b6:	4639      	mov	r1, r7
 800b4b8:	4630      	mov	r0, r6
 800b4ba:	47c0      	blx	r8
 800b4bc:	3001      	adds	r0, #1
 800b4be:	d0e6      	beq.n	800b48e <_printf_common+0xb2>
 800b4c0:	f109 0901 	add.w	r9, r9, #1
 800b4c4:	e7d8      	b.n	800b478 <_printf_common+0x9c>
	...

0800b4c8 <_printf_i>:
 800b4c8:	e92d 43f0 	stmdb	sp!, {r4, r5, r6, r7, r8, r9, lr}
 800b4cc:	f101 0c43 	add.w	ip, r1, #67	; 0x43
 800b4d0:	460c      	mov	r4, r1
 800b4d2:	7e09      	ldrb	r1, [r1, #24]
 800b4d4:	b085      	sub	sp, #20
 800b4d6:	296e      	cmp	r1, #110	; 0x6e
 800b4d8:	4617      	mov	r7, r2
 800b4da:	4606      	mov	r6, r0
 800b4dc:	4698      	mov	r8, r3
 800b4de:	9a0c      	ldr	r2, [sp, #48]	; 0x30
 800b4e0:	f000 80b3 	beq.w	800b64a <_printf_i+0x182>
 800b4e4:	d822      	bhi.n	800b52c <_printf_i+0x64>
 800b4e6:	2963      	cmp	r1, #99	; 0x63
 800b4e8:	d036      	beq.n	800b558 <_printf_i+0x90>
 800b4ea:	d80a      	bhi.n	800b502 <_printf_i+0x3a>
 800b4ec:	2900      	cmp	r1, #0
 800b4ee:	f000 80b9 	beq.w	800b664 <_printf_i+0x19c>
 800b4f2:	2958      	cmp	r1, #88	; 0x58
 800b4f4:	f000 8083 	beq.w	800b5fe <_printf_i+0x136>
 800b4f8:	f104 0542 	add.w	r5, r4, #66	; 0x42
 800b4fc:	f884 1042 	strb.w	r1, [r4, #66]	; 0x42
 800b500:	e032      	b.n	800b568 <_printf_i+0xa0>
 800b502:	2964      	cmp	r1, #100	; 0x64
 800b504:	d001      	beq.n	800b50a <_printf_i+0x42>
 800b506:	2969      	cmp	r1, #105	; 0x69
 800b508:	d1f6      	bne.n	800b4f8 <_printf_i+0x30>
 800b50a:	6820      	ldr	r0, [r4, #0]
 800b50c:	6813      	ldr	r3, [r2, #0]
 800b50e:	0605      	lsls	r5, r0, #24
 800b510:	f103 0104 	add.w	r1, r3, #4
 800b514:	d52a      	bpl.n	800b56c <_printf_i+0xa4>
 800b516:	681b      	ldr	r3, [r3, #0]
 800b518:	6011      	str	r1, [r2, #0]
 800b51a:	2b00      	cmp	r3, #0
 800b51c:	da03      	bge.n	800b526 <_printf_i+0x5e>
 800b51e:	222d      	movs	r2, #45	; 0x2d
 800b520:	425b      	negs	r3, r3
 800b522:	f884 2043 	strb.w	r2, [r4, #67]	; 0x43
 800b526:	486f      	ldr	r0, [pc, #444]	; (800b6e4 <_printf_i+0x21c>)
 800b528:	220a      	movs	r2, #10
 800b52a:	e039      	b.n	800b5a0 <_printf_i+0xd8>
 800b52c:	2973      	cmp	r1, #115	; 0x73
 800b52e:	f000 809d 	beq.w	800b66c <_printf_i+0x1a4>
 800b532:	d808      	bhi.n	800b546 <_printf_i+0x7e>
 800b534:	296f      	cmp	r1, #111	; 0x6f
 800b536:	d020      	beq.n	800b57a <_printf_i+0xb2>
 800b538:	2970      	cmp	r1, #112	; 0x70
 800b53a:	d1dd      	bne.n	800b4f8 <_printf_i+0x30>
 800b53c:	6823      	ldr	r3, [r4, #0]
 800b53e:	f043 0320 	orr.w	r3, r3, #32
 800b542:	6023      	str	r3, [r4, #0]
 800b544:	e003      	b.n	800b54e <_printf_i+0x86>
 800b546:	2975      	cmp	r1, #117	; 0x75
 800b548:	d017      	beq.n	800b57a <_printf_i+0xb2>
 800b54a:	2978      	cmp	r1, #120	; 0x78
 800b54c:	d1d4      	bne.n	800b4f8 <_printf_i+0x30>
 800b54e:	2378      	movs	r3, #120	; 0x78
 800b550:	f884 3045 	strb.w	r3, [r4, #69]	; 0x45
 800b554:	4864      	ldr	r0, [pc, #400]	; (800b6e8 <_printf_i+0x220>)
 800b556:	e055      	b.n	800b604 <_printf_i+0x13c>
 800b558:	6813      	ldr	r3, [r2, #0]
 800b55a:	1d19      	adds	r1, r3, #4
 800b55c:	681b      	ldr	r3, [r3, #0]
 800b55e:	6011      	str	r1, [r2, #0]
 800b560:	f104 0542 	add.w	r5, r4, #66	; 0x42
 800b564:	f884 3042 	strb.w	r3, [r4, #66]	; 0x42
 800b568:	2301      	movs	r3, #1
 800b56a:	e08c      	b.n	800b686 <_printf_i+0x1be>
 800b56c:	681b      	ldr	r3, [r3, #0]
 800b56e:	6011      	str	r1, [r2, #0]
 800b570:	f010 0f40 	tst.w	r0, #64	; 0x40
 800b574:	bf18      	it	ne
 800b576:	b21b      	sxthne	r3, r3
 800b578:	e7cf      	b.n	800b51a <_printf_i+0x52>
 800b57a:	6813      	ldr	r3, [r2, #0]
 800b57c:	6825      	ldr	r5, [r4, #0]
 800b57e:	1d18      	adds	r0, r3, #4
 800b580:	6010      	str	r0, [r2, #0]
 800b582:	0628      	lsls	r0, r5, #24
 800b584:	d501      	bpl.n	800b58a <_printf_i+0xc2>
 800b586:	681b      	ldr	r3, [r3, #0]
 800b588:	e002      	b.n	800b590 <_printf_i+0xc8>
 800b58a:	0668      	lsls	r0, r5, #25
 800b58c:	d5fb      	bpl.n	800b586 <_printf_i+0xbe>
 800b58e:	881b      	ldrh	r3, [r3, #0]
 800b590:	4854      	ldr	r0, [pc, #336]	; (800b6e4 <_printf_i+0x21c>)
 800b592:	296f      	cmp	r1, #111	; 0x6f
 800b594:	bf14      	ite	ne
 800b596:	220a      	movne	r2, #10
 800b598:	2208      	moveq	r2, #8
 800b59a:	2100      	movs	r1, #0
 800b59c:	f884 1043 	strb.w	r1, [r4, #67]	; 0x43
 800b5a0:	6865      	ldr	r5, [r4, #4]
 800b5a2:	60a5      	str	r5, [r4, #8]
 800b5a4:	2d00      	cmp	r5, #0
 800b5a6:	f2c0 8095 	blt.w	800b6d4 <_printf_i+0x20c>
 800b5aa:	6821      	ldr	r1, [r4, #0]
 800b5ac:	f021 0104 	bic.w	r1, r1, #4
 800b5b0:	6021      	str	r1, [r4, #0]
 800b5b2:	2b00      	cmp	r3, #0
 800b5b4:	d13d      	bne.n	800b632 <_printf_i+0x16a>
 800b5b6:	2d00      	cmp	r5, #0
 800b5b8:	f040 808e 	bne.w	800b6d8 <_printf_i+0x210>
 800b5bc:	4665      	mov	r5, ip
 800b5be:	2a08      	cmp	r2, #8
 800b5c0:	d10b      	bne.n	800b5da <_printf_i+0x112>
 800b5c2:	6823      	ldr	r3, [r4, #0]
 800b5c4:	07db      	lsls	r3, r3, #31
 800b5c6:	d508      	bpl.n	800b5da <_printf_i+0x112>
 800b5c8:	6923      	ldr	r3, [r4, #16]
 800b5ca:	6862      	ldr	r2, [r4, #4]
 800b5cc:	429a      	cmp	r2, r3
 800b5ce:	bfde      	ittt	le
 800b5d0:	2330      	movle	r3, #48	; 0x30
 800b5d2:	f805 3c01 	strble.w	r3, [r5, #-1]
 800b5d6:	f105 35ff 	addle.w	r5, r5, #4294967295	; 0xffffffff
 800b5da:	ebac 0305 	sub.w	r3, ip, r5
 800b5de:	6123      	str	r3, [r4, #16]
 800b5e0:	f8cd 8000 	str.w	r8, [sp]
 800b5e4:	463b      	mov	r3, r7
 800b5e6:	aa03      	add	r2, sp, #12
 800b5e8:	4621      	mov	r1, r4
 800b5ea:	4630      	mov	r0, r6
 800b5ec:	f7ff fef6 	bl	800b3dc <_printf_common>
 800b5f0:	3001      	adds	r0, #1
 800b5f2:	d14d      	bne.n	800b690 <_printf_i+0x1c8>
 800b5f4:	f04f 30ff 	mov.w	r0, #4294967295	; 0xffffffff
 800b5f8:	b005      	add	sp, #20
 800b5fa:	e8bd 83f0 	ldmia.w	sp!, {r4, r5, r6, r7, r8, r9, pc}
 800b5fe:	4839      	ldr	r0, [pc, #228]	; (800b6e4 <_printf_i+0x21c>)
 800b600:	f884 1045 	strb.w	r1, [r4, #69]	; 0x45
 800b604:	6813      	ldr	r3, [r2, #0]
 800b606:	6821      	ldr	r1, [r4, #0]
 800b608:	1d1d      	adds	r5, r3, #4
 800b60a:	681b      	ldr	r3, [r3, #0]
 800b60c:	6015      	str	r5, [r2, #0]
 800b60e:	060a      	lsls	r2, r1, #24
 800b610:	d50b      	bpl.n	800b62a <_printf_i+0x162>
 800b612:	07ca      	lsls	r2, r1, #31
 800b614:	bf44      	itt	mi
 800b616:	f041 0120 	orrmi.w	r1, r1, #32
 800b61a:	6021      	strmi	r1, [r4, #0]
 800b61c:	b91b      	cbnz	r3, 800b626 <_printf_i+0x15e>
 800b61e:	6822      	ldr	r2, [r4, #0]
 800b620:	f022 0220 	bic.w	r2, r2, #32
 800b624:	6022      	str	r2, [r4, #0]
 800b626:	2210      	movs	r2, #16
 800b628:	e7b7      	b.n	800b59a <_printf_i+0xd2>
 800b62a:	064d      	lsls	r5, r1, #25
 800b62c:	bf48      	it	mi
 800b62e:	b29b      	uxthmi	r3, r3
 800b630:	e7ef      	b.n	800b612 <_printf_i+0x14a>
 800b632:	4665      	mov	r5, ip
 800b634:	fbb3 f1f2 	udiv	r1, r3, r2
 800b638:	fb02 3311 	mls	r3, r2, r1, r3
 800b63c:	5cc3      	ldrb	r3, [r0, r3]
 800b63e:	f805 3d01 	strb.w	r3, [r5, #-1]!
 800b642:	460b      	mov	r3, r1
 800b644:	2900      	cmp	r1, #0
 800b646:	d1f5      	bne.n	800b634 <_printf_i+0x16c>
 800b648:	e7b9      	b.n	800b5be <_printf_i+0xf6>
 800b64a:	6813      	ldr	r3, [r2, #0]
 800b64c:	6825      	ldr	r5, [r4, #0]
 800b64e:	6961      	ldr	r1, [r4, #20]
 800b650:	1d18      	adds	r0, r3, #4
 800b652:	6010      	str	r0, [r2, #0]
 800b654:	0628      	lsls	r0, r5, #24
 800b656:	681b      	ldr	r3, [r3, #0]
 800b658:	d501      	bpl.n	800b65e <_printf_i+0x196>
 800b65a:	6019      	str	r1, [r3, #0]
 800b65c:	e002      	b.n	800b664 <_printf_i+0x19c>
 800b65e:	066a      	lsls	r2, r5, #25
 800b660:	d5fb      	bpl.n	800b65a <_printf_i+0x192>
 800b662:	8019      	strh	r1, [r3, #0]
 800b664:	2300      	movs	r3, #0
 800b666:	6123      	str	r3, [r4, #16]
 800b668:	4665      	mov	r5, ip
 800b66a:	e7b9      	b.n	800b5e0 <_printf_i+0x118>
 800b66c:	6813      	ldr	r3, [r2, #0]
 800b66e:	1d19      	adds	r1, r3, #4
 800b670:	6011      	str	r1, [r2, #0]
 800b672:	681d      	ldr	r5, [r3, #0]
 800b674:	6862      	ldr	r2, [r4, #4]
 800b676:	2100      	movs	r1, #0
 800b678:	4628      	mov	r0, r5
 800b67a:	f7f4 fe31 	bl	80002e0 <memchr>
 800b67e:	b108      	cbz	r0, 800b684 <_printf_i+0x1bc>
 800b680:	1b40      	subs	r0, r0, r5
 800b682:	6060      	str	r0, [r4, #4]
 800b684:	6863      	ldr	r3, [r4, #4]
 800b686:	6123      	str	r3, [r4, #16]
 800b688:	2300      	movs	r3, #0
 800b68a:	f884 3043 	strb.w	r3, [r4, #67]	; 0x43
 800b68e:	e7a7      	b.n	800b5e0 <_printf_i+0x118>
 800b690:	6923      	ldr	r3, [r4, #16]
 800b692:	462a      	mov	r2, r5
 800b694:	4639      	mov	r1, r7
 800b696:	4630      	mov	r0, r6
 800b698:	47c0      	blx	r8
 800b69a:	3001      	adds	r0, #1
 800b69c:	d0aa      	beq.n	800b5f4 <_printf_i+0x12c>
 800b69e:	6823      	ldr	r3, [r4, #0]
 800b6a0:	079b      	lsls	r3, r3, #30
 800b6a2:	d413      	bmi.n	800b6cc <_printf_i+0x204>
 800b6a4:	68e0      	ldr	r0, [r4, #12]
 800b6a6:	9b03      	ldr	r3, [sp, #12]
 800b6a8:	4298      	cmp	r0, r3
 800b6aa:	bfb8      	it	lt
 800b6ac:	4618      	movlt	r0, r3
 800b6ae:	e7a3      	b.n	800b5f8 <_printf_i+0x130>
 800b6b0:	2301      	movs	r3, #1
 800b6b2:	464a      	mov	r2, r9
 800b6b4:	4639      	mov	r1, r7
 800b6b6:	4630      	mov	r0, r6
 800b6b8:	47c0      	blx	r8
 800b6ba:	3001      	adds	r0, #1
 800b6bc:	d09a      	beq.n	800b5f4 <_printf_i+0x12c>
 800b6be:	3501      	adds	r5, #1
 800b6c0:	68e3      	ldr	r3, [r4, #12]
 800b6c2:	9a03      	ldr	r2, [sp, #12]
 800b6c4:	1a9b      	subs	r3, r3, r2
 800b6c6:	42ab      	cmp	r3, r5
 800b6c8:	dcf2      	bgt.n	800b6b0 <_printf_i+0x1e8>
 800b6ca:	e7eb      	b.n	800b6a4 <_printf_i+0x1dc>
 800b6cc:	2500      	movs	r5, #0
 800b6ce:	f104 0919 	add.w	r9, r4, #25
 800b6d2:	e7f5      	b.n	800b6c0 <_printf_i+0x1f8>
 800b6d4:	2b00      	cmp	r3, #0
 800b6d6:	d1ac      	bne.n	800b632 <_printf_i+0x16a>
 800b6d8:	7803      	ldrb	r3, [r0, #0]
 800b6da:	f884 3042 	strb.w	r3, [r4, #66]	; 0x42
 800b6de:	f104 0542 	add.w	r5, r4, #66	; 0x42
 800b6e2:	e76c      	b.n	800b5be <_printf_i+0xf6>
 800b6e4:	0800d3dd 	.word	0x0800d3dd
 800b6e8:	0800d3ee 	.word	0x0800d3ee

0800b6ec <__sread>:
 800b6ec:	b510      	push	{r4, lr}
 800b6ee:	460c      	mov	r4, r1
 800b6f0:	f9b1 100e 	ldrsh.w	r1, [r1, #14]
 800b6f4:	f000 f894 	bl	800b820 <_read_r>
 800b6f8:	2800      	cmp	r0, #0
 800b6fa:	bfab      	itete	ge
 800b6fc:	6d63      	ldrge	r3, [r4, #84]	; 0x54
 800b6fe:	89a3      	ldrhlt	r3, [r4, #12]
 800b700:	181b      	addge	r3, r3, r0
 800b702:	f423 5380 	biclt.w	r3, r3, #4096	; 0x1000
 800b706:	bfac      	ite	ge
 800b708:	6563      	strge	r3, [r4, #84]	; 0x54
 800b70a:	81a3      	strhlt	r3, [r4, #12]
 800b70c:	bd10      	pop	{r4, pc}

0800b70e <__swrite>:
 800b70e:	e92d 41f0 	stmdb	sp!, {r4, r5, r6, r7, r8, lr}
 800b712:	461f      	mov	r7, r3
 800b714:	898b      	ldrh	r3, [r1, #12]
 800b716:	05db      	lsls	r3, r3, #23
 800b718:	4605      	mov	r5, r0
 800b71a:	460c      	mov	r4, r1
 800b71c:	4616      	mov	r6, r2
 800b71e:	d505      	bpl.n	800b72c <__swrite+0x1e>
 800b720:	2302      	movs	r3, #2
 800b722:	2200      	movs	r2, #0
 800b724:	f9b1 100e 	ldrsh.w	r1, [r1, #14]
 800b728:	f000 f868 	bl	800b7fc <_lseek_r>
 800b72c:	89a3      	ldrh	r3, [r4, #12]
 800b72e:	f9b4 100e 	ldrsh.w	r1, [r4, #14]
 800b732:	f423 5380 	bic.w	r3, r3, #4096	; 0x1000
 800b736:	81a3      	strh	r3, [r4, #12]
 800b738:	4632      	mov	r2, r6
 800b73a:	463b      	mov	r3, r7
 800b73c:	4628      	mov	r0, r5
 800b73e:	e8bd 41f0 	ldmia.w	sp!, {r4, r5, r6, r7, r8, lr}
 800b742:	f000 b817 	b.w	800b774 <_write_r>

0800b746 <__sseek>:
 800b746:	b510      	push	{r4, lr}
 800b748:	460c      	mov	r4, r1
 800b74a:	f9b1 100e 	ldrsh.w	r1, [r1, #14]
 800b74e:	f000 f855 	bl	800b7fc <_lseek_r>
 800b752:	1c43      	adds	r3, r0, #1
 800b754:	89a3      	ldrh	r3, [r4, #12]
 800b756:	bf15      	itete	ne
 800b758:	6560      	strne	r0, [r4, #84]	; 0x54
 800b75a:	f423 5380 	biceq.w	r3, r3, #4096	; 0x1000
 800b75e:	f443 5380 	orrne.w	r3, r3, #4096	; 0x1000
 800b762:	81a3      	strheq	r3, [r4, #12]
 800b764:	bf18      	it	ne
 800b766:	81a3      	strhne	r3, [r4, #12]
 800b768:	bd10      	pop	{r4, pc}

0800b76a <__sclose>:
 800b76a:	f9b1 100e 	ldrsh.w	r1, [r1, #14]
 800b76e:	f000 b813 	b.w	800b798 <_close_r>
	...

0800b774 <_write_r>:
 800b774:	b538      	push	{r3, r4, r5, lr}
 800b776:	4c07      	ldr	r4, [pc, #28]	; (800b794 <_write_r+0x20>)
 800b778:	4605      	mov	r5, r0
 800b77a:	4608      	mov	r0, r1
 800b77c:	4611      	mov	r1, r2
 800b77e:	2200      	movs	r2, #0
 800b780:	6022      	str	r2, [r4, #0]
 800b782:	461a      	mov	r2, r3
 800b784:	f7f5 fc28 	bl	8000fd8 <_write>
 800b788:	1c43      	adds	r3, r0, #1
 800b78a:	d102      	bne.n	800b792 <_write_r+0x1e>
 800b78c:	6823      	ldr	r3, [r4, #0]
 800b78e:	b103      	cbz	r3, 800b792 <_write_r+0x1e>
 800b790:	602b      	str	r3, [r5, #0]
 800b792:	bd38      	pop	{r3, r4, r5, pc}
 800b794:	2400b950 	.word	0x2400b950

0800b798 <_close_r>:
 800b798:	b538      	push	{r3, r4, r5, lr}
 800b79a:	4c06      	ldr	r4, [pc, #24]	; (800b7b4 <_close_r+0x1c>)
 800b79c:	2300      	movs	r3, #0
 800b79e:	4605      	mov	r5, r0
 800b7a0:	4608      	mov	r0, r1
 800b7a2:	6023      	str	r3, [r4, #0]
 800b7a4:	f7f5 fc44 	bl	8001030 <_close>
 800b7a8:	1c43      	adds	r3, r0, #1
 800b7aa:	d102      	bne.n	800b7b2 <_close_r+0x1a>
 800b7ac:	6823      	ldr	r3, [r4, #0]
 800b7ae:	b103      	cbz	r3, 800b7b2 <_close_r+0x1a>
 800b7b0:	602b      	str	r3, [r5, #0]
 800b7b2:	bd38      	pop	{r3, r4, r5, pc}
 800b7b4:	2400b950 	.word	0x2400b950

0800b7b8 <_fstat_r>:
 800b7b8:	b538      	push	{r3, r4, r5, lr}
 800b7ba:	4c07      	ldr	r4, [pc, #28]	; (800b7d8 <_fstat_r+0x20>)
 800b7bc:	2300      	movs	r3, #0
 800b7be:	4605      	mov	r5, r0
 800b7c0:	4608      	mov	r0, r1
 800b7c2:	4611      	mov	r1, r2
 800b7c4:	6023      	str	r3, [r4, #0]
 800b7c6:	f7f5 fc37 	bl	8001038 <_fstat>
 800b7ca:	1c43      	adds	r3, r0, #1
 800b7cc:	d102      	bne.n	800b7d4 <_fstat_r+0x1c>
 800b7ce:	6823      	ldr	r3, [r4, #0]
 800b7d0:	b103      	cbz	r3, 800b7d4 <_fstat_r+0x1c>
 800b7d2:	602b      	str	r3, [r5, #0]
 800b7d4:	bd38      	pop	{r3, r4, r5, pc}
 800b7d6:	bf00      	nop
 800b7d8:	2400b950 	.word	0x2400b950

0800b7dc <_isatty_r>:
 800b7dc:	b538      	push	{r3, r4, r5, lr}
 800b7de:	4c06      	ldr	r4, [pc, #24]	; (800b7f8 <_isatty_r+0x1c>)
 800b7e0:	2300      	movs	r3, #0
 800b7e2:	4605      	mov	r5, r0
 800b7e4:	4608      	mov	r0, r1
 800b7e6:	6023      	str	r3, [r4, #0]
 800b7e8:	f7f5 fc2c 	bl	8001044 <_isatty>
 800b7ec:	1c43      	adds	r3, r0, #1
 800b7ee:	d102      	bne.n	800b7f6 <_isatty_r+0x1a>
 800b7f0:	6823      	ldr	r3, [r4, #0]
 800b7f2:	b103      	cbz	r3, 800b7f6 <_isatty_r+0x1a>
 800b7f4:	602b      	str	r3, [r5, #0]
 800b7f6:	bd38      	pop	{r3, r4, r5, pc}
 800b7f8:	2400b950 	.word	0x2400b950

0800b7fc <_lseek_r>:
 800b7fc:	b538      	push	{r3, r4, r5, lr}
 800b7fe:	4c07      	ldr	r4, [pc, #28]	; (800b81c <_lseek_r+0x20>)
 800b800:	4605      	mov	r5, r0
 800b802:	4608      	mov	r0, r1
 800b804:	4611      	mov	r1, r2
 800b806:	2200      	movs	r2, #0
 800b808:	6022      	str	r2, [r4, #0]
 800b80a:	461a      	mov	r2, r3
 800b80c:	f7f5 fc1c 	bl	8001048 <_lseek>
 800b810:	1c43      	adds	r3, r0, #1
 800b812:	d102      	bne.n	800b81a <_lseek_r+0x1e>
 800b814:	6823      	ldr	r3, [r4, #0]
 800b816:	b103      	cbz	r3, 800b81a <_lseek_r+0x1e>
 800b818:	602b      	str	r3, [r5, #0]
 800b81a:	bd38      	pop	{r3, r4, r5, pc}
 800b81c:	2400b950 	.word	0x2400b950

0800b820 <_read_r>:
 800b820:	b538      	push	{r3, r4, r5, lr}
 800b822:	4c07      	ldr	r4, [pc, #28]	; (800b840 <_read_r+0x20>)
 800b824:	4605      	mov	r5, r0
 800b826:	4608      	mov	r0, r1
 800b828:	4611      	mov	r1, r2
 800b82a:	2200      	movs	r2, #0
 800b82c:	6022      	str	r2, [r4, #0]
 800b82e:	461a      	mov	r2, r3
 800b830:	f7f5 fbc4 	bl	8000fbc <_read>
 800b834:	1c43      	adds	r3, r0, #1
 800b836:	d102      	bne.n	800b83e <_read_r+0x1e>
 800b838:	6823      	ldr	r3, [r4, #0]
 800b83a:	b103      	cbz	r3, 800b83e <_read_r+0x1e>
 800b83c:	602b      	str	r3, [r5, #0]
 800b83e:	bd38      	pop	{r3, r4, r5, pc}
 800b840:	2400b950 	.word	0x2400b950
 800b844:	00000000 	.word	0x00000000

0800b848 <sin>:
 800b848:	b51f      	push	{r0, r1, r2, r3, r4, lr}
 800b84a:	eeb0 7b40 	vmov.f64	d7, d0
 800b84e:	ee17 3a90 	vmov	r3, s15
 800b852:	4a19      	ldr	r2, [pc, #100]	; (800b8b8 <sin+0x70>)
 800b854:	f023 4300 	bic.w	r3, r3, #2147483648	; 0x80000000
 800b858:	4293      	cmp	r3, r2
 800b85a:	dc05      	bgt.n	800b868 <sin+0x20>
 800b85c:	ed9f 1b14 	vldr	d1, [pc, #80]	; 800b8b0 <sin+0x68>
 800b860:	2000      	movs	r0, #0
 800b862:	f001 f92d 	bl	800cac0 <__kernel_sin>
 800b866:	e004      	b.n	800b872 <sin+0x2a>
 800b868:	4a14      	ldr	r2, [pc, #80]	; (800b8bc <sin+0x74>)
 800b86a:	4293      	cmp	r3, r2
 800b86c:	dd04      	ble.n	800b878 <sin+0x30>
 800b86e:	ee30 0b40 	vsub.f64	d0, d0, d0
 800b872:	b005      	add	sp, #20
 800b874:	f85d fb04 	ldr.w	pc, [sp], #4
 800b878:	4668      	mov	r0, sp
 800b87a:	f000 fcd9 	bl	800c230 <__ieee754_rem_pio2>
 800b87e:	f000 0003 	and.w	r0, r0, #3
 800b882:	2801      	cmp	r0, #1
 800b884:	ed9d 1b02 	vldr	d1, [sp, #8]
 800b888:	ed9d 0b00 	vldr	d0, [sp]
 800b88c:	d004      	beq.n	800b898 <sin+0x50>
 800b88e:	2802      	cmp	r0, #2
 800b890:	d005      	beq.n	800b89e <sin+0x56>
 800b892:	b950      	cbnz	r0, 800b8aa <sin+0x62>
 800b894:	2001      	movs	r0, #1
 800b896:	e7e4      	b.n	800b862 <sin+0x1a>
 800b898:	f000 fe0a 	bl	800c4b0 <__kernel_cos>
 800b89c:	e7e9      	b.n	800b872 <sin+0x2a>
 800b89e:	2001      	movs	r0, #1
 800b8a0:	f001 f90e 	bl	800cac0 <__kernel_sin>
 800b8a4:	eeb1 0b40 	vneg.f64	d0, d0
 800b8a8:	e7e3      	b.n	800b872 <sin+0x2a>
 800b8aa:	f000 fe01 	bl	800c4b0 <__kernel_cos>
 800b8ae:	e7f9      	b.n	800b8a4 <sin+0x5c>
	...
 800b8b8:	3fe921fb 	.word	0x3fe921fb
 800b8bc:	7fefffff 	.word	0x7fefffff

0800b8c0 <pow>:
 800b8c0:	b570      	push	{r4, r5, r6, lr}
 800b8c2:	ed2d 8b0a 	vpush	{d8-d12}
 800b8c6:	eeb0 9b40 	vmov.f64	d9, d0
 800b8ca:	eeb0 8b41 	vmov.f64	d8, d1
 800b8ce:	4c8c      	ldr	r4, [pc, #560]	; (800bb00 <pow+0x240>)
 800b8d0:	b08a      	sub	sp, #40	; 0x28
 800b8d2:	f000 f925 	bl	800bb20 <__ieee754_pow>
 800b8d6:	f994 3000 	ldrsb.w	r3, [r4]
 800b8da:	eeb0 ab40 	vmov.f64	d10, d0
 800b8de:	1c5a      	adds	r2, r3, #1
 800b8e0:	4626      	mov	r6, r4
 800b8e2:	d04b      	beq.n	800b97c <pow+0xbc>
 800b8e4:	eeb4 8b48 	vcmp.f64	d8, d8
 800b8e8:	eef1 fa10 	vmrs	APSR_nzcv, fpscr
 800b8ec:	d646      	bvs.n	800b97c <pow+0xbc>
 800b8ee:	eeb4 9b49 	vcmp.f64	d9, d9
 800b8f2:	eef1 fa10 	vmrs	APSR_nzcv, fpscr
 800b8f6:	d719      	bvc.n	800b92c <pow+0x6c>
 800b8f8:	eeb5 8b40 	vcmp.f64	d8, #0.0
 800b8fc:	eef1 fa10 	vmrs	APSR_nzcv, fpscr
 800b900:	d13c      	bne.n	800b97c <pow+0xbc>
 800b902:	2201      	movs	r2, #1
 800b904:	9200      	str	r2, [sp, #0]
 800b906:	497f      	ldr	r1, [pc, #508]	; (800bb04 <pow+0x244>)
 800b908:	4a7f      	ldr	r2, [pc, #508]	; (800bb08 <pow+0x248>)
 800b90a:	9201      	str	r2, [sp, #4]
 800b90c:	2000      	movs	r0, #0
 800b90e:	2200      	movs	r2, #0
 800b910:	2b02      	cmp	r3, #2
 800b912:	9208      	str	r2, [sp, #32]
 800b914:	ed8d 9b02 	vstr	d9, [sp, #8]
 800b918:	ed8d 8b04 	vstr	d8, [sp, #16]
 800b91c:	e9cd 0106 	strd	r0, r1, [sp, #24]
 800b920:	d02a      	beq.n	800b978 <pow+0xb8>
 800b922:	4668      	mov	r0, sp
 800b924:	f001 f9b0 	bl	800cc88 <matherr>
 800b928:	bb00      	cbnz	r0, 800b96c <pow+0xac>
 800b92a:	e04e      	b.n	800b9ca <pow+0x10a>
 800b92c:	ed9f bb72 	vldr	d11, [pc, #456]	; 800baf8 <pow+0x238>
 800b930:	eeb4 9b4b 	vcmp.f64	d9, d11
 800b934:	eef1 fa10 	vmrs	APSR_nzcv, fpscr
 800b938:	eeb0 cb4b 	vmov.f64	d12, d11
 800b93c:	d14a      	bne.n	800b9d4 <pow+0x114>
 800b93e:	eeb4 8b4b 	vcmp.f64	d8, d11
 800b942:	eef1 fa10 	vmrs	APSR_nzcv, fpscr
 800b946:	d11f      	bne.n	800b988 <pow+0xc8>
 800b948:	2201      	movs	r2, #1
 800b94a:	9200      	str	r2, [sp, #0]
 800b94c:	4a6e      	ldr	r2, [pc, #440]	; (800bb08 <pow+0x248>)
 800b94e:	9201      	str	r2, [sp, #4]
 800b950:	2200      	movs	r2, #0
 800b952:	9208      	str	r2, [sp, #32]
 800b954:	ed8d 9b02 	vstr	d9, [sp, #8]
 800b958:	ed8d 8b04 	vstr	d8, [sp, #16]
 800b95c:	ed8d bb06 	vstr	d11, [sp, #24]
 800b960:	2b00      	cmp	r3, #0
 800b962:	d0de      	beq.n	800b922 <pow+0x62>
 800b964:	4b67      	ldr	r3, [pc, #412]	; (800bb04 <pow+0x244>)
 800b966:	2200      	movs	r2, #0
 800b968:	e9cd 2306 	strd	r2, r3, [sp, #24]
 800b96c:	9b08      	ldr	r3, [sp, #32]
 800b96e:	b11b      	cbz	r3, 800b978 <pow+0xb8>
 800b970:	f7fe ffe6 	bl	800a940 <__errno>
 800b974:	9b08      	ldr	r3, [sp, #32]
 800b976:	6003      	str	r3, [r0, #0]
 800b978:	ed9d ab06 	vldr	d10, [sp, #24]
 800b97c:	eeb0 0b4a 	vmov.f64	d0, d10
 800b980:	b00a      	add	sp, #40	; 0x28
 800b982:	ecbd 8b0a 	vpop	{d8-d12}
 800b986:	bd70      	pop	{r4, r5, r6, pc}
 800b988:	eeb0 0b48 	vmov.f64	d0, d8
 800b98c:	f001 f8f9 	bl	800cb82 <finite>
 800b990:	2800      	cmp	r0, #0
 800b992:	d0f3      	beq.n	800b97c <pow+0xbc>
 800b994:	eeb5 8bc0 	vcmpe.f64	d8, #0.0
 800b998:	eef1 fa10 	vmrs	APSR_nzcv, fpscr
 800b99c:	d5ee      	bpl.n	800b97c <pow+0xbc>
 800b99e:	2301      	movs	r3, #1
 800b9a0:	9300      	str	r3, [sp, #0]
 800b9a2:	4b59      	ldr	r3, [pc, #356]	; (800bb08 <pow+0x248>)
 800b9a4:	9301      	str	r3, [sp, #4]
 800b9a6:	2300      	movs	r3, #0
 800b9a8:	9308      	str	r3, [sp, #32]
 800b9aa:	f994 3000 	ldrsb.w	r3, [r4]
 800b9ae:	ed8d 9b02 	vstr	d9, [sp, #8]
 800b9b2:	ed8d 8b04 	vstr	d8, [sp, #16]
 800b9b6:	b913      	cbnz	r3, 800b9be <pow+0xfe>
 800b9b8:	ed8d bb06 	vstr	d11, [sp, #24]
 800b9bc:	e7b1      	b.n	800b922 <pow+0x62>
 800b9be:	4953      	ldr	r1, [pc, #332]	; (800bb0c <pow+0x24c>)
 800b9c0:	2000      	movs	r0, #0
 800b9c2:	e9cd 0106 	strd	r0, r1, [sp, #24]
 800b9c6:	2b02      	cmp	r3, #2
 800b9c8:	d1ab      	bne.n	800b922 <pow+0x62>
 800b9ca:	f7fe ffb9 	bl	800a940 <__errno>
 800b9ce:	2321      	movs	r3, #33	; 0x21
 800b9d0:	6003      	str	r3, [r0, #0]
 800b9d2:	e7cb      	b.n	800b96c <pow+0xac>
 800b9d4:	f001 f8d5 	bl	800cb82 <finite>
 800b9d8:	4605      	mov	r5, r0
 800b9da:	2800      	cmp	r0, #0
 800b9dc:	d164      	bne.n	800baa8 <pow+0x1e8>
 800b9de:	eeb0 0b49 	vmov.f64	d0, d9
 800b9e2:	f001 f8ce 	bl	800cb82 <finite>
 800b9e6:	2800      	cmp	r0, #0
 800b9e8:	d05e      	beq.n	800baa8 <pow+0x1e8>
 800b9ea:	eeb0 0b48 	vmov.f64	d0, d8
 800b9ee:	f001 f8c8 	bl	800cb82 <finite>
 800b9f2:	2800      	cmp	r0, #0
 800b9f4:	d058      	beq.n	800baa8 <pow+0x1e8>
 800b9f6:	eeb4 ab4a 	vcmp.f64	d10, d10
 800b9fa:	eef1 fa10 	vmrs	APSR_nzcv, fpscr
 800b9fe:	f994 3000 	ldrsb.w	r3, [r4]
 800ba02:	4a41      	ldr	r2, [pc, #260]	; (800bb08 <pow+0x248>)
 800ba04:	d70e      	bvc.n	800ba24 <pow+0x164>
 800ba06:	2101      	movs	r1, #1
 800ba08:	e9cd 1200 	strd	r1, r2, [sp]
 800ba0c:	9508      	str	r5, [sp, #32]
 800ba0e:	ed8d 9b02 	vstr	d9, [sp, #8]
 800ba12:	ed8d 8b04 	vstr	d8, [sp, #16]
 800ba16:	2b00      	cmp	r3, #0
 800ba18:	d0ce      	beq.n	800b9b8 <pow+0xf8>
 800ba1a:	ee8b 7b0b 	vdiv.f64	d7, d11, d11
 800ba1e:	ed8d 7b06 	vstr	d7, [sp, #24]
 800ba22:	e7d0      	b.n	800b9c6 <pow+0x106>
 800ba24:	2103      	movs	r1, #3
 800ba26:	ed8d 8b04 	vstr	d8, [sp, #16]
 800ba2a:	eeb6 7b00 	vmov.f64	d7, #96	; 0x3f000000  0.5
 800ba2e:	ee28 8b07 	vmul.f64	d8, d8, d7
 800ba32:	e9cd 1200 	strd	r1, r2, [sp]
 800ba36:	9508      	str	r5, [sp, #32]
 800ba38:	ed8d 9b02 	vstr	d9, [sp, #8]
 800ba3c:	b9fb      	cbnz	r3, 800ba7e <pow+0x1be>
 800ba3e:	eeb5 9bc0 	vcmpe.f64	d9, #0.0
 800ba42:	4b33      	ldr	r3, [pc, #204]	; (800bb10 <pow+0x250>)
 800ba44:	f04f 4260 	mov.w	r2, #3758096384	; 0xe0000000
 800ba48:	eef1 fa10 	vmrs	APSR_nzcv, fpscr
 800ba4c:	e9cd 2306 	strd	r2, r3, [sp, #24]
 800ba50:	d54b      	bpl.n	800baea <pow+0x22a>
 800ba52:	eeb0 0b48 	vmov.f64	d0, d8
 800ba56:	f001 f923 	bl	800cca0 <rint>
 800ba5a:	eeb4 0b48 	vcmp.f64	d0, d8
 800ba5e:	eef1 fa10 	vmrs	APSR_nzcv, fpscr
 800ba62:	d004      	beq.n	800ba6e <pow+0x1ae>
 800ba64:	4b2b      	ldr	r3, [pc, #172]	; (800bb14 <pow+0x254>)
 800ba66:	f04f 4260 	mov.w	r2, #3758096384	; 0xe0000000
 800ba6a:	e9cd 2306 	strd	r2, r3, [sp, #24]
 800ba6e:	f996 3000 	ldrsb.w	r3, [r6]
 800ba72:	2b02      	cmp	r3, #2
 800ba74:	d139      	bne.n	800baea <pow+0x22a>
 800ba76:	f7fe ff63 	bl	800a940 <__errno>
 800ba7a:	2322      	movs	r3, #34	; 0x22
 800ba7c:	e7a8      	b.n	800b9d0 <pow+0x110>
 800ba7e:	4b26      	ldr	r3, [pc, #152]	; (800bb18 <pow+0x258>)
 800ba80:	eeb5 9bc0 	vcmpe.f64	d9, #0.0
 800ba84:	2200      	movs	r2, #0
 800ba86:	eef1 fa10 	vmrs	APSR_nzcv, fpscr
 800ba8a:	e9cd 2306 	strd	r2, r3, [sp, #24]
 800ba8e:	d5ee      	bpl.n	800ba6e <pow+0x1ae>
 800ba90:	eeb0 0b48 	vmov.f64	d0, d8
 800ba94:	f001 f904 	bl	800cca0 <rint>
 800ba98:	eeb4 0b48 	vcmp.f64	d0, d8
 800ba9c:	eef1 fa10 	vmrs	APSR_nzcv, fpscr
 800baa0:	d0e5      	beq.n	800ba6e <pow+0x1ae>
 800baa2:	2200      	movs	r2, #0
 800baa4:	4b19      	ldr	r3, [pc, #100]	; (800bb0c <pow+0x24c>)
 800baa6:	e7e0      	b.n	800ba6a <pow+0x1aa>
 800baa8:	eeb5 ab40 	vcmp.f64	d10, #0.0
 800baac:	eef1 fa10 	vmrs	APSR_nzcv, fpscr
 800bab0:	f47f af64 	bne.w	800b97c <pow+0xbc>
 800bab4:	eeb0 0b49 	vmov.f64	d0, d9
 800bab8:	f001 f863 	bl	800cb82 <finite>
 800babc:	2800      	cmp	r0, #0
 800babe:	f43f af5d 	beq.w	800b97c <pow+0xbc>
 800bac2:	eeb0 0b48 	vmov.f64	d0, d8
 800bac6:	f001 f85c 	bl	800cb82 <finite>
 800baca:	2800      	cmp	r0, #0
 800bacc:	f43f af56 	beq.w	800b97c <pow+0xbc>
 800bad0:	2304      	movs	r3, #4
 800bad2:	9300      	str	r3, [sp, #0]
 800bad4:	4b0c      	ldr	r3, [pc, #48]	; (800bb08 <pow+0x248>)
 800bad6:	9301      	str	r3, [sp, #4]
 800bad8:	2300      	movs	r3, #0
 800bada:	9308      	str	r3, [sp, #32]
 800badc:	ed8d 9b02 	vstr	d9, [sp, #8]
 800bae0:	ed8d 8b04 	vstr	d8, [sp, #16]
 800bae4:	ed8d cb06 	vstr	d12, [sp, #24]
 800bae8:	e7c1      	b.n	800ba6e <pow+0x1ae>
 800baea:	4668      	mov	r0, sp
 800baec:	f001 f8cc 	bl	800cc88 <matherr>
 800baf0:	2800      	cmp	r0, #0
 800baf2:	f47f af3b 	bne.w	800b96c <pow+0xac>
 800baf6:	e7be      	b.n	800ba76 <pow+0x1b6>
	...
 800bb00:	24000078 	.word	0x24000078
 800bb04:	3ff00000 	.word	0x3ff00000
 800bb08:	0800d3ff 	.word	0x0800d3ff
 800bb0c:	fff00000 	.word	0xfff00000
 800bb10:	47efffff 	.word	0x47efffff
 800bb14:	c7efffff 	.word	0xc7efffff
 800bb18:	7ff00000 	.word	0x7ff00000
 800bb1c:	00000000 	.word	0x00000000

0800bb20 <__ieee754_pow>:
 800bb20:	e92d 4ff0 	stmdb	sp!, {r4, r5, r6, r7, r8, r9, sl, fp, lr}
 800bb24:	ec57 6b11 	vmov	r6, r7, d1
 800bb28:	ed2d 8b02 	vpush	{d8}
 800bb2c:	eeb0 8b40 	vmov.f64	d8, d0
 800bb30:	f027 4800 	bic.w	r8, r7, #2147483648	; 0x80000000
 800bb34:	ea58 0306 	orrs.w	r3, r8, r6
 800bb38:	b085      	sub	sp, #20
 800bb3a:	46b9      	mov	r9, r7
 800bb3c:	ee11 2a10 	vmov	r2, s2
 800bb40:	f000 8306 	beq.w	800c150 <__ieee754_pow+0x630>
 800bb44:	ee18 aa90 	vmov	sl, s17
 800bb48:	4bb9      	ldr	r3, [pc, #740]	; (800be30 <__ieee754_pow+0x310>)
 800bb4a:	f02a 4400 	bic.w	r4, sl, #2147483648	; 0x80000000
 800bb4e:	429c      	cmp	r4, r3
 800bb50:	ee10 ba10 	vmov	fp, s0
 800bb54:	dc0b      	bgt.n	800bb6e <__ieee754_pow+0x4e>
 800bb56:	d105      	bne.n	800bb64 <__ieee754_pow+0x44>
 800bb58:	f1bb 0f00 	cmp.w	fp, #0
 800bb5c:	d107      	bne.n	800bb6e <__ieee754_pow+0x4e>
 800bb5e:	45a0      	cmp	r8, r4
 800bb60:	dc0d      	bgt.n	800bb7e <__ieee754_pow+0x5e>
 800bb62:	e001      	b.n	800bb68 <__ieee754_pow+0x48>
 800bb64:	4598      	cmp	r8, r3
 800bb66:	dc02      	bgt.n	800bb6e <__ieee754_pow+0x4e>
 800bb68:	4598      	cmp	r8, r3
 800bb6a:	d110      	bne.n	800bb8e <__ieee754_pow+0x6e>
 800bb6c:	b17a      	cbz	r2, 800bb8e <__ieee754_pow+0x6e>
 800bb6e:	f104 4440 	add.w	r4, r4, #3221225472	; 0xc0000000
 800bb72:	f504 1480 	add.w	r4, r4, #1048576	; 0x100000
 800bb76:	ea54 030b 	orrs.w	r3, r4, fp
 800bb7a:	f000 82e9 	beq.w	800c150 <__ieee754_pow+0x630>
 800bb7e:	48ad      	ldr	r0, [pc, #692]	; (800be34 <__ieee754_pow+0x314>)
 800bb80:	b005      	add	sp, #20
 800bb82:	ecbd 8b02 	vpop	{d8}
 800bb86:	e8bd 4ff0 	ldmia.w	sp!, {r4, r5, r6, r7, r8, r9, sl, fp, lr}
 800bb8a:	f001 b881 	b.w	800cc90 <nan>
 800bb8e:	f1ba 0f00 	cmp.w	sl, #0
 800bb92:	da4e      	bge.n	800bc32 <__ieee754_pow+0x112>
 800bb94:	4ba8      	ldr	r3, [pc, #672]	; (800be38 <__ieee754_pow+0x318>)
 800bb96:	4598      	cmp	r8, r3
 800bb98:	dc49      	bgt.n	800bc2e <__ieee754_pow+0x10e>
 800bb9a:	f1a3 7354 	sub.w	r3, r3, #55574528	; 0x3500000
 800bb9e:	4598      	cmp	r8, r3
 800bba0:	dd47      	ble.n	800bc32 <__ieee754_pow+0x112>
 800bba2:	ea4f 5328 	mov.w	r3, r8, asr #20
 800bba6:	f2a3 33ff 	subw	r3, r3, #1023	; 0x3ff
 800bbaa:	2b14      	cmp	r3, #20
 800bbac:	dd24      	ble.n	800bbf8 <__ieee754_pow+0xd8>
 800bbae:	f1c3 0334 	rsb	r3, r3, #52	; 0x34
 800bbb2:	fa22 f503 	lsr.w	r5, r2, r3
 800bbb6:	fa05 f303 	lsl.w	r3, r5, r3
 800bbba:	4293      	cmp	r3, r2
 800bbbc:	d139      	bne.n	800bc32 <__ieee754_pow+0x112>
 800bbbe:	f005 0501 	and.w	r5, r5, #1
 800bbc2:	f1c5 0502 	rsb	r5, r5, #2
 800bbc6:	2a00      	cmp	r2, #0
 800bbc8:	d15a      	bne.n	800bc80 <__ieee754_pow+0x160>
 800bbca:	4b99      	ldr	r3, [pc, #612]	; (800be30 <__ieee754_pow+0x310>)
 800bbcc:	4598      	cmp	r8, r3
 800bbce:	d122      	bne.n	800bc16 <__ieee754_pow+0xf6>
 800bbd0:	f104 4340 	add.w	r3, r4, #3221225472	; 0xc0000000
 800bbd4:	f503 1380 	add.w	r3, r3, #1048576	; 0x100000
 800bbd8:	ea53 030b 	orrs.w	r3, r3, fp
 800bbdc:	f000 82b8 	beq.w	800c150 <__ieee754_pow+0x630>
 800bbe0:	4b96      	ldr	r3, [pc, #600]	; (800be3c <__ieee754_pow+0x31c>)
 800bbe2:	429c      	cmp	r4, r3
 800bbe4:	dd27      	ble.n	800bc36 <__ieee754_pow+0x116>
 800bbe6:	f1b9 0f00 	cmp.w	r9, #0
 800bbea:	f280 82b4 	bge.w	800c156 <__ieee754_pow+0x636>
 800bbee:	ed9f 7b84 	vldr	d7, [pc, #528]	; 800be00 <__ieee754_pow+0x2e0>
 800bbf2:	ed8d 7b00 	vstr	d7, [sp]
 800bbf6:	e026      	b.n	800bc46 <__ieee754_pow+0x126>
 800bbf8:	2a00      	cmp	r2, #0
 800bbfa:	d140      	bne.n	800bc7e <__ieee754_pow+0x15e>
 800bbfc:	f1c3 0314 	rsb	r3, r3, #20
 800bc00:	fa48 f503 	asr.w	r5, r8, r3
 800bc04:	fa05 f303 	lsl.w	r3, r5, r3
 800bc08:	4543      	cmp	r3, r8
 800bc0a:	f040 82aa 	bne.w	800c162 <__ieee754_pow+0x642>
 800bc0e:	f005 0501 	and.w	r5, r5, #1
 800bc12:	f1c5 0502 	rsb	r5, r5, #2
 800bc16:	4b8a      	ldr	r3, [pc, #552]	; (800be40 <__ieee754_pow+0x320>)
 800bc18:	4598      	cmp	r8, r3
 800bc1a:	d11b      	bne.n	800bc54 <__ieee754_pow+0x134>
 800bc1c:	f1b9 0f00 	cmp.w	r9, #0
 800bc20:	f280 829c 	bge.w	800c15c <__ieee754_pow+0x63c>
 800bc24:	eeb7 7b00 	vmov.f64	d7, #112	; 0x3f800000  1.0
 800bc28:	ee87 7b08 	vdiv.f64	d7, d7, d8
 800bc2c:	e7e1      	b.n	800bbf2 <__ieee754_pow+0xd2>
 800bc2e:	2502      	movs	r5, #2
 800bc30:	e7c9      	b.n	800bbc6 <__ieee754_pow+0xa6>
 800bc32:	2500      	movs	r5, #0
 800bc34:	e7c7      	b.n	800bbc6 <__ieee754_pow+0xa6>
 800bc36:	f1b9 0f00 	cmp.w	r9, #0
 800bc3a:	dad8      	bge.n	800bbee <__ieee754_pow+0xce>
 800bc3c:	f087 4400 	eor.w	r4, r7, #2147483648	; 0x80000000
 800bc40:	4633      	mov	r3, r6
 800bc42:	e9cd 3400 	strd	r3, r4, [sp]
 800bc46:	ed9d 0b00 	vldr	d0, [sp]
 800bc4a:	b005      	add	sp, #20
 800bc4c:	ecbd 8b02 	vpop	{d8}
 800bc50:	e8bd 8ff0 	ldmia.w	sp!, {r4, r5, r6, r7, r8, r9, sl, fp, pc}
 800bc54:	f1b9 4f80 	cmp.w	r9, #1073741824	; 0x40000000
 800bc58:	d102      	bne.n	800bc60 <__ieee754_pow+0x140>
 800bc5a:	ee28 7b08 	vmul.f64	d7, d8, d8
 800bc5e:	e7c8      	b.n	800bbf2 <__ieee754_pow+0xd2>
 800bc60:	4b78      	ldr	r3, [pc, #480]	; (800be44 <__ieee754_pow+0x324>)
 800bc62:	4599      	cmp	r9, r3
 800bc64:	d10c      	bne.n	800bc80 <__ieee754_pow+0x160>
 800bc66:	f1ba 0f00 	cmp.w	sl, #0
 800bc6a:	db09      	blt.n	800bc80 <__ieee754_pow+0x160>
 800bc6c:	eeb0 0b48 	vmov.f64	d0, d8
 800bc70:	b005      	add	sp, #20
 800bc72:	ecbd 8b02 	vpop	{d8}
 800bc76:	e8bd 4ff0 	ldmia.w	sp!, {r4, r5, r6, r7, r8, r9, sl, fp, lr}
 800bc7a:	f000 bc15 	b.w	800c4a8 <__ieee754_sqrt>
 800bc7e:	2500      	movs	r5, #0
 800bc80:	eeb0 0b48 	vmov.f64	d0, d8
 800bc84:	f000 ff74 	bl	800cb70 <fabs>
 800bc88:	ed8d 0b00 	vstr	d0, [sp]
 800bc8c:	f1bb 0f00 	cmp.w	fp, #0
 800bc90:	d128      	bne.n	800bce4 <__ieee754_pow+0x1c4>
 800bc92:	b124      	cbz	r4, 800bc9e <__ieee754_pow+0x17e>
 800bc94:	4b6a      	ldr	r3, [pc, #424]	; (800be40 <__ieee754_pow+0x320>)
 800bc96:	f02a 4240 	bic.w	r2, sl, #3221225472	; 0xc0000000
 800bc9a:	429a      	cmp	r2, r3
 800bc9c:	d122      	bne.n	800bce4 <__ieee754_pow+0x1c4>
 800bc9e:	f1b9 0f00 	cmp.w	r9, #0
 800bca2:	da07      	bge.n	800bcb4 <__ieee754_pow+0x194>
 800bca4:	eeb7 7b00 	vmov.f64	d7, #112	; 0x3f800000  1.0
 800bca8:	ed9d 6b00 	vldr	d6, [sp]
 800bcac:	ee87 7b06 	vdiv.f64	d7, d7, d6
 800bcb0:	ed8d 7b00 	vstr	d7, [sp]
 800bcb4:	f1ba 0f00 	cmp.w	sl, #0
 800bcb8:	dac5      	bge.n	800bc46 <__ieee754_pow+0x126>
 800bcba:	f104 4440 	add.w	r4, r4, #3221225472	; 0xc0000000
 800bcbe:	f504 1480 	add.w	r4, r4, #1048576	; 0x100000
 800bcc2:	ea54 0305 	orrs.w	r3, r4, r5
 800bcc6:	d106      	bne.n	800bcd6 <__ieee754_pow+0x1b6>
 800bcc8:	ed9d 7b00 	vldr	d7, [sp]
 800bccc:	ee37 7b47 	vsub.f64	d7, d7, d7
 800bcd0:	ee87 7b07 	vdiv.f64	d7, d7, d7
 800bcd4:	e78d      	b.n	800bbf2 <__ieee754_pow+0xd2>
 800bcd6:	2d01      	cmp	r5, #1
 800bcd8:	d1b5      	bne.n	800bc46 <__ieee754_pow+0x126>
 800bcda:	ed9d 7b00 	vldr	d7, [sp]
 800bcde:	eeb1 7b47 	vneg.f64	d7, d7
 800bce2:	e786      	b.n	800bbf2 <__ieee754_pow+0xd2>
 800bce4:	ea4f 7ada 	mov.w	sl, sl, lsr #31
 800bce8:	f10a 3aff 	add.w	sl, sl, #4294967295	; 0xffffffff
 800bcec:	ea55 030a 	orrs.w	r3, r5, sl
 800bcf0:	d104      	bne.n	800bcfc <__ieee754_pow+0x1dc>
 800bcf2:	ee38 8b48 	vsub.f64	d8, d8, d8
 800bcf6:	ee88 7b08 	vdiv.f64	d7, d8, d8
 800bcfa:	e77a      	b.n	800bbf2 <__ieee754_pow+0xd2>
 800bcfc:	4b52      	ldr	r3, [pc, #328]	; (800be48 <__ieee754_pow+0x328>)
 800bcfe:	4598      	cmp	r8, r3
 800bd00:	f340 80a8 	ble.w	800be54 <__ieee754_pow+0x334>
 800bd04:	f103 7304 	add.w	r3, r3, #34603008	; 0x2100000
 800bd08:	4598      	cmp	r8, r3
 800bd0a:	dd0b      	ble.n	800bd24 <__ieee754_pow+0x204>
 800bd0c:	4b4b      	ldr	r3, [pc, #300]	; (800be3c <__ieee754_pow+0x31c>)
 800bd0e:	429c      	cmp	r4, r3
 800bd10:	dc0e      	bgt.n	800bd30 <__ieee754_pow+0x210>
 800bd12:	f1b9 0f00 	cmp.w	r9, #0
 800bd16:	f6bf af6a 	bge.w	800bbee <__ieee754_pow+0xce>
 800bd1a:	ed9f 7b3b 	vldr	d7, [pc, #236]	; 800be08 <__ieee754_pow+0x2e8>
 800bd1e:	ee27 7b07 	vmul.f64	d7, d7, d7
 800bd22:	e766      	b.n	800bbf2 <__ieee754_pow+0xd2>
 800bd24:	4b49      	ldr	r3, [pc, #292]	; (800be4c <__ieee754_pow+0x32c>)
 800bd26:	429c      	cmp	r4, r3
 800bd28:	ddf3      	ble.n	800bd12 <__ieee754_pow+0x1f2>
 800bd2a:	4b45      	ldr	r3, [pc, #276]	; (800be40 <__ieee754_pow+0x320>)
 800bd2c:	429c      	cmp	r4, r3
 800bd2e:	dd03      	ble.n	800bd38 <__ieee754_pow+0x218>
 800bd30:	f1b9 0f00 	cmp.w	r9, #0
 800bd34:	dcf1      	bgt.n	800bd1a <__ieee754_pow+0x1fa>
 800bd36:	e75a      	b.n	800bbee <__ieee754_pow+0xce>
 800bd38:	ed9d 7b00 	vldr	d7, [sp]
 800bd3c:	eeb7 6b00 	vmov.f64	d6, #112	; 0x3f800000  1.0
 800bd40:	ed9f 5b33 	vldr	d5, [pc, #204]	; 800be10 <__ieee754_pow+0x2f0>
 800bd44:	ee37 6b46 	vsub.f64	d6, d7, d6
 800bd48:	eeb5 7b00 	vmov.f64	d7, #80	; 0x3e800000  0.250
 800bd4c:	eeb1 3b46 	vneg.f64	d3, d6
 800bd50:	eea3 5b07 	vfma.f64	d5, d3, d7
 800bd54:	eeb6 7b00 	vmov.f64	d7, #96	; 0x3f000000  0.5
 800bd58:	eea5 7b46 	vfms.f64	d7, d5, d6
 800bd5c:	ee26 5b06 	vmul.f64	d5, d6, d6
 800bd60:	ee27 5b05 	vmul.f64	d5, d7, d5
 800bd64:	ed9f 7b2c 	vldr	d7, [pc, #176]	; 800be18 <__ieee754_pow+0x2f8>
 800bd68:	ee27 7b45 	vnmul.f64	d7, d7, d5
 800bd6c:	ed9f 5b2c 	vldr	d5, [pc, #176]	; 800be20 <__ieee754_pow+0x300>
 800bd70:	eea6 7b05 	vfma.f64	d7, d6, d5
 800bd74:	ed9f 5b2c 	vldr	d5, [pc, #176]	; 800be28 <__ieee754_pow+0x308>
 800bd78:	eeb0 4b47 	vmov.f64	d4, d7
 800bd7c:	eea6 4b05 	vfma.f64	d4, d6, d5
 800bd80:	ec53 2b14 	vmov	r2, r3, d4
 800bd84:	2200      	movs	r2, #0
 800bd86:	ec43 2b14 	vmov	d4, r2, r3
 800bd8a:	eeb0 6b44 	vmov.f64	d6, d4
 800bd8e:	eea3 6b05 	vfma.f64	d6, d3, d5
 800bd92:	ee37 7b46 	vsub.f64	d7, d7, d6
 800bd96:	3d01      	subs	r5, #1
 800bd98:	ea55 030a 	orrs.w	r3, r5, sl
 800bd9c:	f04f 0200 	mov.w	r2, #0
 800bda0:	463b      	mov	r3, r7
 800bda2:	eebf 6b00 	vmov.f64	d6, #240	; 0xbf800000 -1.0
 800bda6:	eeb7 8b00 	vmov.f64	d8, #112	; 0x3f800000  1.0
 800bdaa:	ec47 6b15 	vmov	d5, r6, r7
 800bdae:	fe06 8b08 	vseleq.f64	d8, d6, d8
 800bdb2:	ec47 6b13 	vmov	d3, r6, r7
 800bdb6:	ec43 2b16 	vmov	d6, r2, r3
 800bdba:	ee27 7b03 	vmul.f64	d7, d7, d3
 800bdbe:	ee35 5b46 	vsub.f64	d5, d5, d6
 800bdc2:	4b23      	ldr	r3, [pc, #140]	; (800be50 <__ieee754_pow+0x330>)
 800bdc4:	eea5 7b04 	vfma.f64	d7, d5, d4
 800bdc8:	ee24 6b06 	vmul.f64	d6, d4, d6
 800bdcc:	ee37 5b06 	vadd.f64	d5, d7, d6
 800bdd0:	ee15 1a90 	vmov	r1, s11
 800bdd4:	4299      	cmp	r1, r3
 800bdd6:	ee15 2a10 	vmov	r2, s10
 800bdda:	f340 819b 	ble.w	800c114 <__ieee754_pow+0x5f4>
 800bdde:	f101 433f 	add.w	r3, r1, #3204448256	; 0xbf000000
 800bde2:	f503 03e0 	add.w	r3, r3, #7340032	; 0x700000
 800bde6:	4313      	orrs	r3, r2
 800bde8:	f000 810a 	beq.w	800c000 <__ieee754_pow+0x4e0>
 800bdec:	ed9f 7b06 	vldr	d7, [pc, #24]	; 800be08 <__ieee754_pow+0x2e8>
 800bdf0:	ee28 8b07 	vmul.f64	d8, d8, d7
 800bdf4:	ee28 7b07 	vmul.f64	d7, d8, d7
 800bdf8:	e6fb      	b.n	800bbf2 <__ieee754_pow+0xd2>
 800bdfa:	bf00      	nop
 800bdfc:	f3af 8000 	nop.w
	...
 800be08:	8800759c 	.word	0x8800759c
 800be0c:	7e37e43c 	.word	0x7e37e43c
 800be10:	55555555 	.word	0x55555555
 800be14:	3fd55555 	.word	0x3fd55555
 800be18:	652b82fe 	.word	0x652b82fe
 800be1c:	3ff71547 	.word	0x3ff71547
 800be20:	f85ddf44 	.word	0xf85ddf44
 800be24:	3e54ae0b 	.word	0x3e54ae0b
 800be28:	60000000 	.word	0x60000000
 800be2c:	3ff71547 	.word	0x3ff71547
 800be30:	7ff00000 	.word	0x7ff00000
 800be34:	0800d3d1 	.word	0x0800d3d1
 800be38:	433fffff 	.word	0x433fffff
 800be3c:	3fefffff 	.word	0x3fefffff
 800be40:	3ff00000 	.word	0x3ff00000
 800be44:	3fe00000 	.word	0x3fe00000
 800be48:	41e00000 	.word	0x41e00000
 800be4c:	3feffffe 	.word	0x3feffffe
 800be50:	408fffff 	.word	0x408fffff
 800be54:	f5b4 1f80 	cmp.w	r4, #1048576	; 0x100000
 800be58:	f280 80ce 	bge.w	800bff8 <__ieee754_pow+0x4d8>
 800be5c:	ed9d 6b00 	vldr	d6, [sp]
 800be60:	ed9f 7bc1 	vldr	d7, [pc, #772]	; 800c168 <__ieee754_pow+0x648>
 800be64:	ee26 7b07 	vmul.f64	d7, d6, d7
 800be68:	ed8d 7b00 	vstr	d7, [sp]
 800be6c:	9c01      	ldr	r4, [sp, #4]
 800be6e:	f06f 0334 	mvn.w	r3, #52	; 0x34
 800be72:	1521      	asrs	r1, r4, #20
 800be74:	f2a1 31ff 	subw	r1, r1, #1023	; 0x3ff
 800be78:	4419      	add	r1, r3
 800be7a:	4be3      	ldr	r3, [pc, #908]	; (800c208 <__ieee754_pow+0x6e8>)
 800be7c:	f3c4 0413 	ubfx	r4, r4, #0, #20
 800be80:	f044 507f 	orr.w	r0, r4, #1069547520	; 0x3fc00000
 800be84:	429c      	cmp	r4, r3
 800be86:	f440 1040 	orr.w	r0, r0, #3145728	; 0x300000
 800be8a:	dd06      	ble.n	800be9a <__ieee754_pow+0x37a>
 800be8c:	4bdf      	ldr	r3, [pc, #892]	; (800c20c <__ieee754_pow+0x6ec>)
 800be8e:	429c      	cmp	r4, r3
 800be90:	f340 80b4 	ble.w	800bffc <__ieee754_pow+0x4dc>
 800be94:	3101      	adds	r1, #1
 800be96:	f5a0 1080 	sub.w	r0, r0, #1048576	; 0x100000
 800be9a:	2400      	movs	r4, #0
 800be9c:	e9dd 2300 	ldrd	r2, r3, [sp]
 800bea0:	eeb7 4b00 	vmov.f64	d4, #112	; 0x3f800000  1.0
 800bea4:	4603      	mov	r3, r0
 800bea6:	ec43 2b17 	vmov	d7, r2, r3
 800beaa:	4bd9      	ldr	r3, [pc, #868]	; (800c210 <__ieee754_pow+0x6f0>)
 800beac:	ea4f 0cc4 	mov.w	ip, r4, lsl #3
 800beb0:	4463      	add	r3, ip
 800beb2:	ed93 5b00 	vldr	d5, [r3]
 800beb6:	1040      	asrs	r0, r0, #1
 800beb8:	ee37 2b45 	vsub.f64	d2, d7, d5
 800bebc:	ee35 6b07 	vadd.f64	d6, d5, d7
 800bec0:	ee84 1b06 	vdiv.f64	d1, d4, d6
 800bec4:	ee22 6b01 	vmul.f64	d6, d2, d1
 800bec8:	ed8d 6b00 	vstr	d6, [sp]
 800becc:	e9dd 8900 	ldrd	r8, r9, [sp]
 800bed0:	f040 5000 	orr.w	r0, r0, #536870912	; 0x20000000
 800bed4:	f500 2000 	add.w	r0, r0, #524288	; 0x80000
 800bed8:	f04f 0800 	mov.w	r8, #0
 800bedc:	eb00 4384 	add.w	r3, r0, r4, lsl #18
 800bee0:	2200      	movs	r2, #0
 800bee2:	ec49 8b14 	vmov	d4, r8, r9
 800bee6:	ec43 2b16 	vmov	d6, r2, r3
 800beea:	eeb1 3b44 	vneg.f64	d3, d4
 800beee:	eea3 2b06 	vfma.f64	d2, d3, d6
 800bef2:	ee36 6b45 	vsub.f64	d6, d6, d5
 800bef6:	ee37 7b46 	vsub.f64	d7, d7, d6
 800befa:	eea3 2b07 	vfma.f64	d2, d3, d7
 800befe:	ed9d 7b00 	vldr	d7, [sp]
 800bf02:	ee22 2b01 	vmul.f64	d2, d2, d1
 800bf06:	ee27 5b07 	vmul.f64	d5, d7, d7
 800bf0a:	ee37 6b04 	vadd.f64	d6, d7, d4
 800bf0e:	ed9f 1b98 	vldr	d1, [pc, #608]	; 800c170 <__ieee754_pow+0x650>
 800bf12:	ee25 0b05 	vmul.f64	d0, d5, d5
 800bf16:	ee26 6b02 	vmul.f64	d6, d6, d2
 800bf1a:	ed9f 7b97 	vldr	d7, [pc, #604]	; 800c178 <__ieee754_pow+0x658>
 800bf1e:	eea5 7b01 	vfma.f64	d7, d5, d1
 800bf22:	ed9f 1b97 	vldr	d1, [pc, #604]	; 800c180 <__ieee754_pow+0x660>
 800bf26:	eea7 1b05 	vfma.f64	d1, d7, d5
 800bf2a:	ed9f 7b97 	vldr	d7, [pc, #604]	; 800c188 <__ieee754_pow+0x668>
 800bf2e:	eea1 7b05 	vfma.f64	d7, d1, d5
 800bf32:	ed9f 1b97 	vldr	d1, [pc, #604]	; 800c190 <__ieee754_pow+0x670>
 800bf36:	eea7 1b05 	vfma.f64	d1, d7, d5
 800bf3a:	ed9f 7b97 	vldr	d7, [pc, #604]	; 800c198 <__ieee754_pow+0x678>
 800bf3e:	eea1 7b05 	vfma.f64	d7, d1, d5
 800bf42:	eea0 6b07 	vfma.f64	d6, d0, d7
 800bf46:	eeb0 7b08 	vmov.f64	d7, #8	; 0x40400000  3.0
 800bf4a:	eeb0 5b47 	vmov.f64	d5, d7
 800bf4e:	eea4 5b04 	vfma.f64	d5, d4, d4
 800bf52:	ee35 5b06 	vadd.f64	d5, d5, d6
 800bf56:	ed8d 5b02 	vstr	d5, [sp, #8]
 800bf5a:	f8cd 8008 	str.w	r8, [sp, #8]
 800bf5e:	ed9d 5b02 	vldr	d5, [sp, #8]
 800bf62:	ee35 7b47 	vsub.f64	d7, d5, d7
 800bf66:	eea3 7b04 	vfma.f64	d7, d3, d4
 800bf6a:	ee36 7b47 	vsub.f64	d7, d6, d7
 800bf6e:	ed9d 6b00 	vldr	d6, [sp]
 800bf72:	ee27 7b06 	vmul.f64	d7, d7, d6
 800bf76:	eea2 7b05 	vfma.f64	d7, d2, d5
 800bf7a:	eeb0 6b47 	vmov.f64	d6, d7
 800bf7e:	eea4 6b05 	vfma.f64	d6, d4, d5
 800bf82:	ed8d 6b00 	vstr	d6, [sp]
 800bf86:	f8cd 8000 	str.w	r8, [sp]
 800bf8a:	ed9d 2b00 	vldr	d2, [sp]
 800bf8e:	eeb0 6b42 	vmov.f64	d6, d2
 800bf92:	eea3 6b05 	vfma.f64	d6, d3, d5
 800bf96:	ee37 7b46 	vsub.f64	d7, d7, d6
 800bf9a:	ed9f 6b81 	vldr	d6, [pc, #516]	; 800c1a0 <__ieee754_pow+0x680>
 800bf9e:	4b9d      	ldr	r3, [pc, #628]	; (800c214 <__ieee754_pow+0x6f4>)
 800bfa0:	ee27 7b06 	vmul.f64	d7, d7, d6
 800bfa4:	ed9f 6b80 	vldr	d6, [pc, #512]	; 800c1a8 <__ieee754_pow+0x688>
 800bfa8:	4463      	add	r3, ip
 800bfaa:	eea2 7b06 	vfma.f64	d7, d2, d6
 800bfae:	ed93 6b00 	vldr	d6, [r3]
 800bfb2:	4b99      	ldr	r3, [pc, #612]	; (800c218 <__ieee754_pow+0x6f8>)
 800bfb4:	ee37 6b06 	vadd.f64	d6, d7, d6
 800bfb8:	449c      	add	ip, r3
 800bfba:	ed9c 1b00 	vldr	d1, [ip]
 800bfbe:	eeb0 4b46 	vmov.f64	d4, d6
 800bfc2:	ed9f 3b7b 	vldr	d3, [pc, #492]	; 800c1b0 <__ieee754_pow+0x690>
 800bfc6:	ee07 1a90 	vmov	s15, r1
 800bfca:	eea2 4b03 	vfma.f64	d4, d2, d3
 800bfce:	eeb8 7be7 	vcvt.f64.s32	d7, s15
 800bfd2:	ee34 4b01 	vadd.f64	d4, d4, d1
 800bfd6:	ee34 5b07 	vadd.f64	d5, d4, d7
 800bfda:	ed8d 5b00 	vstr	d5, [sp]
 800bfde:	f8cd 8000 	str.w	r8, [sp]
 800bfe2:	ed9d 4b00 	vldr	d4, [sp]
 800bfe6:	ee34 7b47 	vsub.f64	d7, d4, d7
 800bfea:	ee37 7b41 	vsub.f64	d7, d7, d1
 800bfee:	eea2 7b43 	vfms.f64	d7, d2, d3
 800bff2:	ee36 7b47 	vsub.f64	d7, d6, d7
 800bff6:	e6ce      	b.n	800bd96 <__ieee754_pow+0x276>
 800bff8:	2300      	movs	r3, #0
 800bffa:	e73a      	b.n	800be72 <__ieee754_pow+0x352>
 800bffc:	2401      	movs	r4, #1
 800bffe:	e74d      	b.n	800be9c <__ieee754_pow+0x37c>
 800c000:	ed9f 4b6d 	vldr	d4, [pc, #436]	; 800c1b8 <__ieee754_pow+0x698>
 800c004:	ee35 5b46 	vsub.f64	d5, d5, d6
 800c008:	ee37 4b04 	vadd.f64	d4, d7, d4
 800c00c:	eeb4 4bc5 	vcmpe.f64	d4, d5
 800c010:	eef1 fa10 	vmrs	APSR_nzcv, fpscr
 800c014:	f73f aeea 	bgt.w	800bdec <__ieee754_pow+0x2cc>
 800c018:	4a80      	ldr	r2, [pc, #512]	; (800c21c <__ieee754_pow+0x6fc>)
 800c01a:	f021 4300 	bic.w	r3, r1, #2147483648	; 0x80000000
 800c01e:	4293      	cmp	r3, r2
 800c020:	f340 808e 	ble.w	800c140 <__ieee754_pow+0x620>
 800c024:	151b      	asrs	r3, r3, #20
 800c026:	f2a3 30fe 	subw	r0, r3, #1022	; 0x3fe
 800c02a:	f44f 1380 	mov.w	r3, #1048576	; 0x100000
 800c02e:	4103      	asrs	r3, r0
 800c030:	440b      	add	r3, r1
 800c032:	f3c3 520a 	ubfx	r2, r3, #20, #11
 800c036:	487a      	ldr	r0, [pc, #488]	; (800c220 <__ieee754_pow+0x700>)
 800c038:	f2a2 32ff 	subw	r2, r2, #1023	; 0x3ff
 800c03c:	4110      	asrs	r0, r2
 800c03e:	ea23 0500 	bic.w	r5, r3, r0
 800c042:	f3c3 0013 	ubfx	r0, r3, #0, #20
 800c046:	2400      	movs	r4, #0
 800c048:	f440 1080 	orr.w	r0, r0, #1048576	; 0x100000
 800c04c:	f1c2 0214 	rsb	r2, r2, #20
 800c050:	ec45 4b15 	vmov	d5, r4, r5
 800c054:	4110      	asrs	r0, r2
 800c056:	2900      	cmp	r1, #0
 800c058:	bfb8      	it	lt
 800c05a:	4240      	neglt	r0, r0
 800c05c:	ee36 6b45 	vsub.f64	d6, d6, d5
 800c060:	ee36 5b07 	vadd.f64	d5, d6, d7
 800c064:	ec53 2b15 	vmov	r2, r3, d5
 800c068:	2200      	movs	r2, #0
 800c06a:	ec43 2b15 	vmov	d5, r2, r3
 800c06e:	ed9f 4b54 	vldr	d4, [pc, #336]	; 800c1c0 <__ieee754_pow+0x6a0>
 800c072:	ee35 6b46 	vsub.f64	d6, d5, d6
 800c076:	ee37 6b46 	vsub.f64	d6, d7, d6
 800c07a:	ed9f 7b53 	vldr	d7, [pc, #332]	; 800c1c8 <__ieee754_pow+0x6a8>
 800c07e:	ee25 7b07 	vmul.f64	d7, d5, d7
 800c082:	eea6 7b04 	vfma.f64	d7, d6, d4
 800c086:	ed9f 6b52 	vldr	d6, [pc, #328]	; 800c1d0 <__ieee754_pow+0x6b0>
 800c08a:	eeb0 4b47 	vmov.f64	d4, d7
 800c08e:	eea5 4b06 	vfma.f64	d4, d5, d6
 800c092:	eeb0 3b44 	vmov.f64	d3, d4
 800c096:	eea5 3b46 	vfms.f64	d3, d5, d6
 800c09a:	ed9f 5b4f 	vldr	d5, [pc, #316]	; 800c1d8 <__ieee754_pow+0x6b8>
 800c09e:	ee37 7b43 	vsub.f64	d7, d7, d3
 800c0a2:	ee24 6b04 	vmul.f64	d6, d4, d4
 800c0a6:	ed9f 3b4e 	vldr	d3, [pc, #312]	; 800c1e0 <__ieee754_pow+0x6c0>
 800c0aa:	eea4 7b07 	vfma.f64	d7, d4, d7
 800c0ae:	eea6 3b05 	vfma.f64	d3, d6, d5
 800c0b2:	ed9f 5b4d 	vldr	d5, [pc, #308]	; 800c1e8 <__ieee754_pow+0x6c8>
 800c0b6:	eea3 5b06 	vfma.f64	d5, d3, d6
 800c0ba:	ed9f 3b4d 	vldr	d3, [pc, #308]	; 800c1f0 <__ieee754_pow+0x6d0>
 800c0be:	eea5 3b06 	vfma.f64	d3, d5, d6
 800c0c2:	ed9f 5b4d 	vldr	d5, [pc, #308]	; 800c1f8 <__ieee754_pow+0x6d8>
 800c0c6:	eea3 5b06 	vfma.f64	d5, d3, d6
 800c0ca:	eeb0 3b44 	vmov.f64	d3, d4
 800c0ce:	eea5 3b46 	vfms.f64	d3, d5, d6
 800c0d2:	eeb0 5b00 	vmov.f64	d5, #0	; 0x40000000  2.0
 800c0d6:	eeb0 6b43 	vmov.f64	d6, d3
 800c0da:	ee24 3b03 	vmul.f64	d3, d4, d3
 800c0de:	ee36 5b45 	vsub.f64	d5, d6, d5
 800c0e2:	ee83 6b05 	vdiv.f64	d6, d3, d5
 800c0e6:	ee36 7b47 	vsub.f64	d7, d6, d7
 800c0ea:	eeb7 6b00 	vmov.f64	d6, #112	; 0x3f800000  1.0
 800c0ee:	ee37 7b44 	vsub.f64	d7, d7, d4
 800c0f2:	ee36 7b47 	vsub.f64	d7, d6, d7
 800c0f6:	ed8d 7b00 	vstr	d7, [sp]
 800c0fa:	9901      	ldr	r1, [sp, #4]
 800c0fc:	eb01 5100 	add.w	r1, r1, r0, lsl #20
 800c100:	f5b1 1f80 	cmp.w	r1, #1048576	; 0x100000
 800c104:	da1e      	bge.n	800c144 <__ieee754_pow+0x624>
 800c106:	eeb0 0b47 	vmov.f64	d0, d7
 800c10a:	f000 fe55 	bl	800cdb8 <scalbn>
 800c10e:	ee20 7b08 	vmul.f64	d7, d0, d8
 800c112:	e56e      	b.n	800bbf2 <__ieee754_pow+0xd2>
 800c114:	4b43      	ldr	r3, [pc, #268]	; (800c224 <__ieee754_pow+0x704>)
 800c116:	f021 4000 	bic.w	r0, r1, #2147483648	; 0x80000000
 800c11a:	4298      	cmp	r0, r3
 800c11c:	f77f af7c 	ble.w	800c018 <__ieee754_pow+0x4f8>
 800c120:	4b41      	ldr	r3, [pc, #260]	; (800c228 <__ieee754_pow+0x708>)
 800c122:	440b      	add	r3, r1
 800c124:	4313      	orrs	r3, r2
 800c126:	d002      	beq.n	800c12e <__ieee754_pow+0x60e>
 800c128:	ed9f 7b35 	vldr	d7, [pc, #212]	; 800c200 <__ieee754_pow+0x6e0>
 800c12c:	e660      	b.n	800bdf0 <__ieee754_pow+0x2d0>
 800c12e:	ee35 5b46 	vsub.f64	d5, d5, d6
 800c132:	eeb4 5bc7 	vcmpe.f64	d5, d7
 800c136:	eef1 fa10 	vmrs	APSR_nzcv, fpscr
 800c13a:	f6ff af6d 	blt.w	800c018 <__ieee754_pow+0x4f8>
 800c13e:	e7f3      	b.n	800c128 <__ieee754_pow+0x608>
 800c140:	2000      	movs	r0, #0
 800c142:	e78d      	b.n	800c060 <__ieee754_pow+0x540>
 800c144:	e9dd 2300 	ldrd	r2, r3, [sp]
 800c148:	460b      	mov	r3, r1
 800c14a:	ec43 2b10 	vmov	d0, r2, r3
 800c14e:	e7de      	b.n	800c10e <__ieee754_pow+0x5ee>
 800c150:	eeb7 7b00 	vmov.f64	d7, #112	; 0x3f800000  1.0
 800c154:	e54d      	b.n	800bbf2 <__ieee754_pow+0xd2>
 800c156:	e9cd 6700 	strd	r6, r7, [sp]
 800c15a:	e574      	b.n	800bc46 <__ieee754_pow+0x126>
 800c15c:	ed8d 8b00 	vstr	d8, [sp]
 800c160:	e571      	b.n	800bc46 <__ieee754_pow+0x126>
 800c162:	4615      	mov	r5, r2
 800c164:	e557      	b.n	800bc16 <__ieee754_pow+0xf6>
 800c166:	bf00      	nop
 800c168:	00000000 	.word	0x00000000
 800c16c:	43400000 	.word	0x43400000
 800c170:	4a454eef 	.word	0x4a454eef
 800c174:	3fca7e28 	.word	0x3fca7e28
 800c178:	93c9db65 	.word	0x93c9db65
 800c17c:	3fcd864a 	.word	0x3fcd864a
 800c180:	a91d4101 	.word	0xa91d4101
 800c184:	3fd17460 	.word	0x3fd17460
 800c188:	518f264d 	.word	0x518f264d
 800c18c:	3fd55555 	.word	0x3fd55555
 800c190:	db6fabff 	.word	0xdb6fabff
 800c194:	3fdb6db6 	.word	0x3fdb6db6
 800c198:	33333303 	.word	0x33333303
 800c19c:	3fe33333 	.word	0x3fe33333
 800c1a0:	dc3a03fd 	.word	0xdc3a03fd
 800c1a4:	3feec709 	.word	0x3feec709
 800c1a8:	145b01f5 	.word	0x145b01f5
 800c1ac:	be3e2fe0 	.word	0xbe3e2fe0
 800c1b0:	e0000000 	.word	0xe0000000
 800c1b4:	3feec709 	.word	0x3feec709
 800c1b8:	652b82fe 	.word	0x652b82fe
 800c1bc:	3c971547 	.word	0x3c971547
 800c1c0:	fefa39ef 	.word	0xfefa39ef
 800c1c4:	3fe62e42 	.word	0x3fe62e42
 800c1c8:	0ca86c39 	.word	0x0ca86c39
 800c1cc:	be205c61 	.word	0xbe205c61
 800c1d0:	00000000 	.word	0x00000000
 800c1d4:	3fe62e43 	.word	0x3fe62e43
 800c1d8:	72bea4d0 	.word	0x72bea4d0
 800c1dc:	3e663769 	.word	0x3e663769
 800c1e0:	c5d26bf1 	.word	0xc5d26bf1
 800c1e4:	bebbbd41 	.word	0xbebbbd41
 800c1e8:	af25de2c 	.word	0xaf25de2c
 800c1ec:	3f11566a 	.word	0x3f11566a
 800c1f0:	16bebd93 	.word	0x16bebd93
 800c1f4:	bf66c16c 	.word	0xbf66c16c
 800c1f8:	5555553e 	.word	0x5555553e
 800c1fc:	3fc55555 	.word	0x3fc55555
 800c200:	c2f8f359 	.word	0xc2f8f359
 800c204:	01a56e1f 	.word	0x01a56e1f
 800c208:	0003988e 	.word	0x0003988e
 800c20c:	000bb679 	.word	0x000bb679
 800c210:	0800d408 	.word	0x0800d408
 800c214:	0800d428 	.word	0x0800d428
 800c218:	0800d418 	.word	0x0800d418
 800c21c:	3fe00000 	.word	0x3fe00000
 800c220:	000fffff 	.word	0x000fffff
 800c224:	4090cbff 	.word	0x4090cbff
 800c228:	3f6f3400 	.word	0x3f6f3400
 800c22c:	00000000 	.word	0x00000000

0800c230 <__ieee754_rem_pio2>:
 800c230:	b570      	push	{r4, r5, r6, lr}
 800c232:	eeb0 7b40 	vmov.f64	d7, d0
 800c236:	ee17 5a90 	vmov	r5, s15
 800c23a:	4b95      	ldr	r3, [pc, #596]	; (800c490 <__ieee754_rem_pio2+0x260>)
 800c23c:	f025 4600 	bic.w	r6, r5, #2147483648	; 0x80000000
 800c240:	429e      	cmp	r6, r3
 800c242:	b088      	sub	sp, #32
 800c244:	4604      	mov	r4, r0
 800c246:	dc07      	bgt.n	800c258 <__ieee754_rem_pio2+0x28>
 800c248:	2200      	movs	r2, #0
 800c24a:	2300      	movs	r3, #0
 800c24c:	ed84 0b00 	vstr	d0, [r4]
 800c250:	e9c0 2302 	strd	r2, r3, [r0, #8]
 800c254:	2000      	movs	r0, #0
 800c256:	e01b      	b.n	800c290 <__ieee754_rem_pio2+0x60>
 800c258:	4b8e      	ldr	r3, [pc, #568]	; (800c494 <__ieee754_rem_pio2+0x264>)
 800c25a:	429e      	cmp	r6, r3
 800c25c:	dc3b      	bgt.n	800c2d6 <__ieee754_rem_pio2+0xa6>
 800c25e:	f5a3 231b 	sub.w	r3, r3, #634880	; 0x9b000
 800c262:	2d00      	cmp	r5, #0
 800c264:	ed9f 6b7a 	vldr	d6, [pc, #488]	; 800c450 <__ieee754_rem_pio2+0x220>
 800c268:	f5a3 63f0 	sub.w	r3, r3, #1920	; 0x780
 800c26c:	dd19      	ble.n	800c2a2 <__ieee754_rem_pio2+0x72>
 800c26e:	ee30 7b46 	vsub.f64	d7, d0, d6
 800c272:	429e      	cmp	r6, r3
 800c274:	d00e      	beq.n	800c294 <__ieee754_rem_pio2+0x64>
 800c276:	ed9f 6b78 	vldr	d6, [pc, #480]	; 800c458 <__ieee754_rem_pio2+0x228>
 800c27a:	ee37 5b46 	vsub.f64	d5, d7, d6
 800c27e:	ee37 7b45 	vsub.f64	d7, d7, d5
 800c282:	ed84 5b00 	vstr	d5, [r4]
 800c286:	ee37 7b46 	vsub.f64	d7, d7, d6
 800c28a:	ed84 7b02 	vstr	d7, [r4, #8]
 800c28e:	2001      	movs	r0, #1
 800c290:	b008      	add	sp, #32
 800c292:	bd70      	pop	{r4, r5, r6, pc}
 800c294:	ed9f 6b72 	vldr	d6, [pc, #456]	; 800c460 <__ieee754_rem_pio2+0x230>
 800c298:	ee37 7b46 	vsub.f64	d7, d7, d6
 800c29c:	ed9f 6b72 	vldr	d6, [pc, #456]	; 800c468 <__ieee754_rem_pio2+0x238>
 800c2a0:	e7eb      	b.n	800c27a <__ieee754_rem_pio2+0x4a>
 800c2a2:	429e      	cmp	r6, r3
 800c2a4:	ee30 7b06 	vadd.f64	d7, d0, d6
 800c2a8:	d00e      	beq.n	800c2c8 <__ieee754_rem_pio2+0x98>
 800c2aa:	ed9f 6b6b 	vldr	d6, [pc, #428]	; 800c458 <__ieee754_rem_pio2+0x228>
 800c2ae:	ee37 5b06 	vadd.f64	d5, d7, d6
 800c2b2:	ee37 7b45 	vsub.f64	d7, d7, d5
 800c2b6:	ed84 5b00 	vstr	d5, [r4]
 800c2ba:	ee37 7b06 	vadd.f64	d7, d7, d6
 800c2be:	f04f 30ff 	mov.w	r0, #4294967295	; 0xffffffff
 800c2c2:	ed84 7b02 	vstr	d7, [r4, #8]
 800c2c6:	e7e3      	b.n	800c290 <__ieee754_rem_pio2+0x60>
 800c2c8:	ed9f 6b65 	vldr	d6, [pc, #404]	; 800c460 <__ieee754_rem_pio2+0x230>
 800c2cc:	ee37 7b06 	vadd.f64	d7, d7, d6
 800c2d0:	ed9f 6b65 	vldr	d6, [pc, #404]	; 800c468 <__ieee754_rem_pio2+0x238>
 800c2d4:	e7eb      	b.n	800c2ae <__ieee754_rem_pio2+0x7e>
 800c2d6:	4b70      	ldr	r3, [pc, #448]	; (800c498 <__ieee754_rem_pio2+0x268>)
 800c2d8:	429e      	cmp	r6, r3
 800c2da:	dc6c      	bgt.n	800c3b6 <__ieee754_rem_pio2+0x186>
 800c2dc:	f000 fc48 	bl	800cb70 <fabs>
 800c2e0:	eeb6 7b00 	vmov.f64	d7, #96	; 0x3f000000  0.5
 800c2e4:	ed9f 6b62 	vldr	d6, [pc, #392]	; 800c470 <__ieee754_rem_pio2+0x240>
 800c2e8:	eea0 7b06 	vfma.f64	d7, d0, d6
 800c2ec:	eefd 7bc7 	vcvt.s32.f64	s15, d7
 800c2f0:	eeb8 4be7 	vcvt.f64.s32	d4, s15
 800c2f4:	ee17 0a90 	vmov	r0, s15
 800c2f8:	eeb1 5b44 	vneg.f64	d5, d4
 800c2fc:	ed9f 7b54 	vldr	d7, [pc, #336]	; 800c450 <__ieee754_rem_pio2+0x220>
 800c300:	eea5 0b07 	vfma.f64	d0, d5, d7
 800c304:	ed9f 7b54 	vldr	d7, [pc, #336]	; 800c458 <__ieee754_rem_pio2+0x228>
 800c308:	281f      	cmp	r0, #31
 800c30a:	ee24 7b07 	vmul.f64	d7, d4, d7
 800c30e:	ee30 6b47 	vsub.f64	d6, d0, d7
 800c312:	dc08      	bgt.n	800c326 <__ieee754_rem_pio2+0xf6>
 800c314:	1e42      	subs	r2, r0, #1
 800c316:	4b61      	ldr	r3, [pc, #388]	; (800c49c <__ieee754_rem_pio2+0x26c>)
 800c318:	f853 3022 	ldr.w	r3, [r3, r2, lsl #2]
 800c31c:	42b3      	cmp	r3, r6
 800c31e:	d002      	beq.n	800c326 <__ieee754_rem_pio2+0xf6>
 800c320:	ed84 6b00 	vstr	d6, [r4]
 800c324:	e022      	b.n	800c36c <__ieee754_rem_pio2+0x13c>
 800c326:	ee16 3a90 	vmov	r3, s13
 800c32a:	1536      	asrs	r6, r6, #20
 800c32c:	f3c3 530a 	ubfx	r3, r3, #20, #11
 800c330:	1af3      	subs	r3, r6, r3
 800c332:	2b10      	cmp	r3, #16
 800c334:	ddf4      	ble.n	800c320 <__ieee754_rem_pio2+0xf0>
 800c336:	eeb0 6b40 	vmov.f64	d6, d0
 800c33a:	ed9f 3b49 	vldr	d3, [pc, #292]	; 800c460 <__ieee754_rem_pio2+0x230>
 800c33e:	eea5 6b03 	vfma.f64	d6, d5, d3
 800c342:	ee30 7b46 	vsub.f64	d7, d0, d6
 800c346:	eea5 7b03 	vfma.f64	d7, d5, d3
 800c34a:	ed9f 3b47 	vldr	d3, [pc, #284]	; 800c468 <__ieee754_rem_pio2+0x238>
 800c34e:	ee94 7b03 	vfnms.f64	d7, d4, d3
 800c352:	ee36 3b47 	vsub.f64	d3, d6, d7
 800c356:	ee13 3a90 	vmov	r3, s7
 800c35a:	f3c3 530a 	ubfx	r3, r3, #20, #11
 800c35e:	1af6      	subs	r6, r6, r3
 800c360:	2e31      	cmp	r6, #49	; 0x31
 800c362:	dc17      	bgt.n	800c394 <__ieee754_rem_pio2+0x164>
 800c364:	eeb0 0b46 	vmov.f64	d0, d6
 800c368:	ed84 3b00 	vstr	d3, [r4]
 800c36c:	ed94 6b00 	vldr	d6, [r4]
 800c370:	2d00      	cmp	r5, #0
 800c372:	ee30 0b46 	vsub.f64	d0, d0, d6
 800c376:	ee30 7b47 	vsub.f64	d7, d0, d7
 800c37a:	ed84 7b02 	vstr	d7, [r4, #8]
 800c37e:	da87      	bge.n	800c290 <__ieee754_rem_pio2+0x60>
 800c380:	eeb1 6b46 	vneg.f64	d6, d6
 800c384:	ed84 6b00 	vstr	d6, [r4]
 800c388:	eeb1 7b47 	vneg.f64	d7, d7
 800c38c:	4240      	negs	r0, r0
 800c38e:	ed84 7b02 	vstr	d7, [r4, #8]
 800c392:	e77d      	b.n	800c290 <__ieee754_rem_pio2+0x60>
 800c394:	ed9f 3b38 	vldr	d3, [pc, #224]	; 800c478 <__ieee754_rem_pio2+0x248>
 800c398:	eeb0 0b46 	vmov.f64	d0, d6
 800c39c:	eea5 0b03 	vfma.f64	d0, d5, d3
 800c3a0:	ee36 7b40 	vsub.f64	d7, d6, d0
 800c3a4:	ed9f 6b36 	vldr	d6, [pc, #216]	; 800c480 <__ieee754_rem_pio2+0x250>
 800c3a8:	eea5 7b03 	vfma.f64	d7, d5, d3
 800c3ac:	ee94 7b06 	vfnms.f64	d7, d4, d6
 800c3b0:	ee30 6b47 	vsub.f64	d6, d0, d7
 800c3b4:	e7b4      	b.n	800c320 <__ieee754_rem_pio2+0xf0>
 800c3b6:	4b3a      	ldr	r3, [pc, #232]	; (800c4a0 <__ieee754_rem_pio2+0x270>)
 800c3b8:	429e      	cmp	r6, r3
 800c3ba:	dd06      	ble.n	800c3ca <__ieee754_rem_pio2+0x19a>
 800c3bc:	ee30 7b40 	vsub.f64	d7, d0, d0
 800c3c0:	ed80 7b02 	vstr	d7, [r0, #8]
 800c3c4:	ed80 7b00 	vstr	d7, [r0]
 800c3c8:	e744      	b.n	800c254 <__ieee754_rem_pio2+0x24>
 800c3ca:	1532      	asrs	r2, r6, #20
 800c3cc:	f2a2 4216 	subw	r2, r2, #1046	; 0x416
 800c3d0:	ee10 0a10 	vmov	r0, s0
 800c3d4:	eba6 5102 	sub.w	r1, r6, r2, lsl #20
 800c3d8:	ec41 0b17 	vmov	d7, r0, r1
 800c3dc:	eebd 6bc7 	vcvt.s32.f64	s12, d7
 800c3e0:	ed9f 5b29 	vldr	d5, [pc, #164]	; 800c488 <__ieee754_rem_pio2+0x258>
 800c3e4:	eeb8 6bc6 	vcvt.f64.s32	d6, s12
 800c3e8:	ee37 7b46 	vsub.f64	d7, d7, d6
 800c3ec:	ed8d 6b02 	vstr	d6, [sp, #8]
 800c3f0:	ee27 7b05 	vmul.f64	d7, d7, d5
 800c3f4:	eebd 6bc7 	vcvt.s32.f64	s12, d7
 800c3f8:	a908      	add	r1, sp, #32
 800c3fa:	eeb8 6bc6 	vcvt.f64.s32	d6, s12
 800c3fe:	ee37 7b46 	vsub.f64	d7, d7, d6
 800c402:	ed8d 6b04 	vstr	d6, [sp, #16]
 800c406:	ee27 7b05 	vmul.f64	d7, d7, d5
 800c40a:	ed8d 7b06 	vstr	d7, [sp, #24]
 800c40e:	2303      	movs	r3, #3
 800c410:	ed31 7b02 	vldmdb	r1!, {d7}
 800c414:	eeb5 7b40 	vcmp.f64	d7, #0.0
 800c418:	eef1 fa10 	vmrs	APSR_nzcv, fpscr
 800c41c:	f103 30ff 	add.w	r0, r3, #4294967295	; 0xffffffff
 800c420:	d013      	beq.n	800c44a <__ieee754_rem_pio2+0x21a>
 800c422:	4920      	ldr	r1, [pc, #128]	; (800c4a4 <__ieee754_rem_pio2+0x274>)
 800c424:	9101      	str	r1, [sp, #4]
 800c426:	2102      	movs	r1, #2
 800c428:	9100      	str	r1, [sp, #0]
 800c42a:	a802      	add	r0, sp, #8
 800c42c:	4621      	mov	r1, r4
 800c42e:	f000 f8ab 	bl	800c588 <__kernel_rem_pio2>
 800c432:	2d00      	cmp	r5, #0
 800c434:	f6bf af2c 	bge.w	800c290 <__ieee754_rem_pio2+0x60>
 800c438:	ed94 7b00 	vldr	d7, [r4]
 800c43c:	eeb1 7b47 	vneg.f64	d7, d7
 800c440:	ed84 7b00 	vstr	d7, [r4]
 800c444:	ed94 7b02 	vldr	d7, [r4, #8]
 800c448:	e79e      	b.n	800c388 <__ieee754_rem_pio2+0x158>
 800c44a:	4603      	mov	r3, r0
 800c44c:	e7e0      	b.n	800c410 <__ieee754_rem_pio2+0x1e0>
 800c44e:	bf00      	nop
 800c450:	54400000 	.word	0x54400000
 800c454:	3ff921fb 	.word	0x3ff921fb
 800c458:	1a626331 	.word	0x1a626331
 800c45c:	3dd0b461 	.word	0x3dd0b461
 800c460:	1a600000 	.word	0x1a600000
 800c464:	3dd0b461 	.word	0x3dd0b461
 800c468:	2e037073 	.word	0x2e037073
 800c46c:	3ba3198a 	.word	0x3ba3198a
 800c470:	6dc9c883 	.word	0x6dc9c883
 800c474:	3fe45f30 	.word	0x3fe45f30
 800c478:	2e000000 	.word	0x2e000000
 800c47c:	3ba3198a 	.word	0x3ba3198a
 800c480:	252049c1 	.word	0x252049c1
 800c484:	397b839a 	.word	0x397b839a
 800c488:	00000000 	.word	0x00000000
 800c48c:	41700000 	.word	0x41700000
 800c490:	3fe921fb 	.word	0x3fe921fb
 800c494:	4002d97b 	.word	0x4002d97b
 800c498:	413921fb 	.word	0x413921fb
 800c49c:	0800d438 	.word	0x0800d438
 800c4a0:	7fefffff 	.word	0x7fefffff
 800c4a4:	0800d4b8 	.word	0x0800d4b8

0800c4a8 <__ieee754_sqrt>:
 800c4a8:	eeb1 0bc0 	vsqrt.f64	d0, d0
 800c4ac:	4770      	bx	lr
	...

0800c4b0 <__kernel_cos>:
 800c4b0:	ee10 1a90 	vmov	r1, s1
 800c4b4:	eeb7 7b00 	vmov.f64	d7, #112	; 0x3f800000  1.0
 800c4b8:	f021 4100 	bic.w	r1, r1, #2147483648	; 0x80000000
 800c4bc:	f1b1 5f79 	cmp.w	r1, #1044381696	; 0x3e400000
 800c4c0:	da05      	bge.n	800c4ce <__kernel_cos+0x1e>
 800c4c2:	eefd 6bc0 	vcvt.s32.f64	s13, d0
 800c4c6:	ee16 3a90 	vmov	r3, s13
 800c4ca:	2b00      	cmp	r3, #0
 800c4cc:	d03d      	beq.n	800c54a <__kernel_cos+0x9a>
 800c4ce:	ee20 4b00 	vmul.f64	d4, d0, d0
 800c4d2:	eeb6 6b00 	vmov.f64	d6, #96	; 0x3f000000  0.5
 800c4d6:	ed9f 3b1e 	vldr	d3, [pc, #120]	; 800c550 <__kernel_cos+0xa0>
 800c4da:	ee21 1b40 	vnmul.f64	d1, d1, d0
 800c4de:	ee24 6b06 	vmul.f64	d6, d4, d6
 800c4e2:	ed9f 5b1d 	vldr	d5, [pc, #116]	; 800c558 <__kernel_cos+0xa8>
 800c4e6:	eea4 5b03 	vfma.f64	d5, d4, d3
 800c4ea:	ed9f 3b1d 	vldr	d3, [pc, #116]	; 800c560 <__kernel_cos+0xb0>
 800c4ee:	eea5 3b04 	vfma.f64	d3, d5, d4
 800c4f2:	ed9f 5b1d 	vldr	d5, [pc, #116]	; 800c568 <__kernel_cos+0xb8>
 800c4f6:	eea3 5b04 	vfma.f64	d5, d3, d4
 800c4fa:	ed9f 3b1d 	vldr	d3, [pc, #116]	; 800c570 <__kernel_cos+0xc0>
 800c4fe:	4b20      	ldr	r3, [pc, #128]	; (800c580 <__kernel_cos+0xd0>)
 800c500:	eea5 3b04 	vfma.f64	d3, d5, d4
 800c504:	ed9f 5b1c 	vldr	d5, [pc, #112]	; 800c578 <__kernel_cos+0xc8>
 800c508:	4299      	cmp	r1, r3
 800c50a:	eea3 5b04 	vfma.f64	d5, d3, d4
 800c50e:	ee25 5b04 	vmul.f64	d5, d5, d4
 800c512:	eea4 1b05 	vfma.f64	d1, d4, d5
 800c516:	dc04      	bgt.n	800c522 <__kernel_cos+0x72>
 800c518:	ee36 6b41 	vsub.f64	d6, d6, d1
 800c51c:	ee37 0b46 	vsub.f64	d0, d7, d6
 800c520:	4770      	bx	lr
 800c522:	4b18      	ldr	r3, [pc, #96]	; (800c584 <__kernel_cos+0xd4>)
 800c524:	4299      	cmp	r1, r3
 800c526:	dc0d      	bgt.n	800c544 <__kernel_cos+0x94>
 800c528:	2200      	movs	r2, #0
 800c52a:	f5a1 1300 	sub.w	r3, r1, #2097152	; 0x200000
 800c52e:	ec43 2b15 	vmov	d5, r2, r3
 800c532:	ee37 0b45 	vsub.f64	d0, d7, d5
 800c536:	ee36 6b45 	vsub.f64	d6, d6, d5
 800c53a:	ee36 6b41 	vsub.f64	d6, d6, d1
 800c53e:	ee30 0b46 	vsub.f64	d0, d0, d6
 800c542:	4770      	bx	lr
 800c544:	eeb5 5b02 	vmov.f64	d5, #82	; 0x3e900000  0.2812500
 800c548:	e7f3      	b.n	800c532 <__kernel_cos+0x82>
 800c54a:	eeb0 0b47 	vmov.f64	d0, d7
 800c54e:	4770      	bx	lr
 800c550:	be8838d4 	.word	0xbe8838d4
 800c554:	bda8fae9 	.word	0xbda8fae9
 800c558:	bdb4b1c4 	.word	0xbdb4b1c4
 800c55c:	3e21ee9e 	.word	0x3e21ee9e
 800c560:	809c52ad 	.word	0x809c52ad
 800c564:	be927e4f 	.word	0xbe927e4f
 800c568:	19cb1590 	.word	0x19cb1590
 800c56c:	3efa01a0 	.word	0x3efa01a0
 800c570:	16c15177 	.word	0x16c15177
 800c574:	bf56c16c 	.word	0xbf56c16c
 800c578:	5555554c 	.word	0x5555554c
 800c57c:	3fa55555 	.word	0x3fa55555
 800c580:	3fd33332 	.word	0x3fd33332
 800c584:	3fe90000 	.word	0x3fe90000

0800c588 <__kernel_rem_pio2>:
 800c588:	e92d 4ff0 	stmdb	sp!, {r4, r5, r6, r7, r8, r9, sl, fp, lr}
 800c58c:	ed2d 8b06 	vpush	{d8-d10}
 800c590:	f5ad 7d13 	sub.w	sp, sp, #588	; 0x24c
 800c594:	469b      	mov	fp, r3
 800c596:	460e      	mov	r6, r1
 800c598:	4bc7      	ldr	r3, [pc, #796]	; (800c8b8 <__kernel_rem_pio2+0x330>)
 800c59a:	99a2      	ldr	r1, [sp, #648]	; 0x288
 800c59c:	9002      	str	r0, [sp, #8]
 800c59e:	f853 9021 	ldr.w	r9, [r3, r1, lsl #2]
 800c5a2:	98a3      	ldr	r0, [sp, #652]	; 0x28c
 800c5a4:	1ed1      	subs	r1, r2, #3
 800c5a6:	2318      	movs	r3, #24
 800c5a8:	f06f 0417 	mvn.w	r4, #23
 800c5ac:	fb91 f1f3 	sdiv	r1, r1, r3
 800c5b0:	ea21 71e1 	bic.w	r1, r1, r1, asr #31
 800c5b4:	f10b 3aff 	add.w	sl, fp, #4294967295	; 0xffffffff
 800c5b8:	fb01 4404 	mla	r4, r1, r4, r4
 800c5bc:	ed9f 6bb8 	vldr	d6, [pc, #736]	; 800c8a0 <__kernel_rem_pio2+0x318>
 800c5c0:	4414      	add	r4, r2
 800c5c2:	eba1 050a 	sub.w	r5, r1, sl
 800c5c6:	aa1a      	add	r2, sp, #104	; 0x68
 800c5c8:	eb09 070a 	add.w	r7, r9, sl
 800c5cc:	eb00 0c85 	add.w	ip, r0, r5, lsl #2
 800c5d0:	4696      	mov	lr, r2
 800c5d2:	2300      	movs	r3, #0
 800c5d4:	42bb      	cmp	r3, r7
 800c5d6:	dd0f      	ble.n	800c5f8 <__kernel_rem_pio2+0x70>
 800c5d8:	af6a      	add	r7, sp, #424	; 0x1a8
 800c5da:	2200      	movs	r2, #0
 800c5dc:	454a      	cmp	r2, r9
 800c5de:	dc28      	bgt.n	800c632 <__kernel_rem_pio2+0xaa>
 800c5e0:	f10d 0c68 	add.w	ip, sp, #104	; 0x68
 800c5e4:	eb0b 0302 	add.w	r3, fp, r2
 800c5e8:	eb0c 03c3 	add.w	r3, ip, r3, lsl #3
 800c5ec:	9d02      	ldr	r5, [sp, #8]
 800c5ee:	ed9f 7bac 	vldr	d7, [pc, #688]	; 800c8a0 <__kernel_rem_pio2+0x318>
 800c5f2:	f04f 0c00 	mov.w	ip, #0
 800c5f6:	e016      	b.n	800c626 <__kernel_rem_pio2+0x9e>
 800c5f8:	42dd      	cmn	r5, r3
 800c5fa:	d409      	bmi.n	800c610 <__kernel_rem_pio2+0x88>
 800c5fc:	f85c 2023 	ldr.w	r2, [ip, r3, lsl #2]
 800c600:	ee07 2a90 	vmov	s15, r2
 800c604:	eeb8 7be7 	vcvt.f64.s32	d7, s15
 800c608:	ecae 7b02 	vstmia	lr!, {d7}
 800c60c:	3301      	adds	r3, #1
 800c60e:	e7e1      	b.n	800c5d4 <__kernel_rem_pio2+0x4c>
 800c610:	eeb0 7b46 	vmov.f64	d7, d6
 800c614:	e7f8      	b.n	800c608 <__kernel_rem_pio2+0x80>
 800c616:	ecb5 5b02 	vldmia	r5!, {d5}
 800c61a:	ed33 6b02 	vldmdb	r3!, {d6}
 800c61e:	f10c 0c01 	add.w	ip, ip, #1
 800c622:	eea5 7b06 	vfma.f64	d7, d5, d6
 800c626:	45d4      	cmp	ip, sl
 800c628:	ddf5      	ble.n	800c616 <__kernel_rem_pio2+0x8e>
 800c62a:	eca7 7b02 	vstmia	r7!, {d7}
 800c62e:	3201      	adds	r2, #1
 800c630:	e7d4      	b.n	800c5dc <__kernel_rem_pio2+0x54>
 800c632:	ab06      	add	r3, sp, #24
 800c634:	eb03 0389 	add.w	r3, r3, r9, lsl #2
 800c638:	ed9f 9b9b 	vldr	d9, [pc, #620]	; 800c8a8 <__kernel_rem_pio2+0x320>
 800c63c:	ed9f ab9c 	vldr	d10, [pc, #624]	; 800c8b0 <__kernel_rem_pio2+0x328>
 800c640:	9304      	str	r3, [sp, #16]
 800c642:	eb00 0381 	add.w	r3, r0, r1, lsl #2
 800c646:	9303      	str	r3, [sp, #12]
 800c648:	464d      	mov	r5, r9
 800c64a:	ab92      	add	r3, sp, #584	; 0x248
 800c64c:	f105 5700 	add.w	r7, r5, #536870912	; 0x20000000
 800c650:	eb03 03c5 	add.w	r3, r3, r5, lsl #3
 800c654:	3f01      	subs	r7, #1
 800c656:	ed13 0b28 	vldr	d0, [r3, #-160]	; 0xffffff60
 800c65a:	00ff      	lsls	r7, r7, #3
 800c65c:	ab92      	add	r3, sp, #584	; 0x248
 800c65e:	19da      	adds	r2, r3, r7
 800c660:	3a98      	subs	r2, #152	; 0x98
 800c662:	2300      	movs	r3, #0
 800c664:	1ae9      	subs	r1, r5, r3
 800c666:	2900      	cmp	r1, #0
 800c668:	dc4e      	bgt.n	800c708 <__kernel_rem_pio2+0x180>
 800c66a:	4620      	mov	r0, r4
 800c66c:	f000 fba4 	bl	800cdb8 <scalbn>
 800c670:	eeb0 8b40 	vmov.f64	d8, d0
 800c674:	eeb4 0b00 	vmov.f64	d0, #64	; 0x3e000000  0.125
 800c678:	ee28 0b00 	vmul.f64	d0, d8, d0
 800c67c:	f000 fa8c 	bl	800cb98 <floor>
 800c680:	eeb2 7b00 	vmov.f64	d7, #32	; 0x41000000  8.0
 800c684:	eea0 8b47 	vfms.f64	d8, d0, d7
 800c688:	eefd 7bc8 	vcvt.s32.f64	s15, d8
 800c68c:	2c00      	cmp	r4, #0
 800c68e:	edcd 7a01 	vstr	s15, [sp, #4]
 800c692:	eeb8 7be7 	vcvt.f64.s32	d7, s15
 800c696:	ee38 8b47 	vsub.f64	d8, d8, d7
 800c69a:	dd4a      	ble.n	800c732 <__kernel_rem_pio2+0x1aa>
 800c69c:	1e69      	subs	r1, r5, #1
 800c69e:	ab06      	add	r3, sp, #24
 800c6a0:	f1c4 0018 	rsb	r0, r4, #24
 800c6a4:	f853 c021 	ldr.w	ip, [r3, r1, lsl #2]
 800c6a8:	9a01      	ldr	r2, [sp, #4]
 800c6aa:	fa4c f300 	asr.w	r3, ip, r0
 800c6ae:	441a      	add	r2, r3
 800c6b0:	4083      	lsls	r3, r0
 800c6b2:	9201      	str	r2, [sp, #4]
 800c6b4:	ebac 0203 	sub.w	r2, ip, r3
 800c6b8:	ab06      	add	r3, sp, #24
 800c6ba:	f843 2021 	str.w	r2, [r3, r1, lsl #2]
 800c6be:	f1c4 0317 	rsb	r3, r4, #23
 800c6c2:	fa42 f803 	asr.w	r8, r2, r3
 800c6c6:	f1b8 0f00 	cmp.w	r8, #0
 800c6ca:	dd43      	ble.n	800c754 <__kernel_rem_pio2+0x1cc>
 800c6cc:	9b01      	ldr	r3, [sp, #4]
 800c6ce:	2000      	movs	r0, #0
 800c6d0:	3301      	adds	r3, #1
 800c6d2:	9301      	str	r3, [sp, #4]
 800c6d4:	4601      	mov	r1, r0
 800c6d6:	f06f 4c7f 	mvn.w	ip, #4278190080	; 0xff000000
 800c6da:	4285      	cmp	r5, r0
 800c6dc:	dc6e      	bgt.n	800c7bc <__kernel_rem_pio2+0x234>
 800c6de:	2c00      	cmp	r4, #0
 800c6e0:	dd04      	ble.n	800c6ec <__kernel_rem_pio2+0x164>
 800c6e2:	2c01      	cmp	r4, #1
 800c6e4:	d07f      	beq.n	800c7e6 <__kernel_rem_pio2+0x25e>
 800c6e6:	2c02      	cmp	r4, #2
 800c6e8:	f000 8087 	beq.w	800c7fa <__kernel_rem_pio2+0x272>
 800c6ec:	f1b8 0f02 	cmp.w	r8, #2
 800c6f0:	d130      	bne.n	800c754 <__kernel_rem_pio2+0x1cc>
 800c6f2:	eeb7 0b00 	vmov.f64	d0, #112	; 0x3f800000  1.0
 800c6f6:	ee30 8b48 	vsub.f64	d8, d0, d8
 800c6fa:	b359      	cbz	r1, 800c754 <__kernel_rem_pio2+0x1cc>
 800c6fc:	4620      	mov	r0, r4
 800c6fe:	f000 fb5b 	bl	800cdb8 <scalbn>
 800c702:	ee38 8b40 	vsub.f64	d8, d8, d0
 800c706:	e025      	b.n	800c754 <__kernel_rem_pio2+0x1cc>
 800c708:	ee20 7b09 	vmul.f64	d7, d0, d9
 800c70c:	eebd 7bc7 	vcvt.s32.f64	s14, d7
 800c710:	a806      	add	r0, sp, #24
 800c712:	eeb8 7bc7 	vcvt.f64.s32	d7, s14
 800c716:	eea7 0b4a 	vfms.f64	d0, d7, d10
 800c71a:	eebd 0bc0 	vcvt.s32.f64	s0, d0
 800c71e:	ee10 1a10 	vmov	r1, s0
 800c722:	ed32 0b02 	vldmdb	r2!, {d0}
 800c726:	f840 1023 	str.w	r1, [r0, r3, lsl #2]
 800c72a:	ee37 0b00 	vadd.f64	d0, d7, d0
 800c72e:	3301      	adds	r3, #1
 800c730:	e798      	b.n	800c664 <__kernel_rem_pio2+0xdc>
 800c732:	d106      	bne.n	800c742 <__kernel_rem_pio2+0x1ba>
 800c734:	1e6b      	subs	r3, r5, #1
 800c736:	aa06      	add	r2, sp, #24
 800c738:	f852 2023 	ldr.w	r2, [r2, r3, lsl #2]
 800c73c:	ea4f 58e2 	mov.w	r8, r2, asr #23
 800c740:	e7c1      	b.n	800c6c6 <__kernel_rem_pio2+0x13e>
 800c742:	eeb6 7b00 	vmov.f64	d7, #96	; 0x3f000000  0.5
 800c746:	eeb4 8bc7 	vcmpe.f64	d8, d7
 800c74a:	eef1 fa10 	vmrs	APSR_nzcv, fpscr
 800c74e:	da32      	bge.n	800c7b6 <__kernel_rem_pio2+0x22e>
 800c750:	f04f 0800 	mov.w	r8, #0
 800c754:	eeb5 8b40 	vcmp.f64	d8, #0.0
 800c758:	eef1 fa10 	vmrs	APSR_nzcv, fpscr
 800c75c:	f040 80b0 	bne.w	800c8c0 <__kernel_rem_pio2+0x338>
 800c760:	1e6b      	subs	r3, r5, #1
 800c762:	4618      	mov	r0, r3
 800c764:	2200      	movs	r2, #0
 800c766:	4548      	cmp	r0, r9
 800c768:	da4e      	bge.n	800c808 <__kernel_rem_pio2+0x280>
 800c76a:	2a00      	cmp	r2, #0
 800c76c:	f000 8088 	beq.w	800c880 <__kernel_rem_pio2+0x2f8>
 800c770:	aa06      	add	r2, sp, #24
 800c772:	3c18      	subs	r4, #24
 800c774:	f852 1023 	ldr.w	r1, [r2, r3, lsl #2]
 800c778:	2900      	cmp	r1, #0
 800c77a:	f000 808e 	beq.w	800c89a <__kernel_rem_pio2+0x312>
 800c77e:	eeb7 0b00 	vmov.f64	d0, #112	; 0x3f800000  1.0
 800c782:	4620      	mov	r0, r4
 800c784:	9302      	str	r3, [sp, #8]
 800c786:	f000 fb17 	bl	800cdb8 <scalbn>
 800c78a:	9b02      	ldr	r3, [sp, #8]
 800c78c:	aa6a      	add	r2, sp, #424	; 0x1a8
 800c78e:	00d9      	lsls	r1, r3, #3
 800c790:	ed9f 6b45 	vldr	d6, [pc, #276]	; 800c8a8 <__kernel_rem_pio2+0x320>
 800c794:	1850      	adds	r0, r2, r1
 800c796:	f100 0508 	add.w	r5, r0, #8
 800c79a:	461c      	mov	r4, r3
 800c79c:	2c00      	cmp	r4, #0
 800c79e:	f280 80bd 	bge.w	800c91c <__kernel_rem_pio2+0x394>
 800c7a2:	2500      	movs	r5, #0
 800c7a4:	1b5c      	subs	r4, r3, r5
 800c7a6:	2c00      	cmp	r4, #0
 800c7a8:	f2c0 80dd 	blt.w	800c966 <__kernel_rem_pio2+0x3de>
 800c7ac:	4f43      	ldr	r7, [pc, #268]	; (800c8bc <__kernel_rem_pio2+0x334>)
 800c7ae:	ed9f 7b3c 	vldr	d7, [pc, #240]	; 800c8a0 <__kernel_rem_pio2+0x318>
 800c7b2:	2400      	movs	r4, #0
 800c7b4:	e0cb      	b.n	800c94e <__kernel_rem_pio2+0x3c6>
 800c7b6:	f04f 0802 	mov.w	r8, #2
 800c7ba:	e787      	b.n	800c6cc <__kernel_rem_pio2+0x144>
 800c7bc:	ab06      	add	r3, sp, #24
 800c7be:	f853 3020 	ldr.w	r3, [r3, r0, lsl #2]
 800c7c2:	b949      	cbnz	r1, 800c7d8 <__kernel_rem_pio2+0x250>
 800c7c4:	b12b      	cbz	r3, 800c7d2 <__kernel_rem_pio2+0x24a>
 800c7c6:	aa06      	add	r2, sp, #24
 800c7c8:	f1c3 7380 	rsb	r3, r3, #16777216	; 0x1000000
 800c7cc:	f842 3020 	str.w	r3, [r2, r0, lsl #2]
 800c7d0:	2301      	movs	r3, #1
 800c7d2:	3001      	adds	r0, #1
 800c7d4:	4619      	mov	r1, r3
 800c7d6:	e780      	b.n	800c6da <__kernel_rem_pio2+0x152>
 800c7d8:	aa06      	add	r2, sp, #24
 800c7da:	ebac 0303 	sub.w	r3, ip, r3
 800c7de:	f842 3020 	str.w	r3, [r2, r0, lsl #2]
 800c7e2:	460b      	mov	r3, r1
 800c7e4:	e7f5      	b.n	800c7d2 <__kernel_rem_pio2+0x24a>
 800c7e6:	1e68      	subs	r0, r5, #1
 800c7e8:	ab06      	add	r3, sp, #24
 800c7ea:	f853 3020 	ldr.w	r3, [r3, r0, lsl #2]
 800c7ee:	f3c3 0316 	ubfx	r3, r3, #0, #23
 800c7f2:	aa06      	add	r2, sp, #24
 800c7f4:	f842 3020 	str.w	r3, [r2, r0, lsl #2]
 800c7f8:	e778      	b.n	800c6ec <__kernel_rem_pio2+0x164>
 800c7fa:	1e68      	subs	r0, r5, #1
 800c7fc:	ab06      	add	r3, sp, #24
 800c7fe:	f853 3020 	ldr.w	r3, [r3, r0, lsl #2]
 800c802:	f3c3 0315 	ubfx	r3, r3, #0, #22
 800c806:	e7f4      	b.n	800c7f2 <__kernel_rem_pio2+0x26a>
 800c808:	a906      	add	r1, sp, #24
 800c80a:	f851 1020 	ldr.w	r1, [r1, r0, lsl #2]
 800c80e:	3801      	subs	r0, #1
 800c810:	430a      	orrs	r2, r1
 800c812:	e7a8      	b.n	800c766 <__kernel_rem_pio2+0x1de>
 800c814:	f10c 0c01 	add.w	ip, ip, #1
 800c818:	f853 2d04 	ldr.w	r2, [r3, #-4]!
 800c81c:	2a00      	cmp	r2, #0
 800c81e:	d0f9      	beq.n	800c814 <__kernel_rem_pio2+0x28c>
 800c820:	eb0b 0305 	add.w	r3, fp, r5
 800c824:	aa1a      	add	r2, sp, #104	; 0x68
 800c826:	00db      	lsls	r3, r3, #3
 800c828:	1898      	adds	r0, r3, r2
 800c82a:	3008      	adds	r0, #8
 800c82c:	1c69      	adds	r1, r5, #1
 800c82e:	3708      	adds	r7, #8
 800c830:	2200      	movs	r2, #0
 800c832:	4465      	add	r5, ip
 800c834:	9005      	str	r0, [sp, #20]
 800c836:	428d      	cmp	r5, r1
 800c838:	f6ff af07 	blt.w	800c64a <__kernel_rem_pio2+0xc2>
 800c83c:	a81a      	add	r0, sp, #104	; 0x68
 800c83e:	eb02 0c03 	add.w	ip, r2, r3
 800c842:	4484      	add	ip, r0
 800c844:	9803      	ldr	r0, [sp, #12]
 800c846:	f8dd e008 	ldr.w	lr, [sp, #8]
 800c84a:	f850 0021 	ldr.w	r0, [r0, r1, lsl #2]
 800c84e:	9001      	str	r0, [sp, #4]
 800c850:	ee07 0a90 	vmov	s15, r0
 800c854:	eeb8 7be7 	vcvt.f64.s32	d7, s15
 800c858:	9805      	ldr	r0, [sp, #20]
 800c85a:	ed8c 7b00 	vstr	d7, [ip]
 800c85e:	ed9f 7b10 	vldr	d7, [pc, #64]	; 800c8a0 <__kernel_rem_pio2+0x318>
 800c862:	eb00 0802 	add.w	r8, r0, r2
 800c866:	f04f 0c00 	mov.w	ip, #0
 800c86a:	45d4      	cmp	ip, sl
 800c86c:	dd0c      	ble.n	800c888 <__kernel_rem_pio2+0x300>
 800c86e:	eb02 0c07 	add.w	ip, r2, r7
 800c872:	a86a      	add	r0, sp, #424	; 0x1a8
 800c874:	4484      	add	ip, r0
 800c876:	ed8c 7b02 	vstr	d7, [ip, #8]
 800c87a:	3101      	adds	r1, #1
 800c87c:	3208      	adds	r2, #8
 800c87e:	e7da      	b.n	800c836 <__kernel_rem_pio2+0x2ae>
 800c880:	9b04      	ldr	r3, [sp, #16]
 800c882:	f04f 0c01 	mov.w	ip, #1
 800c886:	e7c7      	b.n	800c818 <__kernel_rem_pio2+0x290>
 800c888:	ecbe 5b02 	vldmia	lr!, {d5}
 800c88c:	ed38 6b02 	vldmdb	r8!, {d6}
 800c890:	f10c 0c01 	add.w	ip, ip, #1
 800c894:	eea5 7b06 	vfma.f64	d7, d5, d6
 800c898:	e7e7      	b.n	800c86a <__kernel_rem_pio2+0x2e2>
 800c89a:	3b01      	subs	r3, #1
 800c89c:	e768      	b.n	800c770 <__kernel_rem_pio2+0x1e8>
 800c89e:	bf00      	nop
	...
 800c8ac:	3e700000 	.word	0x3e700000
 800c8b0:	00000000 	.word	0x00000000
 800c8b4:	41700000 	.word	0x41700000
 800c8b8:	0800d600 	.word	0x0800d600
 800c8bc:	0800d5c0 	.word	0x0800d5c0
 800c8c0:	4260      	negs	r0, r4
 800c8c2:	eeb0 0b48 	vmov.f64	d0, d8
 800c8c6:	f000 fa77 	bl	800cdb8 <scalbn>
 800c8ca:	ed9f 6b77 	vldr	d6, [pc, #476]	; 800caa8 <__kernel_rem_pio2+0x520>
 800c8ce:	eeb4 0bc6 	vcmpe.f64	d0, d6
 800c8d2:	eef1 fa10 	vmrs	APSR_nzcv, fpscr
 800c8d6:	db18      	blt.n	800c90a <__kernel_rem_pio2+0x382>
 800c8d8:	ed9f 7b75 	vldr	d7, [pc, #468]	; 800cab0 <__kernel_rem_pio2+0x528>
 800c8dc:	ee20 7b07 	vmul.f64	d7, d0, d7
 800c8e0:	eebd 7bc7 	vcvt.s32.f64	s14, d7
 800c8e4:	aa06      	add	r2, sp, #24
 800c8e6:	eeb8 5bc7 	vcvt.f64.s32	d5, s14
 800c8ea:	eea5 0b46 	vfms.f64	d0, d5, d6
 800c8ee:	eebd 0bc0 	vcvt.s32.f64	s0, d0
 800c8f2:	a906      	add	r1, sp, #24
 800c8f4:	ee10 3a10 	vmov	r3, s0
 800c8f8:	f842 3025 	str.w	r3, [r2, r5, lsl #2]
 800c8fc:	1c6b      	adds	r3, r5, #1
 800c8fe:	ee17 2a10 	vmov	r2, s14
 800c902:	3418      	adds	r4, #24
 800c904:	f841 2023 	str.w	r2, [r1, r3, lsl #2]
 800c908:	e739      	b.n	800c77e <__kernel_rem_pio2+0x1f6>
 800c90a:	eebd 0bc0 	vcvt.s32.f64	s0, d0
 800c90e:	aa06      	add	r2, sp, #24
 800c910:	ee10 3a10 	vmov	r3, s0
 800c914:	f842 3025 	str.w	r3, [r2, r5, lsl #2]
 800c918:	462b      	mov	r3, r5
 800c91a:	e730      	b.n	800c77e <__kernel_rem_pio2+0x1f6>
 800c91c:	aa06      	add	r2, sp, #24
 800c91e:	f852 2024 	ldr.w	r2, [r2, r4, lsl #2]
 800c922:	9202      	str	r2, [sp, #8]
 800c924:	ee07 2a90 	vmov	s15, r2
 800c928:	3c01      	subs	r4, #1
 800c92a:	eeb8 7be7 	vcvt.f64.s32	d7, s15
 800c92e:	ee27 7b00 	vmul.f64	d7, d7, d0
 800c932:	ee20 0b06 	vmul.f64	d0, d0, d6
 800c936:	ed25 7b02 	vstmdb	r5!, {d7}
 800c93a:	e72f      	b.n	800c79c <__kernel_rem_pio2+0x214>
 800c93c:	eb00 0cc4 	add.w	ip, r0, r4, lsl #3
 800c940:	ecb7 5b02 	vldmia	r7!, {d5}
 800c944:	ed9c 6b00 	vldr	d6, [ip]
 800c948:	3401      	adds	r4, #1
 800c94a:	eea5 7b06 	vfma.f64	d7, d5, d6
 800c94e:	454c      	cmp	r4, r9
 800c950:	dc01      	bgt.n	800c956 <__kernel_rem_pio2+0x3ce>
 800c952:	42a5      	cmp	r5, r4
 800c954:	daf2      	bge.n	800c93c <__kernel_rem_pio2+0x3b4>
 800c956:	aa42      	add	r2, sp, #264	; 0x108
 800c958:	eb02 04c5 	add.w	r4, r2, r5, lsl #3
 800c95c:	ed84 7b00 	vstr	d7, [r4]
 800c960:	3501      	adds	r5, #1
 800c962:	3808      	subs	r0, #8
 800c964:	e71e      	b.n	800c7a4 <__kernel_rem_pio2+0x21c>
 800c966:	9aa2      	ldr	r2, [sp, #648]	; 0x288
 800c968:	2a03      	cmp	r2, #3
 800c96a:	d84e      	bhi.n	800ca0a <__kernel_rem_pio2+0x482>
 800c96c:	e8df f002 	tbb	[pc, r2]
 800c970:	021f1f3e 	.word	0x021f1f3e
 800c974:	3108      	adds	r1, #8
 800c976:	aa42      	add	r2, sp, #264	; 0x108
 800c978:	4411      	add	r1, r2
 800c97a:	4608      	mov	r0, r1
 800c97c:	461c      	mov	r4, r3
 800c97e:	2c00      	cmp	r4, #0
 800c980:	dc61      	bgt.n	800ca46 <__kernel_rem_pio2+0x4be>
 800c982:	4608      	mov	r0, r1
 800c984:	461c      	mov	r4, r3
 800c986:	2c01      	cmp	r4, #1
 800c988:	dc6d      	bgt.n	800ca66 <__kernel_rem_pio2+0x4de>
 800c98a:	ed9f 7b4b 	vldr	d7, [pc, #300]	; 800cab8 <__kernel_rem_pio2+0x530>
 800c98e:	2b01      	cmp	r3, #1
 800c990:	dc79      	bgt.n	800ca86 <__kernel_rem_pio2+0x4fe>
 800c992:	ed9d 5b42 	vldr	d5, [sp, #264]	; 0x108
 800c996:	ed9d 6b44 	vldr	d6, [sp, #272]	; 0x110
 800c99a:	f1b8 0f00 	cmp.w	r8, #0
 800c99e:	d178      	bne.n	800ca92 <__kernel_rem_pio2+0x50a>
 800c9a0:	ed86 5b00 	vstr	d5, [r6]
 800c9a4:	ed86 6b02 	vstr	d6, [r6, #8]
 800c9a8:	ed86 7b04 	vstr	d7, [r6, #16]
 800c9ac:	e02d      	b.n	800ca0a <__kernel_rem_pio2+0x482>
 800c9ae:	ed9f 6b42 	vldr	d6, [pc, #264]	; 800cab8 <__kernel_rem_pio2+0x530>
 800c9b2:	3108      	adds	r1, #8
 800c9b4:	aa42      	add	r2, sp, #264	; 0x108
 800c9b6:	4411      	add	r1, r2
 800c9b8:	4618      	mov	r0, r3
 800c9ba:	2800      	cmp	r0, #0
 800c9bc:	da34      	bge.n	800ca28 <__kernel_rem_pio2+0x4a0>
 800c9be:	f1b8 0f00 	cmp.w	r8, #0
 800c9c2:	d037      	beq.n	800ca34 <__kernel_rem_pio2+0x4ac>
 800c9c4:	eeb1 7b46 	vneg.f64	d7, d6
 800c9c8:	ed86 7b00 	vstr	d7, [r6]
 800c9cc:	ed9d 7b42 	vldr	d7, [sp, #264]	; 0x108
 800c9d0:	a844      	add	r0, sp, #272	; 0x110
 800c9d2:	2101      	movs	r1, #1
 800c9d4:	ee37 7b46 	vsub.f64	d7, d7, d6
 800c9d8:	428b      	cmp	r3, r1
 800c9da:	da2e      	bge.n	800ca3a <__kernel_rem_pio2+0x4b2>
 800c9dc:	f1b8 0f00 	cmp.w	r8, #0
 800c9e0:	d001      	beq.n	800c9e6 <__kernel_rem_pio2+0x45e>
 800c9e2:	eeb1 7b47 	vneg.f64	d7, d7
 800c9e6:	ed86 7b02 	vstr	d7, [r6, #8]
 800c9ea:	e00e      	b.n	800ca0a <__kernel_rem_pio2+0x482>
 800c9ec:	aa92      	add	r2, sp, #584	; 0x248
 800c9ee:	ed9f 7b32 	vldr	d7, [pc, #200]	; 800cab8 <__kernel_rem_pio2+0x530>
 800c9f2:	4411      	add	r1, r2
 800c9f4:	f5a1 719c 	sub.w	r1, r1, #312	; 0x138
 800c9f8:	2b00      	cmp	r3, #0
 800c9fa:	da0f      	bge.n	800ca1c <__kernel_rem_pio2+0x494>
 800c9fc:	f1b8 0f00 	cmp.w	r8, #0
 800ca00:	d001      	beq.n	800ca06 <__kernel_rem_pio2+0x47e>
 800ca02:	eeb1 7b47 	vneg.f64	d7, d7
 800ca06:	ed86 7b00 	vstr	d7, [r6]
 800ca0a:	9b01      	ldr	r3, [sp, #4]
 800ca0c:	f003 0007 	and.w	r0, r3, #7
 800ca10:	f50d 7d13 	add.w	sp, sp, #588	; 0x24c
 800ca14:	ecbd 8b06 	vpop	{d8-d10}
 800ca18:	e8bd 8ff0 	ldmia.w	sp!, {r4, r5, r6, r7, r8, r9, sl, fp, pc}
 800ca1c:	ed31 6b02 	vldmdb	r1!, {d6}
 800ca20:	3b01      	subs	r3, #1
 800ca22:	ee37 7b06 	vadd.f64	d7, d7, d6
 800ca26:	e7e7      	b.n	800c9f8 <__kernel_rem_pio2+0x470>
 800ca28:	ed31 7b02 	vldmdb	r1!, {d7}
 800ca2c:	3801      	subs	r0, #1
 800ca2e:	ee36 6b07 	vadd.f64	d6, d6, d7
 800ca32:	e7c2      	b.n	800c9ba <__kernel_rem_pio2+0x432>
 800ca34:	eeb0 7b46 	vmov.f64	d7, d6
 800ca38:	e7c6      	b.n	800c9c8 <__kernel_rem_pio2+0x440>
 800ca3a:	ecb0 6b02 	vldmia	r0!, {d6}
 800ca3e:	3101      	adds	r1, #1
 800ca40:	ee37 7b06 	vadd.f64	d7, d7, d6
 800ca44:	e7c8      	b.n	800c9d8 <__kernel_rem_pio2+0x450>
 800ca46:	ed10 7b04 	vldr	d7, [r0, #-16]
 800ca4a:	ed30 5b02 	vldmdb	r0!, {d5}
 800ca4e:	3c01      	subs	r4, #1
 800ca50:	ee37 6b05 	vadd.f64	d6, d7, d5
 800ca54:	ee37 7b46 	vsub.f64	d7, d7, d6
 800ca58:	ed00 6b02 	vstr	d6, [r0, #-8]
 800ca5c:	ee37 7b05 	vadd.f64	d7, d7, d5
 800ca60:	ed80 7b00 	vstr	d7, [r0]
 800ca64:	e78b      	b.n	800c97e <__kernel_rem_pio2+0x3f6>
 800ca66:	ed10 7b04 	vldr	d7, [r0, #-16]
 800ca6a:	ed30 5b02 	vldmdb	r0!, {d5}
 800ca6e:	3c01      	subs	r4, #1
 800ca70:	ee37 6b05 	vadd.f64	d6, d7, d5
 800ca74:	ee37 7b46 	vsub.f64	d7, d7, d6
 800ca78:	ed00 6b02 	vstr	d6, [r0, #-8]
 800ca7c:	ee37 7b05 	vadd.f64	d7, d7, d5
 800ca80:	ed80 7b00 	vstr	d7, [r0]
 800ca84:	e77f      	b.n	800c986 <__kernel_rem_pio2+0x3fe>
 800ca86:	ed31 6b02 	vldmdb	r1!, {d6}
 800ca8a:	3b01      	subs	r3, #1
 800ca8c:	ee37 7b06 	vadd.f64	d7, d7, d6
 800ca90:	e77d      	b.n	800c98e <__kernel_rem_pio2+0x406>
 800ca92:	eeb1 5b45 	vneg.f64	d5, d5
 800ca96:	eeb1 6b46 	vneg.f64	d6, d6
 800ca9a:	ed86 5b00 	vstr	d5, [r6]
 800ca9e:	eeb1 7b47 	vneg.f64	d7, d7
 800caa2:	ed86 6b02 	vstr	d6, [r6, #8]
 800caa6:	e77f      	b.n	800c9a8 <__kernel_rem_pio2+0x420>
 800caa8:	00000000 	.word	0x00000000
 800caac:	41700000 	.word	0x41700000
 800cab0:	00000000 	.word	0x00000000
 800cab4:	3e700000 	.word	0x3e700000
	...

0800cac0 <__kernel_sin>:
 800cac0:	ee10 3a90 	vmov	r3, s1
 800cac4:	f023 4300 	bic.w	r3, r3, #2147483648	; 0x80000000
 800cac8:	f1b3 5f79 	cmp.w	r3, #1044381696	; 0x3e400000
 800cacc:	da04      	bge.n	800cad8 <__kernel_sin+0x18>
 800cace:	eefd 7bc0 	vcvt.s32.f64	s15, d0
 800cad2:	ee17 3a90 	vmov	r3, s15
 800cad6:	b35b      	cbz	r3, 800cb30 <__kernel_sin+0x70>
 800cad8:	ee20 6b00 	vmul.f64	d6, d0, d0
 800cadc:	ee20 5b06 	vmul.f64	d5, d0, d6
 800cae0:	ed9f 7b15 	vldr	d7, [pc, #84]	; 800cb38 <__kernel_sin+0x78>
 800cae4:	ed9f 4b16 	vldr	d4, [pc, #88]	; 800cb40 <__kernel_sin+0x80>
 800cae8:	eea6 4b07 	vfma.f64	d4, d6, d7
 800caec:	ed9f 7b16 	vldr	d7, [pc, #88]	; 800cb48 <__kernel_sin+0x88>
 800caf0:	eea4 7b06 	vfma.f64	d7, d4, d6
 800caf4:	ed9f 4b16 	vldr	d4, [pc, #88]	; 800cb50 <__kernel_sin+0x90>
 800caf8:	eea7 4b06 	vfma.f64	d4, d7, d6
 800cafc:	ed9f 7b16 	vldr	d7, [pc, #88]	; 800cb58 <__kernel_sin+0x98>
 800cb00:	eea4 7b06 	vfma.f64	d7, d4, d6
 800cb04:	b930      	cbnz	r0, 800cb14 <__kernel_sin+0x54>
 800cb06:	ed9f 4b16 	vldr	d4, [pc, #88]	; 800cb60 <__kernel_sin+0xa0>
 800cb0a:	eea6 4b07 	vfma.f64	d4, d6, d7
 800cb0e:	eea4 0b05 	vfma.f64	d0, d4, d5
 800cb12:	4770      	bx	lr
 800cb14:	ee27 7b45 	vnmul.f64	d7, d7, d5
 800cb18:	eeb6 4b00 	vmov.f64	d4, #96	; 0x3f000000  0.5
 800cb1c:	eea1 7b04 	vfma.f64	d7, d1, d4
 800cb20:	ee97 1b06 	vfnms.f64	d1, d7, d6
 800cb24:	ed9f 7b10 	vldr	d7, [pc, #64]	; 800cb68 <__kernel_sin+0xa8>
 800cb28:	eea5 1b07 	vfma.f64	d1, d5, d7
 800cb2c:	ee30 0b41 	vsub.f64	d0, d0, d1
 800cb30:	4770      	bx	lr
 800cb32:	bf00      	nop
 800cb34:	f3af 8000 	nop.w
 800cb38:	5acfd57c 	.word	0x5acfd57c
 800cb3c:	3de5d93a 	.word	0x3de5d93a
 800cb40:	8a2b9ceb 	.word	0x8a2b9ceb
 800cb44:	be5ae5e6 	.word	0xbe5ae5e6
 800cb48:	57b1fe7d 	.word	0x57b1fe7d
 800cb4c:	3ec71de3 	.word	0x3ec71de3
 800cb50:	19c161d5 	.word	0x19c161d5
 800cb54:	bf2a01a0 	.word	0xbf2a01a0
 800cb58:	1110f8a6 	.word	0x1110f8a6
 800cb5c:	3f811111 	.word	0x3f811111
 800cb60:	55555549 	.word	0x55555549
 800cb64:	bfc55555 	.word	0xbfc55555
 800cb68:	55555549 	.word	0x55555549
 800cb6c:	3fc55555 	.word	0x3fc55555

0800cb70 <fabs>:
 800cb70:	ec51 0b10 	vmov	r0, r1, d0
 800cb74:	ee10 2a10 	vmov	r2, s0
 800cb78:	f021 4300 	bic.w	r3, r1, #2147483648	; 0x80000000
 800cb7c:	ec43 2b10 	vmov	d0, r2, r3
 800cb80:	4770      	bx	lr

0800cb82 <finite>:
 800cb82:	ee10 3a90 	vmov	r3, s1
 800cb86:	f043 4000 	orr.w	r0, r3, #2147483648	; 0x80000000
 800cb8a:	f500 1080 	add.w	r0, r0, #1048576	; 0x100000
 800cb8e:	0fc0      	lsrs	r0, r0, #31
 800cb90:	4770      	bx	lr
 800cb92:	0000      	movs	r0, r0
 800cb94:	0000      	movs	r0, r0
	...

0800cb98 <floor>:
 800cb98:	ee10 1a90 	vmov	r1, s1
 800cb9c:	f3c1 520a 	ubfx	r2, r1, #20, #11
 800cba0:	f2a2 33ff 	subw	r3, r2, #1023	; 0x3ff
 800cba4:	2b13      	cmp	r3, #19
 800cba6:	b530      	push	{r4, r5, lr}
 800cba8:	ee10 0a10 	vmov	r0, s0
 800cbac:	ee10 5a10 	vmov	r5, s0
 800cbb0:	dc33      	bgt.n	800cc1a <floor+0x82>
 800cbb2:	2b00      	cmp	r3, #0
 800cbb4:	da17      	bge.n	800cbe6 <floor+0x4e>
 800cbb6:	ed9f 7b30 	vldr	d7, [pc, #192]	; 800cc78 <floor+0xe0>
 800cbba:	ee30 0b07 	vadd.f64	d0, d0, d7
 800cbbe:	eeb5 0bc0 	vcmpe.f64	d0, #0.0
 800cbc2:	eef1 fa10 	vmrs	APSR_nzcv, fpscr
 800cbc6:	dd09      	ble.n	800cbdc <floor+0x44>
 800cbc8:	2900      	cmp	r1, #0
 800cbca:	da50      	bge.n	800cc6e <floor+0xd6>
 800cbcc:	f021 4300 	bic.w	r3, r1, #2147483648	; 0x80000000
 800cbd0:	4a2b      	ldr	r2, [pc, #172]	; (800cc80 <floor+0xe8>)
 800cbd2:	4303      	orrs	r3, r0
 800cbd4:	2000      	movs	r0, #0
 800cbd6:	4283      	cmp	r3, r0
 800cbd8:	bf18      	it	ne
 800cbda:	4611      	movne	r1, r2
 800cbdc:	460b      	mov	r3, r1
 800cbde:	4602      	mov	r2, r0
 800cbe0:	ec43 2b10 	vmov	d0, r2, r3
 800cbe4:	e020      	b.n	800cc28 <floor+0x90>
 800cbe6:	4a27      	ldr	r2, [pc, #156]	; (800cc84 <floor+0xec>)
 800cbe8:	411a      	asrs	r2, r3
 800cbea:	ea01 0402 	and.w	r4, r1, r2
 800cbee:	4304      	orrs	r4, r0
 800cbf0:	d01a      	beq.n	800cc28 <floor+0x90>
 800cbf2:	ed9f 7b21 	vldr	d7, [pc, #132]	; 800cc78 <floor+0xe0>
 800cbf6:	ee30 0b07 	vadd.f64	d0, d0, d7
 800cbfa:	eeb5 0bc0 	vcmpe.f64	d0, #0.0
 800cbfe:	eef1 fa10 	vmrs	APSR_nzcv, fpscr
 800cc02:	ddeb      	ble.n	800cbdc <floor+0x44>
 800cc04:	2900      	cmp	r1, #0
 800cc06:	bfbe      	ittt	lt
 800cc08:	f44f 1080 	movlt.w	r0, #1048576	; 0x100000
 800cc0c:	fa40 f303 	asrlt.w	r3, r0, r3
 800cc10:	18c9      	addlt	r1, r1, r3
 800cc12:	ea21 0102 	bic.w	r1, r1, r2
 800cc16:	2000      	movs	r0, #0
 800cc18:	e7e0      	b.n	800cbdc <floor+0x44>
 800cc1a:	2b33      	cmp	r3, #51	; 0x33
 800cc1c:	dd05      	ble.n	800cc2a <floor+0x92>
 800cc1e:	f5b3 6f80 	cmp.w	r3, #1024	; 0x400
 800cc22:	d101      	bne.n	800cc28 <floor+0x90>
 800cc24:	ee30 0b00 	vadd.f64	d0, d0, d0
 800cc28:	bd30      	pop	{r4, r5, pc}
 800cc2a:	f2a2 4413 	subw	r4, r2, #1043	; 0x413
 800cc2e:	f04f 32ff 	mov.w	r2, #4294967295	; 0xffffffff
 800cc32:	40e2      	lsrs	r2, r4
 800cc34:	4202      	tst	r2, r0
 800cc36:	d0f7      	beq.n	800cc28 <floor+0x90>
 800cc38:	ed9f 7b0f 	vldr	d7, [pc, #60]	; 800cc78 <floor+0xe0>
 800cc3c:	ee30 0b07 	vadd.f64	d0, d0, d7
 800cc40:	eeb5 0bc0 	vcmpe.f64	d0, #0.0
 800cc44:	eef1 fa10 	vmrs	APSR_nzcv, fpscr
 800cc48:	ddc8      	ble.n	800cbdc <floor+0x44>
 800cc4a:	2900      	cmp	r1, #0
 800cc4c:	da02      	bge.n	800cc54 <floor+0xbc>
 800cc4e:	2b14      	cmp	r3, #20
 800cc50:	d103      	bne.n	800cc5a <floor+0xc2>
 800cc52:	3101      	adds	r1, #1
 800cc54:	ea20 0002 	bic.w	r0, r0, r2
 800cc58:	e7c0      	b.n	800cbdc <floor+0x44>
 800cc5a:	2401      	movs	r4, #1
 800cc5c:	f1c3 0334 	rsb	r3, r3, #52	; 0x34
 800cc60:	fa04 f303 	lsl.w	r3, r4, r3
 800cc64:	4418      	add	r0, r3
 800cc66:	42a8      	cmp	r0, r5
 800cc68:	bf38      	it	cc
 800cc6a:	1909      	addcc	r1, r1, r4
 800cc6c:	e7f2      	b.n	800cc54 <floor+0xbc>
 800cc6e:	2000      	movs	r0, #0
 800cc70:	4601      	mov	r1, r0
 800cc72:	e7b3      	b.n	800cbdc <floor+0x44>
 800cc74:	f3af 8000 	nop.w
 800cc78:	8800759c 	.word	0x8800759c
 800cc7c:	7e37e43c 	.word	0x7e37e43c
 800cc80:	bff00000 	.word	0xbff00000
 800cc84:	000fffff 	.word	0x000fffff

0800cc88 <matherr>:
 800cc88:	2000      	movs	r0, #0
 800cc8a:	4770      	bx	lr
 800cc8c:	0000      	movs	r0, r0
	...

0800cc90 <nan>:
 800cc90:	ed9f 0b01 	vldr	d0, [pc, #4]	; 800cc98 <nan+0x8>
 800cc94:	4770      	bx	lr
 800cc96:	bf00      	nop
 800cc98:	00000000 	.word	0x00000000
 800cc9c:	7ff80000 	.word	0x7ff80000

0800cca0 <rint>:
 800cca0:	b530      	push	{r4, r5, lr}
 800cca2:	b085      	sub	sp, #20
 800cca4:	ed8d 0b00 	vstr	d0, [sp]
 800cca8:	e9dd 2300 	ldrd	r2, r3, [sp]
 800ccac:	f3c3 510a 	ubfx	r1, r3, #20, #11
 800ccb0:	f2a1 30ff 	subw	r0, r1, #1023	; 0x3ff
 800ccb4:	2813      	cmp	r0, #19
 800ccb6:	ea4f 74d3 	mov.w	r4, r3, lsr #31
 800ccba:	dc5a      	bgt.n	800cd72 <rint+0xd2>
 800ccbc:	2800      	cmp	r0, #0
 800ccbe:	da2f      	bge.n	800cd20 <rint+0x80>
 800ccc0:	f023 4100 	bic.w	r1, r3, #2147483648	; 0x80000000
 800ccc4:	4311      	orrs	r1, r2
 800ccc6:	d027      	beq.n	800cd18 <rint+0x78>
 800ccc8:	f3c3 0513 	ubfx	r5, r3, #0, #20
 800cccc:	4315      	orrs	r5, r2
 800ccce:	426a      	negs	r2, r5
 800ccd0:	432a      	orrs	r2, r5
 800ccd2:	0b12      	lsrs	r2, r2, #12
 800ccd4:	0c5b      	lsrs	r3, r3, #17
 800ccd6:	045b      	lsls	r3, r3, #17
 800ccd8:	f402 2200 	and.w	r2, r2, #524288	; 0x80000
 800ccdc:	e9dd 0100 	ldrd	r0, r1, [sp]
 800cce0:	ea42 0103 	orr.w	r1, r2, r3
 800cce4:	4b31      	ldr	r3, [pc, #196]	; (800cdac <rint+0x10c>)
 800cce6:	eb03 03c4 	add.w	r3, r3, r4, lsl #3
 800ccea:	ed93 6b00 	vldr	d6, [r3]
 800ccee:	ec41 0b17 	vmov	d7, r0, r1
 800ccf2:	ee36 7b07 	vadd.f64	d7, d6, d7
 800ccf6:	ed8d 7b02 	vstr	d7, [sp, #8]
 800ccfa:	ed9d 7b02 	vldr	d7, [sp, #8]
 800ccfe:	ee37 7b46 	vsub.f64	d7, d7, d6
 800cd02:	ed8d 7b00 	vstr	d7, [sp]
 800cd06:	9b01      	ldr	r3, [sp, #4]
 800cd08:	e9dd 0100 	ldrd	r0, r1, [sp]
 800cd0c:	f023 4300 	bic.w	r3, r3, #2147483648	; 0x80000000
 800cd10:	ea43 71c4 	orr.w	r1, r3, r4, lsl #31
 800cd14:	e9cd 0100 	strd	r0, r1, [sp]
 800cd18:	ed9d 0b00 	vldr	d0, [sp]
 800cd1c:	b005      	add	sp, #20
 800cd1e:	bd30      	pop	{r4, r5, pc}
 800cd20:	4923      	ldr	r1, [pc, #140]	; (800cdb0 <rint+0x110>)
 800cd22:	4101      	asrs	r1, r0
 800cd24:	ea03 0501 	and.w	r5, r3, r1
 800cd28:	4315      	orrs	r5, r2
 800cd2a:	d0f5      	beq.n	800cd18 <rint+0x78>
 800cd2c:	0849      	lsrs	r1, r1, #1
 800cd2e:	ea03 0501 	and.w	r5, r3, r1
 800cd32:	432a      	orrs	r2, r5
 800cd34:	d00b      	beq.n	800cd4e <rint+0xae>
 800cd36:	ea23 0101 	bic.w	r1, r3, r1
 800cd3a:	f44f 2380 	mov.w	r3, #262144	; 0x40000
 800cd3e:	2813      	cmp	r0, #19
 800cd40:	fa43 f300 	asr.w	r3, r3, r0
 800cd44:	bf0c      	ite	eq
 800cd46:	f04f 4200 	moveq.w	r2, #2147483648	; 0x80000000
 800cd4a:	2200      	movne	r2, #0
 800cd4c:	430b      	orrs	r3, r1
 800cd4e:	4619      	mov	r1, r3
 800cd50:	4b16      	ldr	r3, [pc, #88]	; (800cdac <rint+0x10c>)
 800cd52:	eb03 04c4 	add.w	r4, r3, r4, lsl #3
 800cd56:	ed94 6b00 	vldr	d6, [r4]
 800cd5a:	4610      	mov	r0, r2
 800cd5c:	ec41 0b17 	vmov	d7, r0, r1
 800cd60:	ee36 7b07 	vadd.f64	d7, d6, d7
 800cd64:	ed8d 7b02 	vstr	d7, [sp, #8]
 800cd68:	ed9d 7b02 	vldr	d7, [sp, #8]
 800cd6c:	ee37 7b46 	vsub.f64	d7, d7, d6
 800cd70:	e008      	b.n	800cd84 <rint+0xe4>
 800cd72:	2833      	cmp	r0, #51	; 0x33
 800cd74:	dd09      	ble.n	800cd8a <rint+0xea>
 800cd76:	f5b0 6f80 	cmp.w	r0, #1024	; 0x400
 800cd7a:	d1cd      	bne.n	800cd18 <rint+0x78>
 800cd7c:	ed9d 7b00 	vldr	d7, [sp]
 800cd80:	ee37 7b07 	vadd.f64	d7, d7, d7
 800cd84:	ed8d 7b00 	vstr	d7, [sp]
 800cd88:	e7c6      	b.n	800cd18 <rint+0x78>
 800cd8a:	f2a1 4013 	subw	r0, r1, #1043	; 0x413
 800cd8e:	f04f 31ff 	mov.w	r1, #4294967295	; 0xffffffff
 800cd92:	40c1      	lsrs	r1, r0
 800cd94:	420a      	tst	r2, r1
 800cd96:	d0bf      	beq.n	800cd18 <rint+0x78>
 800cd98:	0849      	lsrs	r1, r1, #1
 800cd9a:	420a      	tst	r2, r1
 800cd9c:	bf1f      	itttt	ne
 800cd9e:	ea22 0101 	bicne.w	r1, r2, r1
 800cda2:	f04f 4280 	movne.w	r2, #1073741824	; 0x40000000
 800cda6:	4102      	asrne	r2, r0
 800cda8:	430a      	orrne	r2, r1
 800cdaa:	e7d0      	b.n	800cd4e <rint+0xae>
 800cdac:	0800d610 	.word	0x0800d610
 800cdb0:	000fffff 	.word	0x000fffff
 800cdb4:	00000000 	.word	0x00000000

0800cdb8 <scalbn>:
 800cdb8:	b500      	push	{lr}
 800cdba:	ed2d 8b02 	vpush	{d8}
 800cdbe:	b083      	sub	sp, #12
 800cdc0:	ed8d 0b00 	vstr	d0, [sp]
 800cdc4:	9b01      	ldr	r3, [sp, #4]
 800cdc6:	f3c3 520a 	ubfx	r2, r3, #20, #11
 800cdca:	b9a2      	cbnz	r2, 800cdf6 <scalbn+0x3e>
 800cdcc:	9a00      	ldr	r2, [sp, #0]
 800cdce:	f023 4300 	bic.w	r3, r3, #2147483648	; 0x80000000
 800cdd2:	4313      	orrs	r3, r2
 800cdd4:	d03a      	beq.n	800ce4c <scalbn+0x94>
 800cdd6:	ed9f 7b2e 	vldr	d7, [pc, #184]	; 800ce90 <scalbn+0xd8>
 800cdda:	4b35      	ldr	r3, [pc, #212]	; (800ceb0 <scalbn+0xf8>)
 800cddc:	ee20 7b07 	vmul.f64	d7, d0, d7
 800cde0:	4298      	cmp	r0, r3
 800cde2:	ed8d 7b00 	vstr	d7, [sp]
 800cde6:	da11      	bge.n	800ce0c <scalbn+0x54>
 800cde8:	ed9f 7b2b 	vldr	d7, [pc, #172]	; 800ce98 <scalbn+0xe0>
 800cdec:	ed9d 6b00 	vldr	d6, [sp]
 800cdf0:	ee27 7b06 	vmul.f64	d7, d7, d6
 800cdf4:	e007      	b.n	800ce06 <scalbn+0x4e>
 800cdf6:	f240 71ff 	movw	r1, #2047	; 0x7ff
 800cdfa:	428a      	cmp	r2, r1
 800cdfc:	d10a      	bne.n	800ce14 <scalbn+0x5c>
 800cdfe:	ed9d 7b00 	vldr	d7, [sp]
 800ce02:	ee37 7b07 	vadd.f64	d7, d7, d7
 800ce06:	ed8d 7b00 	vstr	d7, [sp]
 800ce0a:	e01f      	b.n	800ce4c <scalbn+0x94>
 800ce0c:	9b01      	ldr	r3, [sp, #4]
 800ce0e:	f3c3 520a 	ubfx	r2, r3, #20, #11
 800ce12:	3a36      	subs	r2, #54	; 0x36
 800ce14:	4402      	add	r2, r0
 800ce16:	f240 71fe 	movw	r1, #2046	; 0x7fe
 800ce1a:	428a      	cmp	r2, r1
 800ce1c:	dd0a      	ble.n	800ce34 <scalbn+0x7c>
 800ce1e:	ed9f 8b20 	vldr	d8, [pc, #128]	; 800cea0 <scalbn+0xe8>
 800ce22:	eeb0 0b48 	vmov.f64	d0, d8
 800ce26:	ed9d 1b00 	vldr	d1, [sp]
 800ce2a:	f000 f843 	bl	800ceb4 <copysign>
 800ce2e:	ee20 7b08 	vmul.f64	d7, d0, d8
 800ce32:	e7e8      	b.n	800ce06 <scalbn+0x4e>
 800ce34:	2a00      	cmp	r2, #0
 800ce36:	dd10      	ble.n	800ce5a <scalbn+0xa2>
 800ce38:	e9dd 0100 	ldrd	r0, r1, [sp]
 800ce3c:	f023 43ff 	bic.w	r3, r3, #2139095040	; 0x7f800000
 800ce40:	f423 03e0 	bic.w	r3, r3, #7340032	; 0x700000
 800ce44:	ea43 5102 	orr.w	r1, r3, r2, lsl #20
 800ce48:	e9cd 0100 	strd	r0, r1, [sp]
 800ce4c:	ed9d 0b00 	vldr	d0, [sp]
 800ce50:	b003      	add	sp, #12
 800ce52:	ecbd 8b02 	vpop	{d8}
 800ce56:	f85d fb04 	ldr.w	pc, [sp], #4
 800ce5a:	f112 0f35 	cmn.w	r2, #53	; 0x35
 800ce5e:	da06      	bge.n	800ce6e <scalbn+0xb6>
 800ce60:	f24c 3350 	movw	r3, #50000	; 0xc350
 800ce64:	4298      	cmp	r0, r3
 800ce66:	dcda      	bgt.n	800ce1e <scalbn+0x66>
 800ce68:	ed9f 8b0b 	vldr	d8, [pc, #44]	; 800ce98 <scalbn+0xe0>
 800ce6c:	e7d9      	b.n	800ce22 <scalbn+0x6a>
 800ce6e:	e9dd 0100 	ldrd	r0, r1, [sp]
 800ce72:	f023 43ff 	bic.w	r3, r3, #2139095040	; 0x7f800000
 800ce76:	3236      	adds	r2, #54	; 0x36
 800ce78:	f423 03e0 	bic.w	r3, r3, #7340032	; 0x700000
 800ce7c:	ea43 5102 	orr.w	r1, r3, r2, lsl #20
 800ce80:	ec41 0b17 	vmov	d7, r0, r1
 800ce84:	ed9f 6b08 	vldr	d6, [pc, #32]	; 800cea8 <scalbn+0xf0>
 800ce88:	e7b2      	b.n	800cdf0 <scalbn+0x38>
 800ce8a:	bf00      	nop
 800ce8c:	f3af 8000 	nop.w
 800ce90:	00000000 	.word	0x00000000
 800ce94:	43500000 	.word	0x43500000
 800ce98:	c2f8f359 	.word	0xc2f8f359
 800ce9c:	01a56e1f 	.word	0x01a56e1f
 800cea0:	8800759c 	.word	0x8800759c
 800cea4:	7e37e43c 	.word	0x7e37e43c
 800cea8:	00000000 	.word	0x00000000
 800ceac:	3c900000 	.word	0x3c900000
 800ceb0:	ffff3cb0 	.word	0xffff3cb0

0800ceb4 <copysign>:
 800ceb4:	ec51 0b10 	vmov	r0, r1, d0
 800ceb8:	ee11 0a90 	vmov	r0, s3
 800cebc:	ee10 2a10 	vmov	r2, s0
 800cec0:	f021 4100 	bic.w	r1, r1, #2147483648	; 0x80000000
 800cec4:	f000 4000 	and.w	r0, r0, #2147483648	; 0x80000000
 800cec8:	ea41 0300 	orr.w	r3, r1, r0
 800cecc:	ec43 2b10 	vmov	d0, r2, r3
 800ced0:	4770      	bx	lr
	...

0800ced4 <_init>:
 800ced4:	b5f8      	push	{r3, r4, r5, r6, r7, lr}
 800ced6:	bf00      	nop
 800ced8:	bcf8      	pop	{r3, r4, r5, r6, r7}
 800ceda:	bc08      	pop	{r3}
 800cedc:	469e      	mov	lr, r3
 800cede:	4770      	bx	lr

0800cee0 <_fini>:
 800cee0:	b5f8      	push	{r3, r4, r5, r6, r7, lr}
 800cee2:	bf00      	nop
 800cee4:	bcf8      	pop	{r3, r4, r5, r6, r7}
 800cee6:	bc08      	pop	{r3}
 800cee8:	469e      	mov	lr, r3
 800ceea:	4770      	bx	lr
